Component: ARM Compiler 5.06 update 4 (build 422) Tool: armlink [4d35d2]

==============================================================================

Section Cross References

    board.o(i.mbed_die) refers to gpio.o(i.gpio_init_out) for gpio_init_out
    board.o(i.mbed_die) refers to assert.o(i.mbed_assert_internal) for mbed_assert_internal
    board.o(i.mbed_die) refers to fsl_gpio_hal.o(i.gpio_hal_write_pin_output) for gpio_hal_write_pin_output
    board.o(i.mbed_die) refers to wait_api.o(i.wait_ms) for wait_ms
    board.o(i.mbed_die) refers to board.o(.constdata) for .constdata
    cmsis_nvic.o(i.NVIC_SetVector) refers to rt_memmove_w.o(.text) for __aeabi_memmove4
    mbed_overrides.o(i.NMI_Handler) refers to gpio.o(i.gpio_init_in) for gpio_init_in
    retarget.o(i.$Sub$$main) refers to retarget.o(i.mbed_sdk_init) for mbed_sdk_init
    retarget.o(i.$Sub$$main) refers to retarget.o(i.mbed_main) for mbed_main
    retarget.o(i.$Sub$$main) refers to mainmain.o(i.main) for $Super$$main
    retarget.o(i._ZN4mbed10FileHandleD0Ev) refers to delete.o(i._ZdlPv) for operator delete (void*)
    retarget.o(i._ZN4mbed10FileHandleD0Ev) refers to retarget.o(.constdata__ZTVN4mbed10FileHandleE) for vtable for mbed::FileHandle
    retarget.o(i._ZN4mbed10FileHandleD0Ev) refers to retarget.o(.bss) for .bss
    retarget.o(i._ZN4mbed10FileHandleD2Ev) refers to retarget.o(.constdata__ZTVN4mbed10FileHandleE) for vtable for mbed::FileHandle
    retarget.o(i._ZN4mbed10FileHandleD2Ev) refers to retarget.o(.bss) for .bss
    retarget.o(i._sys_close) refers to retarget.o(.bss) for .bss
    retarget.o(i._sys_ensure) refers to retarget.o(.bss) for .bss
    retarget.o(i._sys_flen) refers to retarget.o(.bss) for .bss
    retarget.o(i._sys_istty) refers to retarget.o(.bss) for .bss
    retarget.o(i._sys_open) refers to _scanf_int.o(.text) for _scanf_int
    retarget.o(i._sys_open) refers to strcmpv7m.o(.text) for strcmp
    retarget.o(i._sys_open) refers to serial_api.o(i.serial_init) for serial_init
    retarget.o(i._sys_open) refers to FilePath.o(i._ZN4mbed8FilePathC1EPKc) for mbed::FilePath::FilePath(const char*)
    retarget.o(i._sys_open) refers to FilePath.o(i._ZN4mbed8FilePath6existsEv) for mbed::FilePath::exists()
    retarget.o(i._sys_open) refers to FilePath.o(i._ZN4mbed8FilePath6isFileEv) for mbed::FilePath::isFile()
    retarget.o(i._sys_open) refers to FilePath.o(i._ZN4mbed8FilePath4fileEv) for mbed::FilePath::file()
    retarget.o(i._sys_open) refers to __0sscanf.o(.text) for __0sscanf
    retarget.o(i._sys_open) refers to FilePath.o(i._ZN4mbed8FilePath10fileSystemEv) for mbed::FilePath::fileSystem()
    retarget.o(i._sys_open) refers to FilePath.o(i._ZN4mbed8FilePath8fileNameEv) for mbed::FilePath::fileName()
    retarget.o(i._sys_open) refers to retarget.o(.constdata) for .constdata
    retarget.o(i._sys_open) refers to serial_api.o(.data) for stdio_uart_inited
    retarget.o(i._sys_open) refers to retarget.o(.bss) for .bss
    retarget.o(i._sys_read) refers to serial_api.o(i.serial_init) for serial_init
    retarget.o(i._sys_read) refers to serial_api.o(i.serial_getc) for serial_getc
    retarget.o(i._sys_read) refers to serial_api.o(.data) for stdio_uart_inited
    retarget.o(i._sys_read) refers to retarget.o(.bss) for .bss
    retarget.o(i._sys_seek) refers to retarget.o(.bss) for .bss
    retarget.o(i._sys_write) refers to serial_api.o(i.serial_init) for serial_init
    retarget.o(i._sys_write) refers to serial_api.o(i.serial_putc) for serial_putc
    retarget.o(i._sys_write) refers to serial_api.o(.data) for stdio_uart_inited
    retarget.o(i._sys_write) refers to retarget.o(.bss) for .bss
    retarget.o(i.mkdir) refers to FilePath.o(i._ZN4mbed8FilePathC1EPKc) for mbed::FilePath::FilePath(const char*)
    retarget.o(i.mkdir) refers to FilePath.o(i._ZN4mbed8FilePath10fileSystemEv) for mbed::FilePath::fileSystem()
    retarget.o(i.mkdir) refers to FilePath.o(i._ZN4mbed8FilePath8fileNameEv) for mbed::FilePath::fileName()
    retarget.o(i.opendir) refers to FilePath.o(i._ZN4mbed8FilePathC1EPKc) for mbed::FilePath::FilePath(const char*)
    retarget.o(i.opendir) refers to FilePath.o(i._ZN4mbed8FilePath10fileSystemEv) for mbed::FilePath::fileSystem()
    retarget.o(i.opendir) refers to FilePath.o(i._ZN4mbed8FilePath8fileNameEv) for mbed::FilePath::fileName()
    retarget.o(i.opendir) refers to FileSystemLike.o(i._ZN4mbed14FileSystemLike7opendirEv) for mbed::FileSystemLike::opendir()
    retarget.o(i.remove) refers to FilePath.o(i._ZN4mbed8FilePathC1EPKc) for mbed::FilePath::FilePath(const char*)
    retarget.o(i.remove) refers to FilePath.o(i._ZN4mbed8FilePath10fileSystemEv) for mbed::FilePath::fileSystem()
    retarget.o(i.remove) refers to FilePath.o(i._ZN4mbed8FilePath8fileNameEv) for mbed::FilePath::fileName()
    retarget.o(i.rename) refers to FilePath.o(i._ZN4mbed8FilePathC1EPKc) for mbed::FilePath::FilePath(const char*)
    retarget.o(i.rename) refers to FilePath.o(i._ZN4mbed8FilePath10fileSystemEv) for mbed::FilePath::fileSystem()
    retarget.o(i.rename) refers to FilePath.o(i._ZN4mbed8FilePath8fileNameEv) for mbed::FilePath::fileName()
    retarget.o(.ARM.exidx) refers to retarget.o(i._sys_open) for i._sys_open
    retarget.o(.ARM.exidx) refers to retarget.o(i._sys_close) for i._sys_close
    retarget.o(.ARM.exidx) refers to retarget.o(i._sys_write) for i._sys_write
    retarget.o(.ARM.exidx) refers to retarget.o(i._sys_read) for i._sys_read
    retarget.o(.ARM.exidx) refers to retarget.o(i._sys_istty) for i._sys_istty
    retarget.o(.ARM.exidx) refers to retarget.o(i._sys_seek) for i._sys_seek
    retarget.o(.ARM.exidx) refers to retarget.o(i._sys_ensure) for i._sys_ensure
    retarget.o(.ARM.exidx) refers to retarget.o(i._sys_flen) for i._sys_flen
    retarget.o(.ARM.exidx) refers to retarget.o(i.remove) for i.remove
    retarget.o(.ARM.exidx) refers to retarget.o(i.rename) for i.rename
    retarget.o(.ARM.exidx) refers to retarget.o(i.tmpnam) for i.tmpnam
    retarget.o(.ARM.exidx) refers to retarget.o(i.tmpfile) for i.tmpfile
    retarget.o(.ARM.exidx) refers to retarget.o(i._sys_command_string) for i._sys_command_string
    retarget.o(.ARM.exidx) refers to retarget.o(i.opendir) for i.opendir
    retarget.o(.ARM.exidx) refers to retarget.o(i.readdir) for i.readdir
    retarget.o(.ARM.exidx) refers to retarget.o(i.closedir) for i.closedir
    retarget.o(.ARM.exidx) refers to retarget.o(i.rewinddir) for i.rewinddir
    retarget.o(.ARM.exidx) refers to retarget.o(i.telldir) for i.telldir
    retarget.o(.ARM.exidx) refers to retarget.o(i.seekdir) for i.seekdir
    retarget.o(.ARM.exidx) refers to retarget.o(i.mkdir) for i.mkdir
    retarget.o(.ARM.exidx) refers to retarget.o(i.mbed_main) for i.mbed_main
    retarget.o(.ARM.exidx) refers to retarget.o(i.mbed_sdk_init) for i.mbed_sdk_init
    retarget.o(.ARM.exidx) refers to retarget.o(i.$Sub$$main) for i.$Sub$$main
    retarget.o(.ARM.exidx) refers to retarget.o(i._ZN4mbed10FileHandleD2Ev) for i._ZN4mbed10FileHandleD2Ev
    retarget.o(.ARM.exidx) refers to retarget.o(i._ZN4mbed10FileHandleD0Ev) for i._ZN4mbed10FileHandleD0Ev
    startup_MK64F12.o(RESET) refers to startup_MK64F12.o(.text) for Reset_Handler
    startup_MK64F12.o(RESET) refers to mbed_overrides.o(i.NMI_Handler) for NMI_Handler
    startup_MK64F12.o(.text) refers to system_MK64F12.o(i.SystemInit) for SystemInit
    startup_MK64F12.o(.text) refers to __main.o(!!!main) for __main
    sys.o(.ARM.exidx) refers to sys.o(i.__user_setup_stackheap) for i.__user_setup_stackheap
    system_MK64F12.o(i.SystemCoreClockUpdate) refers to system_MK64F12.o(.data) for .data
    mma8451q.o(i._ZN8MMA8451Q10getAccAxisEh) refers to mma8451q.o(i._ZN8MMA8451Q8readRegsEiPhi) for MMA8451Q::readRegs(int, unsigned char*, int)
    mma8451q.o(i._ZN8MMA8451Q13getAccAllAxisEPf) refers to mma8451q.o(i._ZN8MMA8451Q7getAccXEv) for MMA8451Q::getAccX()
    mma8451q.o(i._ZN8MMA8451Q13getAccAllAxisEPf) refers to mma8451q.o(i._ZN8MMA8451Q7getAccYEv) for MMA8451Q::getAccY()
    mma8451q.o(i._ZN8MMA8451Q13getAccAllAxisEPf) refers to mma8451q.o(i._ZN8MMA8451Q7getAccZEv) for MMA8451Q::getAccZ()
    mma8451q.o(i._ZN8MMA8451Q7getAccXEv) refers to mma8451q.o(i._ZN8MMA8451Q10getAccAxisEh) for MMA8451Q::getAccAxis(unsigned char)
    mma8451q.o(i._ZN8MMA8451Q7getAccXEv) refers to f2d.o(x$fpl$f2d) for __aeabi_f2d
    mma8451q.o(i._ZN8MMA8451Q7getAccXEv) refers to ddiv.o(x$fpl$ddiv) for __aeabi_ddiv
    mma8451q.o(i._ZN8MMA8451Q7getAccXEv) refers to d2f.o(x$fpl$d2f) for __aeabi_d2f
    mma8451q.o(i._ZN8MMA8451Q7getAccYEv) refers to mma8451q.o(i._ZN8MMA8451Q10getAccAxisEh) for MMA8451Q::getAccAxis(unsigned char)
    mma8451q.o(i._ZN8MMA8451Q7getAccYEv) refers to f2d.o(x$fpl$f2d) for __aeabi_f2d
    mma8451q.o(i._ZN8MMA8451Q7getAccYEv) refers to ddiv.o(x$fpl$ddiv) for __aeabi_ddiv
    mma8451q.o(i._ZN8MMA8451Q7getAccYEv) refers to d2f.o(x$fpl$d2f) for __aeabi_d2f
    mma8451q.o(i._ZN8MMA8451Q7getAccZEv) refers to mma8451q.o(i._ZN8MMA8451Q10getAccAxisEh) for MMA8451Q::getAccAxis(unsigned char)
    mma8451q.o(i._ZN8MMA8451Q7getAccZEv) refers to f2d.o(x$fpl$f2d) for __aeabi_f2d
    mma8451q.o(i._ZN8MMA8451Q7getAccZEv) refers to ddiv.o(x$fpl$ddiv) for __aeabi_ddiv
    mma8451q.o(i._ZN8MMA8451Q7getAccZEv) refers to d2f.o(x$fpl$d2f) for __aeabi_d2f
    mma8451q.o(i._ZN8MMA8451Q8readRegsEiPhi) refers to I2C.o(i._ZN4mbed3I2C5writeEiPKcib) for mbed::I2C::write(int, const char*, int, bool)
    mma8451q.o(i._ZN8MMA8451Q8readRegsEiPhi) refers to I2C.o(i._ZN4mbed3I2C4readEiPcib) for mbed::I2C::read(int, char*, int, bool)
    mma8451q.o(i._ZN8MMA8451Q9getWhoAmIEv) refers to mma8451q.o(i._ZN8MMA8451Q8readRegsEiPhi) for MMA8451Q::readRegs(int, unsigned char*, int)
    mma8451q.o(i._ZN8MMA8451Q9writeRegsEPhi) refers to I2C.o(i._ZN4mbed3I2C5writeEiPKcib) for mbed::I2C::write(int, const char*, int, bool)
    mma8451q.o(i._ZN8MMA8451QC1E7PinNameS0_i) refers to I2C.o(i._ZN4mbed3I2CC1E7PinNameS1_) for mbed::I2C::I2C(PinName, PinName)
    mma8451q.o(i._ZN8MMA8451QC1E7PinNameS0_i) refers to mma8451q.o(i._ZN8MMA8451Q9writeRegsEPhi) for MMA8451Q::writeRegs(unsigned char*, int)
    mma8451q.o(.ARM.exidx) refers to mma8451q.o(i._ZN8MMA8451Q9writeRegsEPhi) for i._ZN8MMA8451Q9writeRegsEPhi
    mma8451q.o(.ARM.exidx) refers to mma8451q.o(i._ZN8MMA8451QC1E7PinNameS0_i) for i._ZN8MMA8451QC1E7PinNameS0_i
    mma8451q.o(.ARM.exidx) refers to mma8451q.o(i._ZN8MMA8451QD1Ev) for i._ZN8MMA8451QD1Ev
    mma8451q.o(.ARM.exidx) refers to mma8451q.o(i._ZN8MMA8451Q8readRegsEiPhi) for i._ZN8MMA8451Q8readRegsEiPhi
    mma8451q.o(.ARM.exidx) refers to mma8451q.o(i._ZN8MMA8451Q9getWhoAmIEv) for i._ZN8MMA8451Q9getWhoAmIEv
    mma8451q.o(.ARM.exidx) refers to mma8451q.o(i._ZN8MMA8451Q10getAccAxisEh) for i._ZN8MMA8451Q10getAccAxisEh
    mma8451q.o(.ARM.exidx) refers to mma8451q.o(i._ZN8MMA8451Q7getAccXEv) for i._ZN8MMA8451Q7getAccXEv
    mma8451q.o(.ARM.exidx) refers to mma8451q.o(i._ZN8MMA8451Q7getAccYEv) for i._ZN8MMA8451Q7getAccYEv
    mma8451q.o(.ARM.exidx) refers to mma8451q.o(i._ZN8MMA8451Q7getAccZEv) for i._ZN8MMA8451Q7getAccZEv
    mma8451q.o(.ARM.exidx) refers to mma8451q.o(i._ZN8MMA8451Q13getAccAllAxisEPf) for i._ZN8MMA8451Q13getAccAllAxisEPf
    mytouch.o(i._ZN7MYTOUCH6TP_GetEh) refers to mytouch.o(i._ZN4mbed10DigitalOut5writeEi) for mbed::DigitalOut::write(int)
    mytouch.o(i._ZN7MYTOUCH6TP_GetEh) refers to wait_api.o(i.wait_us) for wait_us
    mytouch.o(i._ZN7MYTOUCH6TP_GetEh) refers to SPI.o(i._ZN4mbed3SPI5writeEi) for mbed::SPI::write(int)
    mytouch.o(i._ZN7MYTOUCHC1E7PinNameS0_S0_S0_S0_hPFvvE) refers to SPI.o(i._ZN4mbed3SPIC1E7PinNameS1_S1_S1_) for mbed::SPI::SPI(PinName, PinName, PinName, PinName)
    mytouch.o(i._ZN7MYTOUCHC1E7PinNameS0_S0_S0_S0_hPFvvE) refers to gpio.o(i.gpio_init_out) for gpio_init_out
    mytouch.o(i._ZN7MYTOUCHC1E7PinNameS0_S0_S0_S0_hPFvvE) refers to InterruptIn.o(i._ZN4mbed11InterruptInC1E7PinName) for mbed::InterruptIn::InterruptIn(PinName)
    mytouch.o(i._ZN7MYTOUCHC1E7PinNameS0_S0_S0_S0_hPFvvE) refers to mytouch.o(i._ZN4mbed10DigitalOut5writeEi) for mbed::DigitalOut::write(int)
    mytouch.o(i._ZN7MYTOUCHC1E7PinNameS0_S0_S0_S0_hPFvvE) refers to SPI.o(i._ZN4mbed3SPI9frequencyEi) for mbed::SPI::frequency(int)
    mytouch.o(i._ZN7MYTOUCHC1E7PinNameS0_S0_S0_S0_hPFvvE) refers to SPI.o(i._ZN4mbed3SPI6formatEii) for mbed::SPI::format(int, int)
    mytouch.o(i._ZN7MYTOUCHC1E7PinNameS0_S0_S0_S0_hPFvvE) refers to InterruptIn.o(i._ZN4mbed11InterruptIn4fallEPFvvE) for mbed::InterruptIn::fall(void(*)())
    mytouch.o(.ARM.exidx) refers to mytouch.o(i._ZN7MYTOUCHC1E7PinNameS0_S0_S0_S0_hPFvvE) for i._ZN7MYTOUCHC1E7PinNameS0_S0_S0_S0_hPFvvE
    mytouch.o(.ARM.exidx) refers to mytouch.o(i._ZN7MYTOUCH6TP_GetEh) for i._ZN7MYTOUCH6TP_GetEh
    spi_stmpe610.o(i._ZN12SPI_STMPE61011getRAWPointEPtS0_S0_) refers to spi_stmpe610.o(i._ZN12SPI_STMPE6109writeRegsEPhi) for SPI_STMPE610::writeRegs(unsigned char*, int)
    spi_stmpe610.o(i._ZN12SPI_STMPE61011getRAWPointEPtS0_S0_) refers to wait_api.o(i.wait) for wait
    spi_stmpe610.o(i._ZN12SPI_STMPE61011getRAWPointEPtS0_S0_) refers to spi_stmpe610.o(i._ZN12SPI_STMPE6108readRegsEiPhi) for SPI_STMPE610::readRegs(int, unsigned char*, int)
    spi_stmpe610.o(i._ZN12SPI_STMPE6105read8Ei) refers to spi_stmpe610.o(i._ZN12SPI_STMPE6108readRegsEiPhi) for SPI_STMPE610::readRegs(int, unsigned char*, int)
    spi_stmpe610.o(i._ZN12SPI_STMPE6106read16Ei) refers to spi_stmpe610.o(i._ZN12SPI_STMPE6108readRegsEiPhi) for SPI_STMPE610::readRegs(int, unsigned char*, int)
    spi_stmpe610.o(i._ZN12SPI_STMPE6106write8Eih) refers to spi_stmpe610.o(i._ZN12SPI_STMPE6109writeRegsEPhi) for SPI_STMPE610::writeRegs(unsigned char*, int)
    spi_stmpe610.o(i._ZN12SPI_STMPE6107write16Eit) refers to spi_stmpe610.o(i._ZN12SPI_STMPE6109writeRegsEPhi) for SPI_STMPE610::writeRegs(unsigned char*, int)
    spi_stmpe610.o(i._ZN12SPI_STMPE6108readRegsEiPhi) refers to spi_stmpe610.o(i._ZN4mbed10DigitalOutaSEi) for mbed::DigitalOut::operator =(int)
    spi_stmpe610.o(i._ZN12SPI_STMPE6108readRegsEiPhi) refers to SPI.o(i._ZN4mbed3SPI5writeEi) for mbed::SPI::write(int)
    spi_stmpe610.o(i._ZN12SPI_STMPE6109writeRegsEPhi) refers to spi_stmpe610.o(i._ZN4mbed10DigitalOutaSEi) for mbed::DigitalOut::operator =(int)
    spi_stmpe610.o(i._ZN12SPI_STMPE6109writeRegsEPhi) refers to SPI.o(i._ZN4mbed3SPI5writeEi) for mbed::SPI::write(int)
    spi_stmpe610.o(i._ZN12SPI_STMPE610C1E7PinNameS0_S0_S0_) refers to SPI.o(i._ZN4mbed3SPIC1E7PinNameS1_S1_S1_) for mbed::SPI::SPI(PinName, PinName, PinName, PinName)
    spi_stmpe610.o(i._ZN12SPI_STMPE610C1E7PinNameS0_S0_S0_) refers to gpio.o(i.gpio_init_out) for gpio_init_out
    spi_stmpe610.o(i._ZN12SPI_STMPE610C1E7PinNameS0_S0_S0_) refers to spi_stmpe610.o(i._ZN4mbed10DigitalOutaSEi) for mbed::DigitalOut::operator =(int)
    spi_stmpe610.o(i._ZN12SPI_STMPE610C1E7PinNameS0_S0_S0_) refers to SPI.o(i._ZN4mbed3SPI9frequencyEi) for mbed::SPI::frequency(int)
    spi_stmpe610.o(i._ZN12SPI_STMPE610C1E7PinNameS0_S0_S0_) refers to SPI.o(i._ZN4mbed3SPI6formatEii) for mbed::SPI::format(int, int)
    spi_stmpe610.o(i._ZN12SPI_STMPE610C1E7PinNameS0_S0_S0_) refers to spi_stmpe610.o(i._ZN12SPI_STMPE6106write8Eih) for SPI_STMPE610::write8(int, unsigned char)
    spi_stmpe610.o(i._ZN12SPI_STMPE610C1E7PinNameS0_S0_S0_) refers to wait_api.o(i.wait) for wait
    spi_stmpe610.o(.ARM.exidx) refers to spi_stmpe610.o(i._ZN12SPI_STMPE6109writeRegsEPhi) for i._ZN12SPI_STMPE6109writeRegsEPhi
    spi_stmpe610.o(.ARM.exidx) refers to spi_stmpe610.o(i._ZN12SPI_STMPE6106write8Eih) for i._ZN12SPI_STMPE6106write8Eih
    spi_stmpe610.o(.ARM.exidx) refers to spi_stmpe610.o(i._ZN12SPI_STMPE610C1E7PinNameS0_S0_S0_) for i._ZN12SPI_STMPE610C1E7PinNameS0_S0_S0_
    spi_stmpe610.o(.ARM.exidx) refers to spi_stmpe610.o(i._ZN12SPI_STMPE610D1Ev) for i._ZN12SPI_STMPE610D1Ev
    spi_stmpe610.o(.ARM.exidx) refers to spi_stmpe610.o(i._ZN12SPI_STMPE6108readRegsEiPhi) for i._ZN12SPI_STMPE6108readRegsEiPhi
    spi_stmpe610.o(.ARM.exidx) refers to spi_stmpe610.o(i._ZN12SPI_STMPE6105read8Ei) for i._ZN12SPI_STMPE6105read8Ei
    spi_stmpe610.o(.ARM.exidx) refers to spi_stmpe610.o(i._ZN12SPI_STMPE6106read16Ei) for i._ZN12SPI_STMPE6106read16Ei
    spi_stmpe610.o(.ARM.exidx) refers to spi_stmpe610.o(i._ZN12SPI_STMPE6107write16Eit) for i._ZN12SPI_STMPE6107write16Eit
    spi_stmpe610.o(.ARM.exidx) refers to spi_stmpe610.o(i._ZN12SPI_STMPE61011getRAWPointEPtS0_S0_) for i._ZN12SPI_STMPE61011getRAWPointEPtS0_S0_
    graphicsdisplay.o(i._ZN15GraphicsDisplay9characterEiii) refers to graphicsdisplay.o(.constdata) for FONT8x8
    graphicsdisplay.o(i._ZN15GraphicsDisplayC2EPKc) refers to textdisplay.o(i._ZN11TextDisplayC2EPKc) for TextDisplay::TextDisplay__sub_object(const char*)
    graphicsdisplay.o(i._ZN15GraphicsDisplayC2EPKc) refers to textdisplay.o(i._ZN11TextDisplay10foregroundEt) for TextDisplay::foreground(unsigned short)
    graphicsdisplay.o(i._ZN15GraphicsDisplayC2EPKc) refers to textdisplay.o(i._ZN11TextDisplay10backgroundEt) for TextDisplay::background(unsigned short)
    graphicsdisplay.o(i._ZN15GraphicsDisplayC2EPKc) refers to graphicsdisplay.o(.constdata__ZTV15GraphicsDisplay) for vtable for GraphicsDisplay
    graphicsdisplay.o(.ARM.exidx) refers to graphicsdisplay.o(i._ZN15GraphicsDisplayC2EPKc) for i._ZN15GraphicsDisplayC2EPKc
    graphicsdisplay.o(.ARM.exidx) refers to graphicsdisplay.o(i._ZN15GraphicsDisplay6windowEjjjj) for i._ZN15GraphicsDisplay6windowEjjjj
    graphicsdisplay.o(.ARM.exidx) refers to graphicsdisplay.o(i._ZN15GraphicsDisplay4putpEi) for i._ZN15GraphicsDisplay4putpEi
    graphicsdisplay.o(.ARM.exidx) refers to graphicsdisplay.o(i._ZN15GraphicsDisplay3clsEv) for i._ZN15GraphicsDisplay3clsEv
    graphicsdisplay.o(.ARM.exidx) refers to graphicsdisplay.o(i._ZN15GraphicsDisplay4fillEiiiii) for i._ZN15GraphicsDisplay4fillEiiiii
    graphicsdisplay.o(.ARM.exidx) refers to graphicsdisplay.o(i._ZN15GraphicsDisplay4blitEiiiiPKi) for i._ZN15GraphicsDisplay4blitEiiiiPKi
    graphicsdisplay.o(.ARM.exidx) refers to graphicsdisplay.o(i._ZN15GraphicsDisplay7blitbitEiiiiPKc) for i._ZN15GraphicsDisplay7blitbitEiiiiPKc
    graphicsdisplay.o(.ARM.exidx) refers to graphicsdisplay.o(i._ZN15GraphicsDisplay9characterEiii) for i._ZN15GraphicsDisplay9characterEiii
    graphicsdisplay.o(.ARM.exidx) refers to graphicsdisplay.o(i._ZN15GraphicsDisplay7columnsEv) for i._ZN15GraphicsDisplay7columnsEv
    graphicsdisplay.o(.ARM.exidx) refers to graphicsdisplay.o(i._ZN15GraphicsDisplay4rowsEv) for i._ZN15GraphicsDisplay4rowsEv
    spi_tft_ili9341.o(i._ZN15SPI_TFT_ILI934110fillcircleEiiii) refers to spi_tft_ili9341.o(i._ZN15SPI_TFT_ILI93415vlineEiiii) for SPI_TFT_ILI9341::vline(int, int, int, int)
    spi_tft_ili9341.o(i._ZN15SPI_TFT_ILI934115set_orientationEj) refers to spi_tft_ili9341.o(i._ZN15SPI_TFT_ILI93416wr_cmdEh) for SPI_TFT_ILI9341::wr_cmd(unsigned char)
    spi_tft_ili9341.o(i._ZN15SPI_TFT_ILI934115set_orientationEj) refers to SPI.o(i._ZN4mbed3SPI5writeEi) for mbed::SPI::write(int)
    spi_tft_ili9341.o(i._ZN15SPI_TFT_ILI934115set_orientationEj) refers to spi_stmpe610.o(i._ZN4mbed10DigitalOutaSEi) for mbed::DigitalOut::operator =(int)
    spi_tft_ili9341.o(i._ZN15SPI_TFT_ILI934115set_orientationEj) refers to spi_tft_ili9341.o(i._ZN15SPI_TFT_ILI93419WindowMaxEv) for SPI_TFT_ILI9341::WindowMax()
    spi_tft_ili9341.o(i._ZN15SPI_TFT_ILI93413clsEv) refers to spi_tft_ili9341.o(i._ZN15SPI_TFT_ILI93419WindowMaxEv) for SPI_TFT_ILI9341::WindowMax()
    spi_tft_ili9341.o(i._ZN15SPI_TFT_ILI93413clsEv) refers to spi_tft_ili9341.o(i._ZN15SPI_TFT_ILI93416wr_cmdEh) for SPI_TFT_ILI9341::wr_cmd(unsigned char)
    spi_tft_ili9341.o(i._ZN15SPI_TFT_ILI93413clsEv) refers to SPI.o(i._ZN4mbed3SPI6formatEii) for mbed::SPI::format(int, int)
    spi_tft_ili9341.o(i._ZN15SPI_TFT_ILI93413clsEv) refers to SPI.o(i._ZN4mbed3SPI5writeEi) for mbed::SPI::write(int)
    spi_tft_ili9341.o(i._ZN15SPI_TFT_ILI93413clsEv) refers to spi_stmpe610.o(i._ZN4mbed10DigitalOutaSEi) for mbed::DigitalOut::operator =(int)
    spi_tft_ili9341.o(i._ZN15SPI_TFT_ILI93414lineEiiiii) refers to spi_tft_ili9341.o(i._ZN15SPI_TFT_ILI93415vlineEiiii) for SPI_TFT_ILI9341::vline(int, int, int, int)
    spi_tft_ili9341.o(i._ZN15SPI_TFT_ILI93414lineEiiiii) refers to spi_tft_ili9341.o(i._ZN15SPI_TFT_ILI93415hlineEiiii) for SPI_TFT_ILI9341::hline(int, int, int, int)
    spi_tft_ili9341.o(i._ZN15SPI_TFT_ILI93414rectEiiiii) refers to spi_tft_ili9341.o(i._ZN15SPI_TFT_ILI93415hlineEiiii) for SPI_TFT_ILI9341::hline(int, int, int, int)
    spi_tft_ili9341.o(i._ZN15SPI_TFT_ILI93414rectEiiiii) refers to spi_tft_ili9341.o(i._ZN15SPI_TFT_ILI93415vlineEiiii) for SPI_TFT_ILI9341::vline(int, int, int, int)
    spi_tft_ili9341.o(i._ZN15SPI_TFT_ILI93415hlineEiiii) refers to spi_tft_ili9341.o(i._ZN15SPI_TFT_ILI93416wr_cmdEh) for SPI_TFT_ILI9341::wr_cmd(unsigned char)
    spi_tft_ili9341.o(i._ZN15SPI_TFT_ILI93415hlineEiiii) refers to SPI.o(i._ZN4mbed3SPI6formatEii) for mbed::SPI::format(int, int)
    spi_tft_ili9341.o(i._ZN15SPI_TFT_ILI93415hlineEiiii) refers to SPI.o(i._ZN4mbed3SPI5writeEi) for mbed::SPI::write(int)
    spi_tft_ili9341.o(i._ZN15SPI_TFT_ILI93415hlineEiiii) refers to spi_stmpe610.o(i._ZN4mbed10DigitalOutaSEi) for mbed::DigitalOut::operator =(int)
    spi_tft_ili9341.o(i._ZN15SPI_TFT_ILI93415hlineEiiii) refers to spi_tft_ili9341.o(i._ZN15SPI_TFT_ILI93419WindowMaxEv) for SPI_TFT_ILI9341::WindowMax()
    spi_tft_ili9341.o(i._ZN15SPI_TFT_ILI93415pixelEiii) refers to spi_tft_ili9341.o(i._ZN15SPI_TFT_ILI93416wr_cmdEh) for SPI_TFT_ILI9341::wr_cmd(unsigned char)
    spi_tft_ili9341.o(i._ZN15SPI_TFT_ILI93415pixelEiii) refers to SPI.o(i._ZN4mbed3SPI5writeEi) for mbed::SPI::write(int)
    spi_tft_ili9341.o(i._ZN15SPI_TFT_ILI93415pixelEiii) refers to spi_stmpe610.o(i._ZN4mbed10DigitalOutaSEi) for mbed::DigitalOut::operator =(int)
    spi_tft_ili9341.o(i._ZN15SPI_TFT_ILI93415pixelEiii) refers to SPI.o(i._ZN4mbed3SPI6formatEii) for mbed::SPI::format(int, int)
    spi_tft_ili9341.o(i._ZN15SPI_TFT_ILI93415vlineEiiii) refers to spi_tft_ili9341.o(i._ZN15SPI_TFT_ILI93416wr_cmdEh) for SPI_TFT_ILI9341::wr_cmd(unsigned char)
    spi_tft_ili9341.o(i._ZN15SPI_TFT_ILI93415vlineEiiii) refers to SPI.o(i._ZN4mbed3SPI6formatEii) for mbed::SPI::format(int, int)
    spi_tft_ili9341.o(i._ZN15SPI_TFT_ILI93415vlineEiiii) refers to SPI.o(i._ZN4mbed3SPI5writeEi) for mbed::SPI::write(int)
    spi_tft_ili9341.o(i._ZN15SPI_TFT_ILI93415vlineEiiii) refers to spi_stmpe610.o(i._ZN4mbed10DigitalOutaSEi) for mbed::DigitalOut::operator =(int)
    spi_tft_ili9341.o(i._ZN15SPI_TFT_ILI93415vlineEiiii) refers to spi_tft_ili9341.o(i._ZN15SPI_TFT_ILI93419WindowMaxEv) for SPI_TFT_ILI9341::WindowMax()
    spi_tft_ili9341.o(i._ZN15SPI_TFT_ILI93416BitmapEjjjjPh) refers to spi_tft_ili9341.o(i._ZN15SPI_TFT_ILI93416wr_cmdEh) for SPI_TFT_ILI9341::wr_cmd(unsigned char)
    spi_tft_ili9341.o(i._ZN15SPI_TFT_ILI93416BitmapEjjjjPh) refers to SPI.o(i._ZN4mbed3SPI6formatEii) for mbed::SPI::format(int, int)
    spi_tft_ili9341.o(i._ZN15SPI_TFT_ILI93416BitmapEjjjjPh) refers to SPI.o(i._ZN4mbed3SPI5writeEi) for mbed::SPI::write(int)
    spi_tft_ili9341.o(i._ZN15SPI_TFT_ILI93416BitmapEjjjjPh) refers to spi_stmpe610.o(i._ZN4mbed10DigitalOutaSEi) for mbed::DigitalOut::operator =(int)
    spi_tft_ili9341.o(i._ZN15SPI_TFT_ILI93416BitmapEjjjjPh) refers to spi_tft_ili9341.o(i._ZN15SPI_TFT_ILI93419WindowMaxEv) for SPI_TFT_ILI9341::WindowMax()
    spi_tft_ili9341.o(i._ZN15SPI_TFT_ILI93416windowEjjjj) refers to spi_tft_ili9341.o(i._ZN15SPI_TFT_ILI93416wr_cmdEh) for SPI_TFT_ILI9341::wr_cmd(unsigned char)
    spi_tft_ili9341.o(i._ZN15SPI_TFT_ILI93416windowEjjjj) refers to SPI.o(i._ZN4mbed3SPI5writeEi) for mbed::SPI::write(int)
    spi_tft_ili9341.o(i._ZN15SPI_TFT_ILI93416windowEjjjj) refers to spi_stmpe610.o(i._ZN4mbed10DigitalOutaSEi) for mbed::DigitalOut::operator =(int)
    spi_tft_ili9341.o(i._ZN15SPI_TFT_ILI93416wr_cmdEh) refers to spi_stmpe610.o(i._ZN4mbed10DigitalOutaSEi) for mbed::DigitalOut::operator =(int)
    spi_tft_ili9341.o(i._ZN15SPI_TFT_ILI93416wr_cmdEh) refers to SPI.o(i._ZN4mbed3SPI5writeEi) for mbed::SPI::write(int)
    spi_tft_ili9341.o(i._ZN15SPI_TFT_ILI93416wr_datEh) refers to SPI.o(i._ZN4mbed3SPI5writeEi) for mbed::SPI::write(int)
    spi_tft_ili9341.o(i._ZN15SPI_TFT_ILI93418fillrectEiiiii) refers to spi_tft_ili9341.o(i._ZN15SPI_TFT_ILI93416wr_cmdEh) for SPI_TFT_ILI9341::wr_cmd(unsigned char)
    spi_tft_ili9341.o(i._ZN15SPI_TFT_ILI93418fillrectEiiiii) refers to SPI.o(i._ZN4mbed3SPI6formatEii) for mbed::SPI::format(int, int)
    spi_tft_ili9341.o(i._ZN15SPI_TFT_ILI93418fillrectEiiiii) refers to SPI.o(i._ZN4mbed3SPI5writeEi) for mbed::SPI::write(int)
    spi_tft_ili9341.o(i._ZN15SPI_TFT_ILI93418fillrectEiiiii) refers to spi_stmpe610.o(i._ZN4mbed10DigitalOutaSEi) for mbed::DigitalOut::operator =(int)
    spi_tft_ili9341.o(i._ZN15SPI_TFT_ILI93418fillrectEiiiii) refers to spi_tft_ili9341.o(i._ZN15SPI_TFT_ILI93419WindowMaxEv) for SPI_TFT_ILI9341::WindowMax()
    spi_tft_ili9341.o(i._ZN15SPI_TFT_ILI93419characterEiii) refers to spi_tft_ili9341.o(i._ZN15SPI_TFT_ILI93416wr_cmdEh) for SPI_TFT_ILI9341::wr_cmd(unsigned char)
    spi_tft_ili9341.o(i._ZN15SPI_TFT_ILI93419characterEiii) refers to SPI.o(i._ZN4mbed3SPI6formatEii) for mbed::SPI::format(int, int)
    spi_tft_ili9341.o(i._ZN15SPI_TFT_ILI93419characterEiii) refers to SPI.o(i._ZN4mbed3SPI5writeEi) for mbed::SPI::write(int)
    spi_tft_ili9341.o(i._ZN15SPI_TFT_ILI93419characterEiii) refers to spi_stmpe610.o(i._ZN4mbed10DigitalOutaSEi) for mbed::DigitalOut::operator =(int)
    spi_tft_ili9341.o(i._ZN15SPI_TFT_ILI93419characterEiii) refers to spi_tft_ili9341.o(i._ZN15SPI_TFT_ILI93419WindowMaxEv) for SPI_TFT_ILI9341::WindowMax()
    spi_tft_ili9341.o(i._ZN15SPI_TFT_ILI93419tft_resetEv) refers to SPI.o(i._ZN4mbed3SPI6formatEii) for mbed::SPI::format(int, int)
    spi_tft_ili9341.o(i._ZN15SPI_TFT_ILI93419tft_resetEv) refers to SPI.o(i._ZN4mbed3SPI9frequencyEi) for mbed::SPI::frequency(int)
    spi_tft_ili9341.o(i._ZN15SPI_TFT_ILI93419tft_resetEv) refers to spi_stmpe610.o(i._ZN4mbed10DigitalOutaSEi) for mbed::DigitalOut::operator =(int)
    spi_tft_ili9341.o(i._ZN15SPI_TFT_ILI93419tft_resetEv) refers to spi_tft_ili9341.o(i._ZN4mbed10DigitalOutC1E7PinName) for mbed::DigitalOut::DigitalOut(PinName)
    spi_tft_ili9341.o(i._ZN15SPI_TFT_ILI93419tft_resetEv) refers to wait_api.o(i.wait_us) for wait_us
    spi_tft_ili9341.o(i._ZN15SPI_TFT_ILI93419tft_resetEv) refers to wait_api.o(i.wait_ms) for wait_ms
    spi_tft_ili9341.o(i._ZN15SPI_TFT_ILI93419tft_resetEv) refers to spi_tft_ili9341.o(i._ZN15SPI_TFT_ILI93416wr_cmdEh) for SPI_TFT_ILI9341::wr_cmd(unsigned char)
    spi_tft_ili9341.o(i._ZN15SPI_TFT_ILI93419tft_resetEv) refers to SPI.o(i._ZN4mbed3SPI5writeEi) for mbed::SPI::write(int)
    spi_tft_ili9341.o(i._ZN15SPI_TFT_ILI93419tft_resetEv) refers to spi_tft_ili9341.o(i._ZN15SPI_TFT_ILI93419WindowMaxEv) for SPI_TFT_ILI9341::WindowMax()
    spi_tft_ili9341.o(i._ZN15SPI_TFT_ILI9341C1E7PinNameS0_S0_S0_S0_S0_PKc) refers to graphicsdisplay.o(i._ZN15GraphicsDisplayC2EPKc) for GraphicsDisplay::GraphicsDisplay__sub_object(const char*)
    spi_tft_ili9341.o(i._ZN15SPI_TFT_ILI9341C1E7PinNameS0_S0_S0_S0_S0_PKc) refers to SPI.o(i._ZN4mbed3SPIC1E7PinNameS1_S1_S1_) for mbed::SPI::SPI(PinName, PinName, PinName, PinName)
    spi_tft_ili9341.o(i._ZN15SPI_TFT_ILI9341C1E7PinNameS0_S0_S0_S0_S0_PKc) refers to spi_tft_ili9341.o(i._ZN4mbed10DigitalOutC1E7PinName) for mbed::DigitalOut::DigitalOut(PinName)
    spi_tft_ili9341.o(i._ZN15SPI_TFT_ILI9341C1E7PinNameS0_S0_S0_S0_S0_PKc) refers to spi_tft_ili9341.o(i._ZN15SPI_TFT_ILI93419tft_resetEv) for SPI_TFT_ILI9341::tft_reset()
    spi_tft_ili9341.o(i._ZN15SPI_TFT_ILI9341C1E7PinNameS0_S0_S0_S0_S0_PKc) refers to spi_tft_ili9341.o(.constdata__ZTV15SPI_TFT_ILI9341) for vtable for SPI_TFT_ILI9341
    spi_tft_ili9341.o(.ARM.exidx) refers to spi_tft_ili9341.o(i._ZN15SPI_TFT_ILI93416wr_cmdEh) for i._ZN15SPI_TFT_ILI93416wr_cmdEh
    spi_tft_ili9341.o(.ARM.exidx) refers to spi_tft_ili9341.o(i._ZN15SPI_TFT_ILI93419WindowMaxEv) for i._ZN15SPI_TFT_ILI93419WindowMaxEv
    spi_tft_ili9341.o(.ARM.exidx) refers to spi_tft_ili9341.o(i._ZN15SPI_TFT_ILI93419tft_resetEv) for i._ZN15SPI_TFT_ILI93419tft_resetEv
    spi_tft_ili9341.o(.ARM.exidx) refers to spi_tft_ili9341.o(i._ZN15SPI_TFT_ILI9341C1E7PinNameS0_S0_S0_S0_S0_PKc) for i._ZN15SPI_TFT_ILI9341C1E7PinNameS0_S0_S0_S0_S0_PKc
    spi_tft_ili9341.o(.ARM.exidx) refers to spi_tft_ili9341.o(i._ZN15SPI_TFT_ILI93415widthEv) for i._ZN15SPI_TFT_ILI93415widthEv
    spi_tft_ili9341.o(.ARM.exidx) refers to spi_tft_ili9341.o(i._ZN15SPI_TFT_ILI93416heightEv) for i._ZN15SPI_TFT_ILI93416heightEv
    spi_tft_ili9341.o(.ARM.exidx) refers to spi_tft_ili9341.o(i._ZN15SPI_TFT_ILI93415pixelEiii) for i._ZN15SPI_TFT_ILI93415pixelEiii
    spi_tft_ili9341.o(.ARM.exidx) refers to spi_tft_ili9341.o(i._ZN15SPI_TFT_ILI93416circleEiiii) for i._ZN15SPI_TFT_ILI93416circleEiiii
    spi_tft_ili9341.o(.ARM.exidx) refers to spi_tft_ili9341.o(i._ZN15SPI_TFT_ILI93415vlineEiiii) for i._ZN15SPI_TFT_ILI93415vlineEiiii
    spi_tft_ili9341.o(.ARM.exidx) refers to spi_tft_ili9341.o(i._ZN15SPI_TFT_ILI934110fillcircleEiiii) for i._ZN15SPI_TFT_ILI934110fillcircleEiiii
    spi_tft_ili9341.o(.ARM.exidx) refers to spi_tft_ili9341.o(i._ZN15SPI_TFT_ILI93415hlineEiiii) for i._ZN15SPI_TFT_ILI93415hlineEiiii
    spi_tft_ili9341.o(.ARM.exidx) refers to spi_tft_ili9341.o(i._ZN15SPI_TFT_ILI93414lineEiiiii) for i._ZN15SPI_TFT_ILI93414lineEiiiii
    spi_tft_ili9341.o(.ARM.exidx) refers to spi_tft_ili9341.o(i._ZN15SPI_TFT_ILI93414rectEiiiii) for i._ZN15SPI_TFT_ILI93414rectEiiiii
    spi_tft_ili9341.o(.ARM.exidx) refers to spi_tft_ili9341.o(i._ZN15SPI_TFT_ILI93418fillrectEiiiii) for i._ZN15SPI_TFT_ILI93418fillrectEiiiii
    spi_tft_ili9341.o(.ARM.exidx) refers to spi_tft_ili9341.o(i._ZN15SPI_TFT_ILI93416locateEii) for i._ZN15SPI_TFT_ILI93416locateEii
    spi_tft_ili9341.o(.ARM.exidx) refers to spi_tft_ili9341.o(i._ZN15SPI_TFT_ILI93413clsEv) for i._ZN15SPI_TFT_ILI93413clsEv
    spi_tft_ili9341.o(.ARM.exidx) refers to spi_tft_ili9341.o(i._ZN15SPI_TFT_ILI93417columnsEv) for i._ZN15SPI_TFT_ILI93417columnsEv
    spi_tft_ili9341.o(.ARM.exidx) refers to spi_tft_ili9341.o(i._ZN15SPI_TFT_ILI93414rowsEv) for i._ZN15SPI_TFT_ILI93414rowsEv
    spi_tft_ili9341.o(.ARM.exidx) refers to spi_tft_ili9341.o(i._ZN15SPI_TFT_ILI93415_putcEi) for i._ZN15SPI_TFT_ILI93415_putcEi
    spi_tft_ili9341.o(.ARM.exidx) refers to spi_tft_ili9341.o(i._ZN15SPI_TFT_ILI93419characterEiii) for i._ZN15SPI_TFT_ILI93419characterEiii
    spi_tft_ili9341.o(.ARM.exidx) refers to spi_tft_ili9341.o(i._ZN15SPI_TFT_ILI93416BitmapEjjjjPh) for i._ZN15SPI_TFT_ILI93416BitmapEjjjjPh
    spi_tft_ili9341.o(.ARM.exidx) refers to spi_tft_ili9341.o(i._ZN15SPI_TFT_ILI93418set_fontEPh) for i._ZN15SPI_TFT_ILI93418set_fontEPh
    spi_tft_ili9341.o(.ARM.exidx) refers to spi_tft_ili9341.o(i._ZN15SPI_TFT_ILI934115set_orientationEj) for i._ZN15SPI_TFT_ILI934115set_orientationEj
    spi_tft_ili9341.o(.ARM.exidx) refers to spi_tft_ili9341.o(i._ZN15SPI_TFT_ILI93416windowEjjjj) for i._ZN15SPI_TFT_ILI93416windowEjjjj
    spi_tft_ili9341.o(.ARM.exidx) refers to spi_tft_ili9341.o(i._ZN15SPI_TFT_ILI93416wr_datEh) for i._ZN15SPI_TFT_ILI93416wr_datEh
    textdisplay.o(i._ZN11TextDisplay3clsEv) refers to Stream.o(i._ZN4mbed6Stream4putcEi) for mbed::Stream::putc(int)
    textdisplay.o(i._ZN11TextDisplay5claimEPSt6__FILE) refers to __2fprintf.o(.text) for __2fprintf
    textdisplay.o(i._ZN11TextDisplay5claimEPSt6__FILE) refers to fopen.o(.text) for freopen
    textdisplay.o(i._ZN11TextDisplay5claimEPSt6__FILE) refers to setvbuf.o(.text) for setvbuf
    textdisplay.o(i._ZN11TextDisplay5claimEPSt6__FILE) refers to textdisplay.o(.conststring) for .conststring
    textdisplay.o(i._ZN11TextDisplay5claimEPSt6__FILE) refers to stdio_streams.o(.bss) for __stderr
    textdisplay.o(i._ZN11TextDisplay5claimEPSt6__FILE) refers to stdio_streams.o(.bss) for __stdout
    textdisplay.o(i._ZN11TextDisplayC2EPKc) refers to _printf_percent.o(.ARM.Collect$$_printf_percent$$00000000) for _printf_percent
    textdisplay.o(i._ZN11TextDisplayC2EPKc) refers to _printf_s.o(.ARM.Collect$$_printf_percent$$00000014) for _printf_s
    textdisplay.o(i._ZN11TextDisplayC2EPKc) refers to _printf_str.o(.text) for _printf_str
    textdisplay.o(i._ZN11TextDisplayC2EPKc) refers to Stream.o(i._ZN4mbed6StreamC2EPKc) for mbed::Stream::Stream__sub_object(const char*)
    textdisplay.o(i._ZN11TextDisplayC2EPKc) refers to strlen.o(.text) for strlen
    textdisplay.o(i._ZN11TextDisplayC2EPKc) refers to array_new.o(i._Znaj) for operator new[] (unsigned)
    textdisplay.o(i._ZN11TextDisplayC2EPKc) refers to __2sprintf.o(.text) for __2sprintf
    textdisplay.o(i._ZN11TextDisplayC2EPKc) refers to textdisplay.o(.constdata__ZTV11TextDisplay) for vtable for TextDisplay
    textdisplay.o(.ARM.exidx) refers to textdisplay.o(i._ZN11TextDisplayC2EPKc) for i._ZN11TextDisplayC2EPKc
    textdisplay.o(.ARM.exidx) refers to textdisplay.o(i._ZN11TextDisplay5claimEPSt6__FILE) for i._ZN11TextDisplay5claimEPSt6__FILE
    textdisplay.o(.ARM.exidx) refers to textdisplay.o(i._ZN11TextDisplay3clsEv) for i._ZN11TextDisplay3clsEv
    textdisplay.o(.ARM.exidx) refers to textdisplay.o(i._ZN11TextDisplay6locateEii) for i._ZN11TextDisplay6locateEii
    textdisplay.o(.ARM.exidx) refers to textdisplay.o(i._ZN11TextDisplay10foregroundEt) for i._ZN11TextDisplay10foregroundEt
    textdisplay.o(.ARM.exidx) refers to textdisplay.o(i._ZN11TextDisplay10backgroundEt) for i._ZN11TextDisplay10backgroundEt
    textdisplay.o(.ARM.exidx) refers to textdisplay.o(i._ZN11TextDisplay5_putcEi) for i._ZN11TextDisplay5_putcEi
    textdisplay.o(.ARM.exidx) refers to textdisplay.o(i._ZN11TextDisplay5_getcEv) for i._ZN11TextDisplay5_getcEv
    hx8340bs.o(i._ZN11HX8340S_LCD10InitializeE16Orientation_enum15ColorDepth_enum) refers to wait_api.o(i.wait_ms) for wait_ms
    hx8340bs.o(i._ZN11HX8340S_LCD10InitializeE16Orientation_enum15ColorDepth_enum) refers to spi_stmpe610.o(i._ZN4mbed10DigitalOutaSEi) for mbed::DigitalOut::operator =(int)
    hx8340bs.o(i._ZN11HX8340S_LCD10InitializeE16Orientation_enum15ColorDepth_enum) refers to pwmout_api.o(i.pwmout_write) for pwmout_write
    hx8340bs.o(i._ZN11HX8340S_LCD13WriteByteDataEh) refers to spi_stmpe610.o(i._ZN4mbed10DigitalOutaSEi) for mbed::DigitalOut::operator =(int)
    hx8340bs.o(i._ZN11HX8340S_LCD13WriteByteDataEh) refers to hx8340bs.o(i._ZN11HX8340S_LCD13serializeByteEh) for HX8340S_LCD::serializeByte(unsigned char)
    hx8340bs.o(i._ZN11HX8340S_LCD13serializeByteEh) refers to spi_stmpe610.o(i._ZN4mbed10DigitalOutaSEi) for mbed::DigitalOut::operator =(int)
    hx8340bs.o(i._ZN11HX8340S_LCD5SleepEv) refers to wait_api.o(i.wait_ms) for wait_ms
    hx8340bs.o(i._ZN11HX8340S_LCD5SleepEv) refers to lcd_base.o(i._ZN3LCD5SleepEv) for LCD::Sleep()
    hx8340bs.o(i._ZN11HX8340S_LCD6WakeUpEv) refers to wait_api.o(i.wait_ms) for wait_ms
    hx8340bs.o(i._ZN11HX8340S_LCD6WakeUpEv) refers to lcd_base.o(i._ZN3LCD6WakeUpEv) for LCD::WakeUp()
    hx8340bs.o(i._ZN11HX8340S_LCD8WriteCmdEt) refers to spi_stmpe610.o(i._ZN4mbed10DigitalOutaSEi) for mbed::DigitalOut::operator =(int)
    hx8340bs.o(i._ZN11HX8340S_LCD8WriteCmdEt) refers to hx8340bs.o(i._ZN11HX8340S_LCD13serializeByteEh) for HX8340S_LCD::serializeByte(unsigned char)
    hx8340bs.o(i._ZN11HX8340S_LCD9WriteDataEt) refers to spi_stmpe610.o(i._ZN4mbed10DigitalOutaSEi) for mbed::DigitalOut::operator =(int)
    hx8340bs.o(i._ZN11HX8340S_LCD9WriteDataEt) refers to hx8340bs.o(i._ZN11HX8340S_LCD13serializeByteEh) for HX8340S_LCD::serializeByte(unsigned char)
    hx8340bs.o(i._ZN11HX8340S_LCDC1E7PinNameS0_S0_S0_S0_21BacklightPwmCtrl_enumf) refers to lcd_base.o(i._ZN3LCDC2Ett7PinNameS0_S0_S0_21BacklightPwmCtrl_enumf) for LCD::LCD__sub_object(unsigned short, unsigned short, PinName, PinName, PinName, PinName, BacklightPwmCtrl_enum, float)
    hx8340bs.o(i._ZN11HX8340S_LCDC1E7PinNameS0_S0_S0_S0_21BacklightPwmCtrl_enumf) refers to spi_tft_ili9341.o(i._ZN4mbed10DigitalOutC1E7PinName) for mbed::DigitalOut::DigitalOut(PinName)
    hx8340bs.o(i._ZN11HX8340S_LCDC1E7PinNameS0_S0_S0_S0_21BacklightPwmCtrl_enumf) refers to hx8340bs.o(.constdata__ZTV11HX8340S_LCD) for vtable for HX8340S_LCD
    hx8340bs.o(.ARM.exidx) refers to hx8340bs.o(i._ZN11HX8340S_LCDC1E7PinNameS0_S0_S0_S0_21BacklightPwmCtrl_enumf) for i._ZN11HX8340S_LCDC1E7PinNameS0_S0_S0_S0_21BacklightPwmCtrl_enumf
    hx8340bs.o(.ARM.exidx) refers to hx8340bs.o(i._ZN11HX8340S_LCD10InitializeE16Orientation_enum15ColorDepth_enum) for i._ZN11HX8340S_LCD10InitializeE16Orientation_enum15ColorDepth_enum
    hx8340bs.o(.ARM.exidx) refers to hx8340bs.o(i._ZN11HX8340S_LCD5SleepEv) for i._ZN11HX8340S_LCD5SleepEv
    hx8340bs.o(.ARM.exidx) refers to hx8340bs.o(i._ZN11HX8340S_LCD6WakeUpEv) for i._ZN11HX8340S_LCD6WakeUpEv
    hx8340bs.o(.ARM.exidx) refers to hx8340bs.o(i._ZN11HX8340S_LCD13serializeByteEh) for i._ZN11HX8340S_LCD13serializeByteEh
    hx8340bs.o(.ARM.exidx) refers to hx8340bs.o(i._ZN11HX8340S_LCD8WriteCmdEt) for i._ZN11HX8340S_LCD8WriteCmdEt
    hx8340bs.o(.ARM.exidx) refers to hx8340bs.o(i._ZN11HX8340S_LCD9WriteDataEt) for i._ZN11HX8340S_LCD9WriteDataEt
    hx8340bs.o(.ARM.exidx) refers to hx8340bs.o(i._ZN11HX8340S_LCD13WriteByteDataEh) for i._ZN11HX8340S_LCD13WriteByteDataEh
    hx8340bs.o(.ARM.exidx) refers to hx8340bs.o(i._ZN11HX8340S_LCD5SetXYEtttt) for i._ZN11HX8340S_LCD5SetXYEtttt
    hx8340bs.o(.ARM.exidx) refers to hx8340bs.o(i._ZN11HX8340S_LCD13SetPixelColorEj15ColorDepth_enum) for i._ZN11HX8340S_LCD13SetPixelColorEj15ColorDepth_enum
    ili9328.o(i._ZN11ILI9328_LCD10InitializeE16Orientation_enum15ColorDepth_enum) refers to spi_stmpe610.o(i._ZN4mbed10DigitalOutaSEi) for mbed::DigitalOut::operator =(int)
    ili9328.o(i._ZN11ILI9328_LCD10InitializeE16Orientation_enum15ColorDepth_enum) refers to wait_api.o(i.wait_ms) for wait_ms
    ili9328.o(i._ZN11ILI9328_LCD10InitializeE16Orientation_enum15ColorDepth_enum) refers to pwmout_api.o(i.pwmout_write) for pwmout_write
    ili9328.o(i._ZN11ILI9328_LCD5SleepEv) refers to wait_api.o(i.wait_ms) for wait_ms
    ili9328.o(i._ZN11ILI9328_LCD5SleepEv) refers to lcd_base.o(i._ZN3LCD5SleepEv) for LCD::Sleep()
    ili9328.o(i._ZN11ILI9328_LCD6WakeUpEv) refers to wait_api.o(i.wait_ms) for wait_ms
    ili9328.o(i._ZN11ILI9328_LCD6WakeUpEv) refers to lcd_base.o(i._ZN3LCD6WakeUpEv) for LCD::WakeUp()
    ili9328.o(i._ZN11ILI9328_LCD8WriteCmdEt) refers to spi_stmpe610.o(i._ZN4mbed10DigitalOutaSEi) for mbed::DigitalOut::operator =(int)
    ili9328.o(i._ZN11ILI9328_LCD8WriteCmdEt) refers to BusOut.o(i._ZN4mbed6BusOut5writeEi) for mbed::BusOut::write(int)
    ili9328.o(i._ZN11ILI9328_LCD9WriteDataEt) refers to spi_stmpe610.o(i._ZN4mbed10DigitalOutaSEi) for mbed::DigitalOut::operator =(int)
    ili9328.o(i._ZN11ILI9328_LCD9WriteDataEt) refers to BusOut.o(i._ZN4mbed6BusOut5writeEi) for mbed::BusOut::write(int)
    ili9328.o(i._ZN11ILI9328_LCDC1E7PinNameS0_S0_S0_PN4mbed6BusOutES0_S0_21BacklightPwmCtrl_enumf) refers to lcd_base.o(i._ZN3LCDC2Ett7PinNameS0_S0_S0_21BacklightPwmCtrl_enumf) for LCD::LCD__sub_object(unsigned short, unsigned short, PinName, PinName, PinName, PinName, BacklightPwmCtrl_enum, float)
    ili9328.o(i._ZN11ILI9328_LCDC1E7PinNameS0_S0_S0_PN4mbed6BusOutES0_S0_21BacklightPwmCtrl_enumf) refers to spi_tft_ili9341.o(i._ZN4mbed10DigitalOutC1E7PinName) for mbed::DigitalOut::DigitalOut(PinName)
    ili9328.o(i._ZN11ILI9328_LCDC1E7PinNameS0_S0_S0_PN4mbed6BusOutES0_S0_21BacklightPwmCtrl_enumf) refers to new.o(i._Znwj) for operator new(unsigned)
    ili9328.o(i._ZN11ILI9328_LCDC1E7PinNameS0_S0_S0_PN4mbed6BusOutES0_S0_21BacklightPwmCtrl_enumf) refers to ili9328.o(.constdata__ZTV11ILI9328_LCD) for vtable for ILI9328_LCD
    ili9328.o(.ARM.exidx) refers to ili9328.o(i._ZN11ILI9328_LCDC1E7PinNameS0_S0_S0_PN4mbed6BusOutES0_S0_21BacklightPwmCtrl_enumf) for i._ZN11ILI9328_LCDC1E7PinNameS0_S0_S0_PN4mbed6BusOutES0_S0_21BacklightPwmCtrl_enumf
    ili9328.o(.ARM.exidx) refers to ili9328.o(i._ZN11ILI9328_LCD10InitializeE16Orientation_enum15ColorDepth_enum) for i._ZN11ILI9328_LCD10InitializeE16Orientation_enum15ColorDepth_enum
    ili9328.o(.ARM.exidx) refers to ili9328.o(i._ZN11ILI9328_LCD5SleepEv) for i._ZN11ILI9328_LCD5SleepEv
    ili9328.o(.ARM.exidx) refers to ili9328.o(i._ZN11ILI9328_LCD6WakeUpEv) for i._ZN11ILI9328_LCD6WakeUpEv
    ili9328.o(.ARM.exidx) refers to ili9328.o(i._ZN11ILI9328_LCD8WriteCmdEt) for i._ZN11ILI9328_LCD8WriteCmdEt
    ili9328.o(.ARM.exidx) refers to ili9328.o(i._ZN11ILI9328_LCD9WriteDataEt) for i._ZN11ILI9328_LCD9WriteDataEt
    ili9328.o(.ARM.exidx) refers to ili9328.o(i._ZN11ILI9328_LCD5SetXYEtttt) for i._ZN11ILI9328_LCD5SetXYEtttt
    ili9328.o(.ARM.exidx) refers to ili9328.o(i._ZN11ILI9328_LCD13SetPixelColorEj15ColorDepth_enum) for i._ZN11ILI9328_LCD13SetPixelColorEj15ColorDepth_enum
    lcd_base.o(i._ZN3LCD10DrawBitmapEttPK13Bitmap_structttt) refers to dflt_clz.o(x$fpl$dfltu) for __aeabi_ui2d
    lcd_base.o(i._ZN3LCD10DrawBitmapEttPK13Bitmap_structttt) refers to dmul.o(x$fpl$dmul) for __aeabi_dmul
    lcd_base.o(i._ZN3LCD10DrawBitmapEttPK13Bitmap_structttt) refers to sin.o(i.__hardfp_sin) for __hardfp_sin
    lcd_base.o(i._ZN3LCD10DrawBitmapEttPK13Bitmap_structttt) refers to dflt_clz.o(x$fpl$dflt) for __aeabi_i2d
    lcd_base.o(i._ZN3LCD10DrawBitmapEttPK13Bitmap_structttt) refers to cos.o(i.__hardfp_cos) for __hardfp_cos
    lcd_base.o(i._ZN3LCD10DrawBitmapEttPK13Bitmap_structttt) refers to daddsub_clz.o(x$fpl$dsub) for __aeabi_dsub
    lcd_base.o(i._ZN3LCD10DrawBitmapEttPK13Bitmap_structttt) refers to daddsub_clz.o(x$fpl$dadd) for __aeabi_dadd
    lcd_base.o(i._ZN3LCD10DrawBitmapEttPK13Bitmap_structttt) refers to dfix.o(x$fpl$dfix) for __aeabi_d2iz
    lcd_base.o(i._ZN3LCD10RotateCharEcttiiit) refers to dflt_clz.o(x$fpl$dfltu) for __aeabi_ui2d
    lcd_base.o(i._ZN3LCD10RotateCharEcttiiit) refers to dmul.o(x$fpl$dmul) for __aeabi_dmul
    lcd_base.o(i._ZN3LCD10RotateCharEcttiiit) refers to sin.o(i.__hardfp_sin) for __hardfp_sin
    lcd_base.o(i._ZN3LCD10RotateCharEcttiiit) refers to cos.o(i.__hardfp_cos) for __hardfp_cos
    lcd_base.o(i._ZN3LCD10RotateCharEcttiiit) refers to dflt_clz.o(x$fpl$dflt) for __aeabi_i2d
    lcd_base.o(i._ZN3LCD10RotateCharEcttiiit) refers to daddsub_clz.o(x$fpl$dsub) for __aeabi_dsub
    lcd_base.o(i._ZN3LCD10RotateCharEcttiiit) refers to daddsub_clz.o(x$fpl$dadd) for __aeabi_dadd
    lcd_base.o(i._ZN3LCD10RotateCharEcttiiit) refers to dfix.o(x$fpl$dfix) for __aeabi_d2iz
    lcd_base.o(i._ZN3LCD10RotateCharEcttiiit) refers to ddiv.o(x$fpl$ddiv) for __aeabi_ddiv
    lcd_base.o(i._ZN3LCD10RotateCharEcttiiit) refers to dleqf.o(x$fpl$dleqf) for __aeabi_cdcmple
    lcd_base.o(i._ZN3LCD17SetBacklightLevelEf) refers to lcd_base.o(i._ZN4mbed6PwmOutaSEf) for mbed::PwmOut::operator =(float)
    lcd_base.o(i._ZN3LCD5PrintEPKcttiit) refers to strlen.o(.text) for strlen
    lcd_base.o(i._ZN3LCD5PrintEPKcttiit) refers to lcd_base.o(i._ZN3LCD8GetWidthEv) for LCD::GetWidth()
    lcd_base.o(i._ZN3LCD5SleepEv) refers to spi_stmpe610.o(i._ZN4mbed10DigitalOutaSEi) for mbed::DigitalOut::operator =(int)
    lcd_base.o(i._ZN3LCD5SleepEv) refers to lcd_base.o(i._ZN4mbed6PwmOutaSEf) for mbed::PwmOut::operator =(float)
    lcd_base.o(i._ZN3LCD6WakeUpEv) refers to spi_stmpe610.o(i._ZN4mbed10DigitalOutaSEi) for mbed::DigitalOut::operator =(int)
    lcd_base.o(i._ZN3LCD6WakeUpEv) refers to lcd_base.o(i._ZN4mbed6PwmOutaSEf) for mbed::PwmOut::operator =(float)
    lcd_base.o(i._ZN3LCD8DrawLineEtttti) refers to dflt_clz.o(x$fpl$dflt) for __aeabi_i2d
    lcd_base.o(i._ZN3LCD8DrawLineEtttti) refers to ddiv.o(x$fpl$ddiv) for __aeabi_ddiv
    lcd_base.o(i._ZN3LCD8DrawLineEtttti) refers to dflt_clz.o(x$fpl$dfltu) for __aeabi_ui2d
    lcd_base.o(i._ZN3LCD8DrawLineEtttti) refers to daddsub_clz.o(x$fpl$dadd) for __aeabi_dadd
    lcd_base.o(i._ZN3LCD8DrawLineEtttti) refers to dfix.o(x$fpl$dfix) for __aeabi_d2iz
    lcd_base.o(i._ZN3LCD8DrawLineEtttti) refers to daddsub_clz.o(x$fpl$dsub) for __aeabi_dsub
    lcd_base.o(i._ZN3LCD8DrawLineEtttti) refers to f2d.o(x$fpl$f2d) for __aeabi_f2d
    lcd_base.o(i._ZN3LCDC2Ett7PinNameS0_S0_S0_21BacklightPwmCtrl_enumf) refers to spi_tft_ili9341.o(i._ZN4mbed10DigitalOutC1E7PinName) for mbed::DigitalOut::DigitalOut(PinName)
    lcd_base.o(i._ZN3LCDC2Ett7PinNameS0_S0_S0_21BacklightPwmCtrl_enumf) refers to lcd_base.o(i._ZN3LCD13SetForegroundEj) for LCD::SetForeground(unsigned)
    lcd_base.o(i._ZN3LCDC2Ett7PinNameS0_S0_S0_21BacklightPwmCtrl_enumf) refers to lcd_base.o(i._ZN3LCD13SetBackgroundEj) for LCD::SetBackground(unsigned)
    lcd_base.o(i._ZN3LCDC2Ett7PinNameS0_S0_S0_21BacklightPwmCtrl_enumf) refers to f2d.o(x$fpl$f2d) for __aeabi_f2d
    lcd_base.o(i._ZN3LCDC2Ett7PinNameS0_S0_S0_21BacklightPwmCtrl_enumf) refers to drleqf.o(x$fpl$drleqf) for __aeabi_cdrcmple
    lcd_base.o(i._ZN3LCDC2Ett7PinNameS0_S0_S0_21BacklightPwmCtrl_enumf) refers to new.o(i._Znwj) for operator new(unsigned)
    lcd_base.o(i._ZN3LCDC2Ett7PinNameS0_S0_S0_21BacklightPwmCtrl_enumf) refers to pwmout_api.o(i.pwmout_init) for pwmout_init
    lcd_base.o(i._ZN3LCDC2Ett7PinNameS0_S0_S0_21BacklightPwmCtrl_enumf) refers to pwmout_api.o(i.pwmout_period_ms) for pwmout_period_ms
    lcd_base.o(i._ZN3LCDC2Ett7PinNameS0_S0_S0_21BacklightPwmCtrl_enumf) refers to lcd_base.o(i._ZN4mbed6PwmOutaSEf) for mbed::PwmOut::operator =(float)
    lcd_base.o(i._ZN3LCDC2Ett7PinNameS0_S0_S0_21BacklightPwmCtrl_enumf) refers to lcd_base.o(.constdata__ZTV3LCD) for vtable for LCD
    lcd_base.o(i._ZN3LCDC2Ett7PinNameS0_S0_S0_21BacklightPwmCtrl_enumf) refers to terminus.o(.constdata) for TerminusFont
    lcd_base.o(.ARM.exidx) refers to lcd_base.o(i._ZN3LCD5SleepEv) for i._ZN3LCD5SleepEv
    lcd_base.o(.ARM.exidx) refers to lcd_base.o(i._ZN3LCD6WakeUpEv) for i._ZN3LCD6WakeUpEv
    lcd_base.o(.ARM.exidx) refers to lcd_base.o(i._ZN3LCD7SetFontEPK18FontMetrics_struct) for i._ZN3LCD7SetFontEPK18FontMetrics_struct
    lcd_base.o(.ARM.exidx) refers to lcd_base.o(i._ZN3LCD10FillScreenEi) for i._ZN3LCD10FillScreenEi
    lcd_base.o(.ARM.exidx) refers to lcd_base.o(i._ZN3LCD17SetBacklightLevelEf) for i._ZN3LCD17SetBacklightLevelEf
    lcd_base.o(.ARM.exidx) refers to lcd_base.o(i._ZN3LCD9DrawPixelEtti) for i._ZN3LCD9DrawPixelEtti
    lcd_base.o(.ARM.exidx) refers to lcd_base.o(i._ZN3LCD8DrawLineEtttti) for i._ZN3LCD8DrawLineEtttti
    lcd_base.o(.ARM.exidx) refers to lcd_base.o(i._ZN3LCD8DrawRectEtttti) for i._ZN3LCD8DrawRectEtttti
    lcd_base.o(.ARM.exidx) refers to lcd_base.o(i._ZN3LCD13DrawRoundRectEtttti) for i._ZN3LCD13DrawRoundRectEtttti
    lcd_base.o(.ARM.exidx) refers to lcd_base.o(i._ZN3LCD8FillRectEtttti) for i._ZN3LCD8FillRectEtttti
    lcd_base.o(.ARM.exidx) refers to lcd_base.o(i._ZN3LCD13FillRoundRectEtttti) for i._ZN3LCD13FillRoundRectEtttti
    lcd_base.o(.ARM.exidx) refers to lcd_base.o(i._ZN3LCD10DrawCircleEttti) for i._ZN3LCD10DrawCircleEttti
    lcd_base.o(.ARM.exidx) refers to lcd_base.o(i._ZN3LCD10FillCircleEttti) for i._ZN3LCD10FillCircleEttti
    lcd_base.o(.ARM.exidx) refers to lcd_base.o(i._ZN3LCD5PrintEPKcttiit) for i._ZN3LCD5PrintEPKcttiit
    lcd_base.o(.ARM.exidx) refers to lcd_base.o(i._ZN3LCD10DrawBitmapEttPK13Bitmap_structh) for i._ZN3LCD10DrawBitmapEttPK13Bitmap_structh
    lcd_base.o(.ARM.exidx) refers to lcd_base.o(i._ZN3LCD10DrawBitmapEttPK13Bitmap_structttt) for i._ZN3LCD10DrawBitmapEttPK13Bitmap_structttt
    lcd_base.o(.ARM.exidx) refers to lcd_base.o(i._ZN3LCDC2Ett7PinNameS0_S0_S0_21BacklightPwmCtrl_enumf) for i._ZN3LCDC2Ett7PinNameS0_S0_S0_21BacklightPwmCtrl_enumf
    lcd_base.o(.ARM.exidx) refers to lcd_base.o(i._ZN3LCD9DrawHLineEttti) for i._ZN3LCD9DrawHLineEttti
    lcd_base.o(.ARM.exidx) refers to lcd_base.o(i._ZN3LCD9DrawVLineEttti) for i._ZN3LCD9DrawVLineEttti
    lcd_base.o(.ARM.exidx) refers to lcd_base.o(i._ZN3LCD9PrintCharEcttii) for i._ZN3LCD9PrintCharEcttii
    lcd_base.o(.ARM.exidx) refers to lcd_base.o(i._ZN3LCD10RotateCharEcttiiit) for i._ZN3LCD10RotateCharEcttiiit
    ssd1289.o(i._ZN11SSD1289_LCD10InitializeE16Orientation_enum15ColorDepth_enum) refers to spi_stmpe610.o(i._ZN4mbed10DigitalOutaSEi) for mbed::DigitalOut::operator =(int)
    ssd1289.o(i._ZN11SSD1289_LCD10InitializeE16Orientation_enum15ColorDepth_enum) refers to wait_api.o(i.wait_ms) for wait_ms
    ssd1289.o(i._ZN11SSD1289_LCD10InitializeE16Orientation_enum15ColorDepth_enum) refers to pwmout_api.o(i.pwmout_write) for pwmout_write
    ssd1289.o(i._ZN11SSD1289_LCD5SleepEv) refers to lcd_base.o(i._ZN3LCD5SleepEv) for LCD::Sleep()
    ssd1289.o(i._ZN11SSD1289_LCD6WakeUpEv) refers to lcd_base.o(i._ZN3LCD6WakeUpEv) for LCD::WakeUp()
    ssd1289.o(i._ZN11SSD1289_LCD8WriteCmdEt) refers to spi_stmpe610.o(i._ZN4mbed10DigitalOutaSEi) for mbed::DigitalOut::operator =(int)
    ssd1289.o(i._ZN11SSD1289_LCD8WriteCmdEt) refers to BusOut.o(i._ZN4mbed6BusOut5writeEi) for mbed::BusOut::write(int)
    ssd1289.o(i._ZN11SSD1289_LCD9WriteDataEt) refers to spi_stmpe610.o(i._ZN4mbed10DigitalOutaSEi) for mbed::DigitalOut::operator =(int)
    ssd1289.o(i._ZN11SSD1289_LCD9WriteDataEt) refers to BusOut.o(i._ZN4mbed6BusOut5writeEi) for mbed::BusOut::write(int)
    ssd1289.o(i._ZN11SSD1289_LCDC1E7PinNameS0_S0_S0_PN4mbed6BusOutES0_S0_21BacklightPwmCtrl_enumf) refers to lcd_base.o(i._ZN3LCDC2Ett7PinNameS0_S0_S0_21BacklightPwmCtrl_enumf) for LCD::LCD__sub_object(unsigned short, unsigned short, PinName, PinName, PinName, PinName, BacklightPwmCtrl_enum, float)
    ssd1289.o(i._ZN11SSD1289_LCDC1E7PinNameS0_S0_S0_PN4mbed6BusOutES0_S0_21BacklightPwmCtrl_enumf) refers to spi_tft_ili9341.o(i._ZN4mbed10DigitalOutC1E7PinName) for mbed::DigitalOut::DigitalOut(PinName)
    ssd1289.o(i._ZN11SSD1289_LCDC1E7PinNameS0_S0_S0_PN4mbed6BusOutES0_S0_21BacklightPwmCtrl_enumf) refers to new.o(i._Znwj) for operator new(unsigned)
    ssd1289.o(i._ZN11SSD1289_LCDC1E7PinNameS0_S0_S0_PN4mbed6BusOutES0_S0_21BacklightPwmCtrl_enumf) refers to ssd1289.o(.constdata__ZTV11SSD1289_LCD) for vtable for SSD1289_LCD
    ssd1289.o(.ARM.exidx) refers to ssd1289.o(i._ZN11SSD1289_LCDC1E7PinNameS0_S0_S0_PN4mbed6BusOutES0_S0_21BacklightPwmCtrl_enumf) for i._ZN11SSD1289_LCDC1E7PinNameS0_S0_S0_PN4mbed6BusOutES0_S0_21BacklightPwmCtrl_enumf
    ssd1289.o(.ARM.exidx) refers to ssd1289.o(i._ZN11SSD1289_LCD10InitializeE16Orientation_enum15ColorDepth_enum) for i._ZN11SSD1289_LCD10InitializeE16Orientation_enum15ColorDepth_enum
    ssd1289.o(.ARM.exidx) refers to ssd1289.o(i._ZN11SSD1289_LCD5SleepEv) for i._ZN11SSD1289_LCD5SleepEv
    ssd1289.o(.ARM.exidx) refers to ssd1289.o(i._ZN11SSD1289_LCD6WakeUpEv) for i._ZN11SSD1289_LCD6WakeUpEv
    ssd1289.o(.ARM.exidx) refers to ssd1289.o(i._ZN11SSD1289_LCD8WriteCmdEt) for i._ZN11SSD1289_LCD8WriteCmdEt
    ssd1289.o(.ARM.exidx) refers to ssd1289.o(i._ZN11SSD1289_LCD9WriteDataEt) for i._ZN11SSD1289_LCD9WriteDataEt
    ssd1289.o(.ARM.exidx) refers to ssd1289.o(i._ZN11SSD1289_LCD5SetXYEtttt) for i._ZN11SSD1289_LCD5SetXYEtttt
    ssd1289.o(.ARM.exidx) refers to ssd1289.o(i._ZN11SSD1289_LCD13SetPixelColorEj15ColorDepth_enum) for i._ZN11SSD1289_LCD13SetPixelColorEj15ColorDepth_enum
    st7735.o(i._ZN10ST7735_LCD10InitializeE16Orientation_enum15ColorDepth_enum) refers to wait_api.o(i.wait_ms) for wait_ms
    st7735.o(i._ZN10ST7735_LCD10InitializeE16Orientation_enum15ColorDepth_enum) refers to spi_stmpe610.o(i._ZN4mbed10DigitalOutaSEi) for mbed::DigitalOut::operator =(int)
    st7735.o(i._ZN10ST7735_LCD10InitializeE16Orientation_enum15ColorDepth_enum) refers to pwmout_api.o(i.pwmout_write) for pwmout_write
    st7735.o(i._ZN10ST7735_LCD13WriteByteDataEh) refers to spi_stmpe610.o(i._ZN4mbed10DigitalOutaSEi) for mbed::DigitalOut::operator =(int)
    st7735.o(i._ZN10ST7735_LCD13WriteByteDataEh) refers to st7735.o(i._ZN10ST7735_LCD13serializeByteEh) for ST7735_LCD::serializeByte(unsigned char)
    st7735.o(i._ZN10ST7735_LCD13serializeByteEh) refers to spi_stmpe610.o(i._ZN4mbed10DigitalOutaSEi) for mbed::DigitalOut::operator =(int)
    st7735.o(i._ZN10ST7735_LCD5SleepEv) refers to wait_api.o(i.wait_ms) for wait_ms
    st7735.o(i._ZN10ST7735_LCD5SleepEv) refers to lcd_base.o(i._ZN3LCD5SleepEv) for LCD::Sleep()
    st7735.o(i._ZN10ST7735_LCD6WakeUpEv) refers to wait_api.o(i.wait_ms) for wait_ms
    st7735.o(i._ZN10ST7735_LCD6WakeUpEv) refers to lcd_base.o(i._ZN3LCD6WakeUpEv) for LCD::WakeUp()
    st7735.o(i._ZN10ST7735_LCD8WriteCmdEt) refers to spi_stmpe610.o(i._ZN4mbed10DigitalOutaSEi) for mbed::DigitalOut::operator =(int)
    st7735.o(i._ZN10ST7735_LCD8WriteCmdEt) refers to st7735.o(i._ZN10ST7735_LCD13serializeByteEh) for ST7735_LCD::serializeByte(unsigned char)
    st7735.o(i._ZN10ST7735_LCD9WriteDataEt) refers to spi_stmpe610.o(i._ZN4mbed10DigitalOutaSEi) for mbed::DigitalOut::operator =(int)
    st7735.o(i._ZN10ST7735_LCD9WriteDataEt) refers to st7735.o(i._ZN10ST7735_LCD13serializeByteEh) for ST7735_LCD::serializeByte(unsigned char)
    st7735.o(i._ZN10ST7735_LCDC1E7PinNameS0_S0_S0_S0_S0_21BacklightPwmCtrl_enumf) refers to lcd_base.o(i._ZN3LCDC2Ett7PinNameS0_S0_S0_21BacklightPwmCtrl_enumf) for LCD::LCD__sub_object(unsigned short, unsigned short, PinName, PinName, PinName, PinName, BacklightPwmCtrl_enum, float)
    st7735.o(i._ZN10ST7735_LCDC1E7PinNameS0_S0_S0_S0_S0_21BacklightPwmCtrl_enumf) refers to spi_tft_ili9341.o(i._ZN4mbed10DigitalOutC1E7PinName) for mbed::DigitalOut::DigitalOut(PinName)
    st7735.o(i._ZN10ST7735_LCDC1E7PinNameS0_S0_S0_S0_S0_21BacklightPwmCtrl_enumf) refers to st7735.o(.constdata__ZTV10ST7735_LCD) for vtable for ST7735_LCD
    st7735.o(.ARM.exidx) refers to st7735.o(i._ZN10ST7735_LCDC1E7PinNameS0_S0_S0_S0_S0_21BacklightPwmCtrl_enumf) for i._ZN10ST7735_LCDC1E7PinNameS0_S0_S0_S0_S0_21BacklightPwmCtrl_enumf
    st7735.o(.ARM.exidx) refers to st7735.o(i._ZN10ST7735_LCD10InitializeE16Orientation_enum15ColorDepth_enum) for i._ZN10ST7735_LCD10InitializeE16Orientation_enum15ColorDepth_enum
    st7735.o(.ARM.exidx) refers to st7735.o(i._ZN10ST7735_LCD5SleepEv) for i._ZN10ST7735_LCD5SleepEv
    st7735.o(.ARM.exidx) refers to st7735.o(i._ZN10ST7735_LCD6WakeUpEv) for i._ZN10ST7735_LCD6WakeUpEv
    st7735.o(.ARM.exidx) refers to st7735.o(i._ZN10ST7735_LCD13serializeByteEh) for i._ZN10ST7735_LCD13serializeByteEh
    st7735.o(.ARM.exidx) refers to st7735.o(i._ZN10ST7735_LCD8WriteCmdEt) for i._ZN10ST7735_LCD8WriteCmdEt
    st7735.o(.ARM.exidx) refers to st7735.o(i._ZN10ST7735_LCD9WriteDataEt) for i._ZN10ST7735_LCD9WriteDataEt
    st7735.o(.ARM.exidx) refers to st7735.o(i._ZN10ST7735_LCD13WriteByteDataEh) for i._ZN10ST7735_LCD13WriteByteDataEh
    st7735.o(.ARM.exidx) refers to st7735.o(i._ZN10ST7735_LCD5SetXYEtttt) for i._ZN10ST7735_LCD5SetXYEtttt
    st7735.o(.ARM.exidx) refers to st7735.o(i._ZN10ST7735_LCD13SetPixelColorEj15ColorDepth_enum) for i._ZN10ST7735_LCD13SetPixelColorEj15ColorDepth_enum
    mainmain.o(i._Z10checkWallsii4ball4wall) refers to mainmain.o(i._Z5boundiii) for bound(int, int, int)
    mainmain.o(i._Z10checkWallsii4ball4wall) refers to mainmain.o(.data) for MAZE_WIDTH
    mainmain.o(i._Z10createBalliiii) refers to spi_tft_ili9341.o(i._ZN15SPI_TFT_ILI934110fillcircleEiiii) for SPI_TFT_ILI9341::fillcircle(int, int, int, int)
    mainmain.o(i._Z10createBalliiii) refers to rt_memcpy_w.o(.text) for __aeabi_memcpy4
    mainmain.o(i._Z10createBalliiii) refers to mainmain.o(.bss) for TFT
    mainmain.o(i._Z10createWalliiiii) refers to spi_tft_ili9341.o(i._ZN15SPI_TFT_ILI93418fillrectEiiiii) for SPI_TFT_ILI9341::fillrect(int, int, int, int, int)
    mainmain.o(i._Z10createWalliiiii) refers to rt_memcpy_w.o(.text) for __aeabi_memcpy4
    mainmain.o(i._Z10createWalliiiii) refers to mainmain.o(.bss) for TFT
    mainmain.o(i._Z10createZoneiiiii) refers to spi_tft_ili9341.o(i._ZN15SPI_TFT_ILI934110fillcircleEiiii) for SPI_TFT_ILI9341::fillcircle(int, int, int, int)
    mainmain.o(i._Z10createZoneiiiii) refers to rt_memcpy_w.o(.text) for __aeabi_memcpy4
    mainmain.o(i._Z10createZoneiiiii) refers to mainmain.o(.bss) for TFT
    mainmain.o(i._Z10marbleDrop4ball4zone) refers to spi_tft_ili9341.o(i._ZN15SPI_TFT_ILI934110fillcircleEiiii) for SPI_TFT_ILI9341::fillcircle(int, int, int, int)
    mainmain.o(i._Z10marbleDrop4ball4zone) refers to wait_api.o(i.wait) for wait
    mainmain.o(i._Z10marbleDrop4ball4zone) refers to spi_tft_ili9341.o(i._ZN15SPI_TFT_ILI93418set_fontEPh) for SPI_TFT_ILI9341::set_font(unsigned char*)
    mainmain.o(i._Z10marbleDrop4ball4zone) refers to spi_tft_ili9341.o(i._ZN15SPI_TFT_ILI93416locateEii) for SPI_TFT_ILI9341::locate(int, int)
    mainmain.o(i._Z10marbleDrop4ball4zone) refers to spi_tft_ili9341.o(i._ZN15SPI_TFT_ILI93413clsEv) for SPI_TFT_ILI9341::cls()
    mainmain.o(i._Z10marbleDrop4ball4zone) refers to Stream.o(i._ZN4mbed6Stream6printfEPKcz) for mbed::Stream::printf(const char*, ...)
    mainmain.o(i._Z10marbleDrop4ball4zone) refers to rt_memcpy_w.o(.text) for __aeabi_memcpy4
    mainmain.o(i._Z10marbleDrop4ball4zone) refers to mainmain.o(.bss) for TFT
    mainmain.o(i._Z10marbleDrop4ball4zone) refers to mainmain.o(.constdata) for Arial28x28
    mainmain.o(i._Z10marbleDrop4ball4zone) refers to mainmain.o(.data) for MAZE_WIDTH
    mainmain.o(i._Z10marbleRoll4ball4zoneP4wallPS0_) refers to spi_stmpe610.o(i._ZN4mbed10DigitalOutaSEi) for mbed::DigitalOut::operator =(int)
    mainmain.o(i._Z10marbleRoll4ball4zoneP4wallPS0_) refers to mma8451q.o(i._ZN8MMA8451Q7getAccYEv) for MMA8451Q::getAccY()
    mainmain.o(i._Z10marbleRoll4ball4zoneP4wallPS0_) refers to mma8451q.o(i._ZN8MMA8451Q7getAccXEv) for MMA8451Q::getAccX()
    mainmain.o(i._Z10marbleRoll4ball4zoneP4wallPS0_) refers to mainmain.o(i._Z5boundiii) for bound(int, int, int)
    mainmain.o(i._Z10marbleRoll4ball4zoneP4wallPS0_) refers to rt_memcpy_w.o(.text) for __aeabi_memcpy4
    mainmain.o(i._Z10marbleRoll4ball4zoneP4wallPS0_) refers to mainmain.o(i._Z10checkWallsii4ball4wall) for checkWalls(int, int, ball, wall)
    mainmain.o(i._Z10marbleRoll4ball4zoneP4wallPS0_) refers to dflt_clz.o(x$fpl$dflt) for __aeabi_i2d
    mainmain.o(i._Z10marbleRoll4ball4zoneP4wallPS0_) refers to daddsub_clz.o(x$fpl$dsub) for __aeabi_dsub
    mainmain.o(i._Z10marbleRoll4ball4zoneP4wallPS0_) refers to dfix.o(x$fpl$dfix) for __aeabi_d2iz
    mainmain.o(i._Z10marbleRoll4ball4zoneP4wallPS0_) refers to daddsub_clz.o(x$fpl$dadd) for __aeabi_dadd
    mainmain.o(i._Z10marbleRoll4ball4zoneP4wallPS0_) refers to spi_tft_ili9341.o(i._ZN15SPI_TFT_ILI934110fillcircleEiiii) for SPI_TFT_ILI9341::fillcircle(int, int, int, int)
    mainmain.o(i._Z10marbleRoll4ball4zoneP4wallPS0_) refers to dmul.o(x$fpl$dmul) for __aeabi_dmul
    mainmain.o(i._Z10marbleRoll4ball4zoneP4wallPS0_) refers to sqrt.o(i.__hardfp_sqrt) for __hardfp_sqrt
    mainmain.o(i._Z10marbleRoll4ball4zoneP4wallPS0_) refers to mainmain.o(i._Z10marbleDrop4ball4zone) for marbleDrop(ball, zone)
    mainmain.o(i._Z10marbleRoll4ball4zoneP4wallPS0_) refers to mainmain.o(.data) for backlight
    mainmain.o(i._Z10marbleRoll4ball4zoneP4wallPS0_) refers to mainmain.o(.bss) for TFT
    mainmain.o(i._Z11marbleRoll24ball4zoneP4wallPS0_) refers to spi_stmpe610.o(i._ZN4mbed10DigitalOutaSEi) for mbed::DigitalOut::operator =(int)
    mainmain.o(i._Z11marbleRoll24ball4zoneP4wallPS0_) refers to mma8451q.o(i._ZN8MMA8451Q7getAccYEv) for MMA8451Q::getAccY()
    mainmain.o(i._Z11marbleRoll24ball4zoneP4wallPS0_) refers to mma8451q.o(i._ZN8MMA8451Q7getAccXEv) for MMA8451Q::getAccX()
    mainmain.o(i._Z11marbleRoll24ball4zoneP4wallPS0_) refers to mainmain.o(i._Z5boundiii) for bound(int, int, int)
    mainmain.o(i._Z11marbleRoll24ball4zoneP4wallPS0_) refers to rt_memcpy_w.o(.text) for __aeabi_memcpy4
    mainmain.o(i._Z11marbleRoll24ball4zoneP4wallPS0_) refers to mainmain.o(i._Z10checkWallsii4ball4wall) for checkWalls(int, int, ball, wall)
    mainmain.o(i._Z11marbleRoll24ball4zoneP4wallPS0_) refers to dflt_clz.o(x$fpl$dflt) for __aeabi_i2d
    mainmain.o(i._Z11marbleRoll24ball4zoneP4wallPS0_) refers to daddsub_clz.o(x$fpl$dsub) for __aeabi_dsub
    mainmain.o(i._Z11marbleRoll24ball4zoneP4wallPS0_) refers to dfix.o(x$fpl$dfix) for __aeabi_d2iz
    mainmain.o(i._Z11marbleRoll24ball4zoneP4wallPS0_) refers to daddsub_clz.o(x$fpl$dadd) for __aeabi_dadd
    mainmain.o(i._Z11marbleRoll24ball4zoneP4wallPS0_) refers to spi_tft_ili9341.o(i._ZN15SPI_TFT_ILI934110fillcircleEiiii) for SPI_TFT_ILI9341::fillcircle(int, int, int, int)
    mainmain.o(i._Z11marbleRoll24ball4zoneP4wallPS0_) refers to dmul.o(x$fpl$dmul) for __aeabi_dmul
    mainmain.o(i._Z11marbleRoll24ball4zoneP4wallPS0_) refers to sqrt.o(i.__hardfp_sqrt) for __hardfp_sqrt
    mainmain.o(i._Z11marbleRoll24ball4zoneP4wallPS0_) refers to mainmain.o(i._Z10marbleDrop4ball4zone) for marbleDrop(ball, zone)
    mainmain.o(i._Z11marbleRoll24ball4zoneP4wallPS0_) refers to mainmain.o(.data) for backlight
    mainmain.o(i._Z11marbleRoll24ball4zoneP4wallPS0_) refers to mainmain.o(.bss) for TFT
    mainmain.o(i._Z19mytouch_irq_handlerv) refers to wait_api.o(i.wait) for wait
    mainmain.o(i._Z19mytouch_irq_handlerv) refers to spi_tft_ili9341.o(i._ZN15SPI_TFT_ILI93416heightEv) for SPI_TFT_ILI9341::height()
    mainmain.o(i._Z19mytouch_irq_handlerv) refers to spi_tft_ili9341.o(i._ZN15SPI_TFT_ILI93415widthEv) for SPI_TFT_ILI9341::width()
    mainmain.o(i._Z19mytouch_irq_handlerv) refers to spi_tft_ili9341.o(i._ZN15SPI_TFT_ILI93416locateEii) for SPI_TFT_ILI9341::locate(int, int)
    mainmain.o(i._Z19mytouch_irq_handlerv) refers to mainmain.o(.data) for paused
    mainmain.o(i._Z19mytouch_irq_handlerv) refers to mainmain.o(.bss) for TFT
    mainmain.o(i._Z4Gamev) refers to spi_tft_ili9341.o(i._ZN15SPI_TFT_ILI93413clsEv) for SPI_TFT_ILI9341::cls()
    mainmain.o(i._Z4Gamev) refers to h1_alloc.o(.text) for malloc
    mainmain.o(i._Z4Gamev) refers to mainmain.o(i._Z10createWalliiiii) for createWall(int, int, int, int, int)
    mainmain.o(i._Z4Gamev) refers to rt_memcpy_w.o(.text) for __aeabi_memcpy4
    mainmain.o(i._Z4Gamev) refers to mainmain.o(i._Z10createZoneiiiii) for createZone(int, int, int, int, int)
    mainmain.o(i._Z4Gamev) refers to mainmain.o(.bss) for TFT
    mainmain.o(i._Z4Gamev) refers to mainmain.o(.data) for wonGame
    mainmain.o(i._Z4Gamev) refers to mainmain.o(i._Z10createBalliiii) for createBall(int, int, int, int)
    mainmain.o(i._Z4Gamev) refers to wait_api.o(i.wait) for wait
    mainmain.o(i._Z4Gamev) refers to spi_tft_ili9341.o(i._ZN15SPI_TFT_ILI93418set_fontEPh) for SPI_TFT_ILI9341::set_font(unsigned char*)
    mainmain.o(i._Z4Gamev) refers to spi_tft_ili9341.o(i._ZN15SPI_TFT_ILI93416locateEii) for SPI_TFT_ILI9341::locate(int, int)
    mainmain.o(i._Z4Gamev) refers to Stream.o(i._ZN4mbed6Stream6printfEPKcz) for mbed::Stream::printf(const char*, ...)
    mainmain.o(i._Z4Gamev) refers to spi_tft_ili9341.o(i._ZN15SPI_TFT_ILI93416heightEv) for SPI_TFT_ILI9341::height()
    mainmain.o(i._Z4Gamev) refers to spi_tft_ili9341.o(i._ZN15SPI_TFT_ILI93415widthEv) for SPI_TFT_ILI9341::width()
    mainmain.o(i._Z4Gamev) refers to mma8451q.o(i._ZN8MMA8451Q7getAccYEv) for MMA8451Q::getAccY()
    mainmain.o(i._Z4Gamev) refers to mma8451q.o(i._ZN8MMA8451Q7getAccXEv) for MMA8451Q::getAccX()
    mainmain.o(i._Z4Gamev) refers to mainmain.o(i._Z5boundiii) for bound(int, int, int)
    mainmain.o(i._Z4Gamev) refers to spi_tft_ili9341.o(i._ZN15SPI_TFT_ILI934110fillcircleEiiii) for SPI_TFT_ILI9341::fillcircle(int, int, int, int)
    mainmain.o(i._Z4Gamev) refers to mainmain.o(i._Z10marbleDrop4ball4zone) for marbleDrop(ball, zone)
    mainmain.o(i._Z4Gamev) refers to mainmain.o(i._Z10marbleRoll4ball4zoneP4wallPS0_) for marbleRoll(ball, zone, wall*, zone*)
    mainmain.o(i._Z4Gamev) refers to mainmain.o(.constdata) for Arial28x28
    mainmain.o(i._Z4Gamev) refers to h1_free.o(.text) for free
    mainmain.o(i._Z5Instrv) refers to spi_tft_ili9341.o(i._ZN15SPI_TFT_ILI93413clsEv) for SPI_TFT_ILI9341::cls()
    mainmain.o(i._Z5Instrv) refers to mainmain.o(i._Z10createBalliiii) for createBall(int, int, int, int)
    mainmain.o(i._Z5Instrv) refers to h1_alloc.o(.text) for malloc
    mainmain.o(i._Z5Instrv) refers to mainmain.o(i._Z10createWalliiiii) for createWall(int, int, int, int, int)
    mainmain.o(i._Z5Instrv) refers to rt_memcpy_w.o(.text) for __aeabi_memcpy4
    mainmain.o(i._Z5Instrv) refers to mainmain.o(i._Z10createZoneiiiii) for createZone(int, int, int, int, int)
    mainmain.o(i._Z5Instrv) refers to spi_tft_ili9341.o(i._ZN15SPI_TFT_ILI93418set_fontEPh) for SPI_TFT_ILI9341::set_font(unsigned char*)
    mainmain.o(i._Z5Instrv) refers to spi_tft_ili9341.o(i._ZN15SPI_TFT_ILI93416locateEii) for SPI_TFT_ILI9341::locate(int, int)
    mainmain.o(i._Z5Instrv) refers to Stream.o(i._ZN4mbed6Stream6printfEPKcz) for mbed::Stream::printf(const char*, ...)
    mainmain.o(i._Z5Instrv) refers to mainmain.o(i._Z11marbleRoll24ball4zoneP4wallPS0_) for marbleRoll2(ball, zone, wall*, zone*)
    mainmain.o(i._Z5Instrv) refers to wait_api.o(i.wait) for wait
    mainmain.o(i._Z5Instrv) refers to h1_free.o(.text) for free
    mainmain.o(i._Z5Instrv) refers to mainmain.o(.bss) for TFT
    mainmain.o(i._Z5Instrv) refers to mainmain.o(.data) for MAZE_HEIGHT
    mainmain.o(i._Z5Instrv) refers to mainmain.o(.constdata) for Arial12x12
    mainmain.o(i._Z5Readyv) refers to spi_tft_ili9341.o(i._ZN15SPI_TFT_ILI93413clsEv) for SPI_TFT_ILI9341::cls()
    mainmain.o(i._Z5Readyv) refers to wait_api.o(i.wait) for wait
    mainmain.o(i._Z5Readyv) refers to spi_tft_ili9341.o(i._ZN15SPI_TFT_ILI93418set_fontEPh) for SPI_TFT_ILI9341::set_font(unsigned char*)
    mainmain.o(i._Z5Readyv) refers to spi_tft_ili9341.o(i._ZN15SPI_TFT_ILI93416locateEii) for SPI_TFT_ILI9341::locate(int, int)
    mainmain.o(i._Z5Readyv) refers to Stream.o(i._ZN4mbed6Stream6printfEPKcz) for mbed::Stream::printf(const char*, ...)
    mainmain.o(i._Z5Readyv) refers to mainmain.o(i._Z10createBalliiii) for createBall(int, int, int, int)
    mainmain.o(i._Z5Readyv) refers to mainmain.o(i._Z10createZoneiiiii) for createZone(int, int, int, int, int)
    mainmain.o(i._Z5Readyv) refers to mma8451q.o(i._ZN8MMA8451Q7getAccYEv) for MMA8451Q::getAccY()
    mainmain.o(i._Z5Readyv) refers to mma8451q.o(i._ZN8MMA8451Q7getAccXEv) for MMA8451Q::getAccX()
    mainmain.o(i._Z5Readyv) refers to mainmain.o(i._Z5boundiii) for bound(int, int, int)
    mainmain.o(i._Z5Readyv) refers to spi_tft_ili9341.o(i._ZN15SPI_TFT_ILI934110fillcircleEiiii) for SPI_TFT_ILI9341::fillcircle(int, int, int, int)
    mainmain.o(i._Z5Readyv) refers to dflt_clz.o(x$fpl$dflt) for __aeabi_i2d
    mainmain.o(i._Z5Readyv) refers to dmul.o(x$fpl$dmul) for __aeabi_dmul
    mainmain.o(i._Z5Readyv) refers to daddsub_clz.o(x$fpl$dadd) for __aeabi_dadd
    mainmain.o(i._Z5Readyv) refers to sqrt.o(i.__hardfp_sqrt) for __hardfp_sqrt
    mainmain.o(i._Z5Readyv) refers to dfix.o(x$fpl$dfix) for __aeabi_d2iz
    mainmain.o(i._Z5Readyv) refers to rt_memcpy_w.o(.text) for __aeabi_memcpy4
    mainmain.o(i._Z5Readyv) refers to mainmain.o(i._Z10marbleDrop4ball4zone) for marbleDrop(ball, zone)
    mainmain.o(i._Z5Readyv) refers to mainmain.o(.bss) for TFT
    mainmain.o(i._Z5Readyv) refers to mainmain.o(.constdata) for Arial28x28
    mainmain.o(i._Z5Readyv) refers to mainmain.o(.data) for MAZE_HEIGHT
    mainmain.o(i._Z5Startv) refers to spi_tft_ili9341.o(i._ZN15SPI_TFT_ILI93418set_fontEPh) for SPI_TFT_ILI9341::set_font(unsigned char*)
    mainmain.o(i._Z5Startv) refers to spi_tft_ili9341.o(i._ZN15SPI_TFT_ILI93416locateEii) for SPI_TFT_ILI9341::locate(int, int)
    mainmain.o(i._Z5Startv) refers to Stream.o(i._ZN4mbed6Stream6printfEPKcz) for mbed::Stream::printf(const char*, ...)
    mainmain.o(i._Z5Startv) refers to wait_api.o(i.wait) for wait
    mainmain.o(i._Z5Startv) refers to mainmain.o(.constdata) for Neu42x35
    mainmain.o(i._Z5Startv) refers to mainmain.o(.bss) for TFT
    mainmain.o(i._Z5Startv) refers to mainmain.o(.data) for MAZE_HEIGHT
    mainmain.o(i._Z5boundiii) refers to dflt_clz.o(x$fpl$dflt) for __aeabi_i2d
    mainmain.o(i._Z5boundiii) refers to dmul.o(x$fpl$dmul) for __aeabi_dmul
    mainmain.o(i._Z5boundiii) refers to daddsub_clz.o(x$fpl$dsub) for __aeabi_dsub
    mainmain.o(i._Z5boundiii) refers to drleqf.o(x$fpl$drleqf) for __aeabi_cdrcmple
    mainmain.o(i._Z7initTFTv) refers to textdisplay.o(i._ZN11TextDisplay10backgroundEt) for TextDisplay::background(unsigned short)
    mainmain.o(i._Z7initTFTv) refers to textdisplay.o(i._ZN11TextDisplay10foregroundEt) for TextDisplay::foreground(unsigned short)
    mainmain.o(i._Z7initTFTv) refers to wait_api.o(i.wait) for wait
    mainmain.o(i._Z7initTFTv) refers to spi_tft_ili9341.o(i._ZN15SPI_TFT_ILI93413clsEv) for SPI_TFT_ILI9341::cls()
    mainmain.o(i._Z7initTFTv) refers to mainmain.o(.bss) for TFT
    mainmain.o(i.__sti___12_mainMain_cpp_acc) refers to spi_tft_ili9341.o(i._ZN15SPI_TFT_ILI9341C1E7PinNameS0_S0_S0_S0_S0_PKc) for SPI_TFT_ILI9341::SPI_TFT_ILI9341(PinName, PinName, PinName, PinName, PinName, PinName, const char*)
    mainmain.o(i.__sti___12_mainMain_cpp_acc) refers to aeabi_atexit.o(.text) for __aeabi_atexit
    mainmain.o(i.__sti___12_mainMain_cpp_acc) refers to mytouch.o(i._ZN7MYTOUCHC1E7PinNameS0_S0_S0_S0_hPFvvE) for MYTOUCH::MYTOUCH(PinName, PinName, PinName, PinName, PinName, unsigned char, void(*)())
    mainmain.o(i.__sti___12_mainMain_cpp_acc) refers to gpio.o(i.gpio_init_in) for gpio_init_in
    mainmain.o(i.__sti___12_mainMain_cpp_acc) refers to gpio.o(i.gpio_init_out) for gpio_init_out
    mainmain.o(i.__sti___12_mainMain_cpp_acc) refers to mainmain.o(.bss) for TFT
    mainmain.o(i.__sti___12_mainMain_cpp_acc) refers to spi_tft_ili9341.o(i._ZN15SPI_TFT_ILI9341D1Ev) for SPI_TFT_ILI9341::~SPI_TFT_ILI9341()
    mainmain.o(i.__sti___12_mainMain_cpp_acc) refers to mainmain.o(i._Z19mytouch_irq_handlerv) for mytouch_irq_handler()
    mainmain.o(i.__sti___12_mainMain_cpp_acc) refers to mainmain.o(i._ZN7MYTOUCHD1Ev) for MYTOUCH::~MYTOUCH()
    mainmain.o(i.__sti___12_mainMain_cpp_acc) refers to mainmain.o(.data) for pinD7
    mainmain.o(i.main) refers to mainmain.o(i._Z7initTFTv) for initTFT()
    mainmain.o(i.main) refers to spi_tft_ili9341.o(i._ZN15SPI_TFT_ILI934115set_orientationEj) for SPI_TFT_ILI9341::set_orientation(unsigned)
    mainmain.o(i.main) refers to spi_tft_ili9341.o(i._ZN15SPI_TFT_ILI93415widthEv) for SPI_TFT_ILI9341::width()
    mainmain.o(i.main) refers to spi_tft_ili9341.o(i._ZN15SPI_TFT_ILI93416heightEv) for SPI_TFT_ILI9341::height()
    mainmain.o(i.main) refers to spi_stmpe610.o(i._ZN4mbed10DigitalOutaSEi) for mbed::DigitalOut::operator =(int)
    mainmain.o(i.main) refers to textdisplay.o(i._ZN11TextDisplay10backgroundEt) for TextDisplay::background(unsigned short)
    mainmain.o(i.main) refers to textdisplay.o(i._ZN11TextDisplay10foregroundEt) for TextDisplay::foreground(unsigned short)
    mainmain.o(i.main) refers to new.o(i._Znwj) for operator new(unsigned)
    mainmain.o(i.main) refers to mma8451q.o(i._ZN8MMA8451QC1E7PinNameS0_i) for MMA8451Q::MMA8451Q(PinName, PinName, int)
    mainmain.o(i.main) refers to mainmain.o(i._Z5Startv) for Start()
    mainmain.o(i.main) refers to mainmain.o(i._Z5Instrv) for Instr()
    mainmain.o(i.main) refers to mainmain.o(i._Z5Readyv) for Ready()
    mainmain.o(i.main) refers to wait_api.o(i.wait) for wait
    mainmain.o(i.main) refers to mainmain.o(i._Z4Gamev) for Game()
    mainmain.o(i.main) refers to mainmain.o(.bss) for TFT
    mainmain.o(i.main) refers to mainmain.o(.data) for MAZE_WIDTH
    mainmain.o(.ARM.exidx) refers to mainmain.o(i._Z19mytouch_irq_handlerv) for i._Z19mytouch_irq_handlerv
    mainmain.o(.ARM.exidx) refers to mainmain.o(i._Z7initTFTv) for i._Z7initTFTv
    mainmain.o(.ARM.exidx) refers to mainmain.o(i._Z10createWalliiiii) for i._Z10createWalliiiii
    mainmain.o(.ARM.exidx) refers to mainmain.o(i._Z10createZoneiiiii) for i._Z10createZoneiiiii
    mainmain.o(.ARM.exidx) refers to mainmain.o(i._Z10createBalliiii) for i._Z10createBalliiii
    mainmain.o(.ARM.exidx) refers to mainmain.o(i._Z5boundiii) for i._Z5boundiii
    mainmain.o(.ARM.exidx) refers to mainmain.o(i._Z10marbleDrop4ball4zone) for i._Z10marbleDrop4ball4zone
    mainmain.o(.ARM.exidx) refers to mainmain.o(i._Z10checkWallsii4ball4wall) for i._Z10checkWallsii4ball4wall
    mainmain.o(.ARM.exidx) refers to mainmain.o(i._Z10marbleRoll4ball4zoneP4wallPS0_) for i._Z10marbleRoll4ball4zoneP4wallPS0_
    mainmain.o(.ARM.exidx) refers to mainmain.o(i._Z4Gamev) for i._Z4Gamev
    mainmain.o(.ARM.exidx) refers to mainmain.o(i._Z11marbleRoll24ball4zoneP4wallPS0_) for i._Z11marbleRoll24ball4zoneP4wallPS0_
    mainmain.o(.ARM.exidx) refers to mainmain.o(i._Z5Instrv) for i._Z5Instrv
    mainmain.o(.ARM.exidx) refers to mainmain.o(i._Z5Readyv) for i._Z5Readyv
    mainmain.o(.ARM.exidx) refers to mainmain.o(i._Z5Startv) for i._Z5Startv
    mainmain.o(.ARM.exidx) refers to mainmain.o(i.main) for i.main
    mainmain.o(.ARM.exidx) refers to mainmain.o(i.__sti___12_mainMain_cpp_acc) for i.__sti___12_mainMain_cpp_acc
    mainmain.o(.init_array) refers to mainmain.o(i.__sti___12_mainMain_cpp_acc) for __sti___12_mainMain_cpp_acc
    mainmain.o(.init_array) refers to init_aeabi.o(.text) for __cpp_initialize__aeabi_
    fsl_gpio_hal.o(i.gpio_hal_set_pin_direction) refers to assert.o(.text) for __aeabi_assert
    fsl_gpio_hal.o(i.gpio_hal_set_pin_direction) refers to fsl_gpio_hal.o(.constdata) for .constdata
    fsl_gpio_hal.o(i.gpio_hal_write_pin_output) refers to assert.o(.text) for __aeabi_assert
    fsl_gpio_hal.o(i.gpio_hal_write_pin_output) refers to fsl_gpio_hal.o(.constdata) for .constdata
    pwmout_api.o(i.pwmout_init) refers to pinmap_common.o(i.pinmap_peripheral) for pinmap_peripheral
    pwmout_api.o(i.pwmout_init) refers to assert.o(i.mbed_assert_internal) for mbed_assert_internal
    pwmout_api.o(i.pwmout_init) refers to fsl_clock_manager.o(i.clock_manager_get_frequency) for clock_manager_get_frequency
    pwmout_api.o(i.pwmout_init) refers to fsl_clock_manager.o(i.clock_manager_set_gate) for clock_manager_set_gate
    pwmout_api.o(i.pwmout_init) refers to assert.o(.text) for __aeabi_assert
    pwmout_api.o(i.pwmout_init) refers to pwmout_api.o(i.pwmout_period_us) for pwmout_period_us
    pwmout_api.o(i.pwmout_init) refers to pwmout_api.o(i.pwmout_write) for pwmout_write
    pwmout_api.o(i.pwmout_init) refers to fsl_ftm_hal.o(i.ftm_hal_enable_pwm_mode) for ftm_hal_enable_pwm_mode
    pwmout_api.o(i.pwmout_init) refers to pinmap_common.o(i.pinmap_pinout) for pinmap_pinout
    pwmout_api.o(i.pwmout_init) refers to PeripheralPins.o(.constdata) for PinMap_PWM
    pwmout_api.o(i.pwmout_init) refers to pwmout_api.o(.constdata) for .constdata
    pwmout_api.o(i.pwmout_init) refers to pwmout_api.o(.data) for .data
    pwmout_api.o(i.pwmout_period) refers to pwmout_api.o(i.pwmout_period_us) for pwmout_period_us
    pwmout_api.o(i.pwmout_period_ms) refers to pwmout_api.o(i.pwmout_period_us) for pwmout_period_us
    pwmout_api.o(i.pwmout_period_us) refers to assert.o(.text) for __aeabi_assert
    pwmout_api.o(i.pwmout_period_us) refers to pwmout_api.o(i.pwmout_write) for pwmout_write
    pwmout_api.o(i.pwmout_period_us) refers to pwmout_api.o(.constdata) for .constdata
    pwmout_api.o(i.pwmout_period_us) refers to pwmout_api.o(.data) for .data
    pwmout_api.o(i.pwmout_pulsewidth) refers to assert.o(.text) for __aeabi_assert
    pwmout_api.o(i.pwmout_pulsewidth) refers to pwmout_api.o(.data) for .data
    pwmout_api.o(i.pwmout_pulsewidth) refers to pwmout_api.o(.constdata) for .constdata
    pwmout_api.o(i.pwmout_pulsewidth_ms) refers to assert.o(.text) for __aeabi_assert
    pwmout_api.o(i.pwmout_pulsewidth_ms) refers to pwmout_api.o(.data) for .data
    pwmout_api.o(i.pwmout_pulsewidth_ms) refers to pwmout_api.o(.constdata) for .constdata
    pwmout_api.o(i.pwmout_pulsewidth_us) refers to assert.o(.text) for __aeabi_assert
    pwmout_api.o(i.pwmout_pulsewidth_us) refers to pwmout_api.o(.data) for .data
    pwmout_api.o(i.pwmout_pulsewidth_us) refers to pwmout_api.o(.constdata) for .constdata
    pwmout_api.o(i.pwmout_read) refers to assert.o(.text) for __aeabi_assert
    pwmout_api.o(i.pwmout_read) refers to pwmout_api.o(.constdata) for .constdata
    pwmout_api.o(i.pwmout_write) refers to assert.o(.text) for __aeabi_assert
    pwmout_api.o(i.pwmout_write) refers to pwmout_api.o(.constdata) for .constdata
    serial_api.o(i.serial_baud) refers to fsl_clock_manager.o(i.clock_manager_get_frequency) for clock_manager_get_frequency
    serial_api.o(i.serial_baud) refers to fsl_uart_hal_common_configurations.o(i.uart_hal_set_baud_rate) for uart_hal_set_baud_rate
    serial_api.o(i.serial_break_clear) refers to fsl_uart_hal_special_feature_configurations.o(i.uart_hal_queue_break_char_to_send) for uart_hal_queue_break_char_to_send
    serial_api.o(i.serial_break_set) refers to fsl_uart_hal_special_feature_configurations.o(i.uart_hal_queue_break_char_to_send) for uart_hal_queue_break_char_to_send
    serial_api.o(i.serial_format) refers to fsl_uart_hal_common_configurations.o(i.uart_hal_configure_bit_count_per_char) for uart_hal_configure_bit_count_per_char
    serial_api.o(i.serial_format) refers to fsl_uart_hal_common_configurations.o(i.uart_hal_configure_parity_mode) for uart_hal_configure_parity_mode
    serial_api.o(i.serial_format) refers to fsl_uart_hal_common_configurations.o(i.uart_hal_configure_stop_bit_count) for uart_hal_configure_stop_bit_count
    serial_api.o(i.serial_free) refers to serial_api.o(.bss) for .bss
    serial_api.o(i.serial_getc) refers to fsl_uart_hal_status_flags.o(i.uart_hal_is_receive_overrun_detected) for uart_hal_is_receive_overrun_detected
    serial_api.o(i.serial_getc) refers to fsl_uart_hal_status_flags.o(i.uart_hal_clear_status_flag) for uart_hal_clear_status_flag
    serial_api.o(i.serial_getc) refers to fsl_uart_hal_status_flags.o(i.uart_hal_is_receive_data_register_full) for uart_hal_is_receive_data_register_full
    serial_api.o(i.serial_getc) refers to fsl_uart_hal_transfer_functions.o(i.uart_hal_getchar) for uart_hal_getchar
    serial_api.o(i.serial_init) refers to pinmap_common.o(i.pinmap_peripheral) for pinmap_peripheral
    serial_api.o(i.serial_init) refers to pinmap_common.o(i.pinmap_merge) for pinmap_merge
    serial_api.o(i.serial_init) refers to assert.o(i.mbed_assert_internal) for mbed_assert_internal
    serial_api.o(i.serial_init) refers to fsl_clock_manager.o(i.clock_manager_get_frequency) for clock_manager_get_frequency
    serial_api.o(i.serial_init) refers to fsl_clock_manager.o(i.clock_manager_set_gate) for clock_manager_set_gate
    serial_api.o(i.serial_init) refers to fsl_uart_hal_common_configurations.o(i.uart_hal_init) for uart_hal_init
    serial_api.o(i.serial_init) refers to pinmap_common.o(i.pinmap_pinout) for pinmap_pinout
    serial_api.o(i.serial_init) refers to pinmap.o(i.pin_mode) for pin_mode
    serial_api.o(i.serial_init) refers to PeripheralPins.o(.constdata) for PinMap_UART_TX
    serial_api.o(i.serial_init) refers to PeripheralPins.o(.constdata) for PinMap_UART_RX
    serial_api.o(i.serial_init) refers to serial_api.o(.constdata) for .constdata
    serial_api.o(i.serial_init) refers to serial_api.o(.data) for .data
    serial_api.o(i.serial_irq_handler) refers to serial_api.o(.data) for .data
    serial_api.o(i.serial_irq_handler) refers to serial_api.o(.bss) for .bss
    serial_api.o(i.serial_irq_set) refers to fsl_uart_hal_interrupts_and_dma.o(i.uart_hal_enable_tx_data_register_empty_interrupt) for uart_hal_enable_tx_data_register_empty_interrupt
    serial_api.o(i.serial_irq_set) refers to fsl_uart_hal_interrupts_and_dma.o(i.uart_hal_enable_rx_data_register_full_interrupt) for uart_hal_enable_rx_data_register_full_interrupt
    serial_api.o(i.serial_irq_set) refers to cmsis_nvic.o(i.NVIC_SetVector) for NVIC_SetVector
    serial_api.o(i.serial_irq_set) refers to fsl_uart_hal_interrupts_and_dma.o(i.uart_hal_disable_tx_data_register_empty_interrupt) for uart_hal_disable_tx_data_register_empty_interrupt
    serial_api.o(i.serial_irq_set) refers to fsl_uart_hal_interrupts_and_dma.o(i.uart_hal_disable_rx_data_register_full_interrupt) for uart_hal_disable_rx_data_register_full_interrupt
    serial_api.o(i.serial_irq_set) refers to fsl_uart_hal_interrupts_and_dma.o(i.uart_hal_is_tx_data_register_empty_interrupt_enabled) for uart_hal_is_tx_data_register_empty_interrupt_enabled
    serial_api.o(i.serial_irq_set) refers to fsl_uart_hal_interrupts_and_dma.o(i.uart_hal_is_receive_data_full_interrupt_enabled) for uart_hal_is_receive_data_full_interrupt_enabled
    serial_api.o(i.serial_irq_set) refers to serial_api.o(i.uart0_irq) for uart0_irq
    serial_api.o(i.serial_irq_set) refers to serial_api.o(i.uart1_irq) for uart1_irq
    serial_api.o(i.serial_irq_set) refers to serial_api.o(i.uart2_irq) for uart2_irq
    serial_api.o(i.serial_irq_set) refers to serial_api.o(i.uart3_irq) for uart3_irq
    serial_api.o(i.serial_irq_set) refers to serial_api.o(i.uart4_irq) for uart4_irq
    serial_api.o(i.serial_pinout_tx) refers to pinmap_common.o(i.pinmap_pinout) for pinmap_pinout
    serial_api.o(i.serial_pinout_tx) refers to PeripheralPins.o(.constdata) for PinMap_UART_TX
    serial_api.o(i.serial_putc) refers to fsl_uart_hal_status_flags.o(i.uart_hal_is_receive_overrun_detected) for uart_hal_is_receive_overrun_detected
    serial_api.o(i.serial_putc) refers to fsl_uart_hal_status_flags.o(i.uart_hal_clear_status_flag) for uart_hal_clear_status_flag
    serial_api.o(i.serial_putc) refers to fsl_uart_hal_status_flags.o(i.uart_hal_is_transmit_data_register_empty) for uart_hal_is_transmit_data_register_empty
    serial_api.o(i.serial_putc) refers to fsl_uart_hal_transfer_functions.o(i.uart_hal_putchar) for uart_hal_putchar
    serial_api.o(i.serial_readable) refers to fsl_uart_hal_status_flags.o(i.uart_hal_is_receive_overrun_detected) for uart_hal_is_receive_overrun_detected
    serial_api.o(i.serial_readable) refers to fsl_uart_hal_status_flags.o(i.uart_hal_clear_status_flag) for uart_hal_clear_status_flag
    serial_api.o(i.serial_readable) refers to fsl_uart_hal_status_flags.o(i.uart_hal_is_receive_data_register_full) for uart_hal_is_receive_data_register_full
    serial_api.o(i.serial_writable) refers to fsl_uart_hal_status_flags.o(i.uart_hal_is_receive_overrun_detected) for uart_hal_is_receive_overrun_detected
    serial_api.o(i.serial_writable) refers to fsl_uart_hal_status_flags.o(i.uart_hal_clear_status_flag) for uart_hal_clear_status_flag
    serial_api.o(i.serial_writable) refers to fsl_uart_hal_status_flags.o(i.uart_hal_is_transmit_data_register_empty) for uart_hal_is_transmit_data_register_empty
    serial_api.o(i.uart0_irq) refers to fsl_uart_hal_status_flags.o(i.uart_hal_is_transmit_data_register_empty) for uart_hal_is_transmit_data_register_empty
    serial_api.o(i.uart0_irq) refers to fsl_uart_hal_status_flags.o(i.uart_hal_is_receive_data_register_full) for uart_hal_is_receive_data_register_full
    serial_api.o(i.uart0_irq) refers to fsl_uart_hal_status_flags.o(i.uart_hal_is_receive_overrun_detected) for uart_hal_is_receive_overrun_detected
    serial_api.o(i.uart0_irq) refers to fsl_uart_hal_status_flags.o(i.uart_hal_clear_status_flag) for uart_hal_clear_status_flag
    serial_api.o(i.uart0_irq) refers to serial_api.o(.bss) for .bss
    serial_api.o(i.uart0_irq) refers to serial_api.o(.data) for .data
    serial_api.o(i.uart1_irq) refers to fsl_uart_hal_status_flags.o(i.uart_hal_is_transmit_data_register_empty) for uart_hal_is_transmit_data_register_empty
    serial_api.o(i.uart1_irq) refers to fsl_uart_hal_status_flags.o(i.uart_hal_is_receive_data_register_full) for uart_hal_is_receive_data_register_full
    serial_api.o(i.uart1_irq) refers to serial_api.o(.bss) for .bss
    serial_api.o(i.uart1_irq) refers to serial_api.o(.data) for .data
    serial_api.o(i.uart2_irq) refers to fsl_uart_hal_status_flags.o(i.uart_hal_is_transmit_data_register_empty) for uart_hal_is_transmit_data_register_empty
    serial_api.o(i.uart2_irq) refers to fsl_uart_hal_status_flags.o(i.uart_hal_is_receive_data_register_full) for uart_hal_is_receive_data_register_full
    serial_api.o(i.uart2_irq) refers to serial_api.o(.bss) for .bss
    serial_api.o(i.uart2_irq) refers to serial_api.o(.data) for .data
    serial_api.o(i.uart3_irq) refers to fsl_uart_hal_status_flags.o(i.uart_hal_is_transmit_data_register_empty) for uart_hal_is_transmit_data_register_empty
    serial_api.o(i.uart3_irq) refers to fsl_uart_hal_status_flags.o(i.uart_hal_is_receive_data_register_full) for uart_hal_is_receive_data_register_full
    serial_api.o(i.uart3_irq) refers to serial_api.o(.bss) for .bss
    serial_api.o(i.uart3_irq) refers to serial_api.o(.data) for .data
    serial_api.o(i.uart4_irq) refers to fsl_uart_hal_status_flags.o(i.uart_hal_is_transmit_data_register_empty) for uart_hal_is_transmit_data_register_empty
    serial_api.o(i.uart4_irq) refers to fsl_uart_hal_status_flags.o(i.uart_hal_is_receive_data_register_full) for uart_hal_is_receive_data_register_full
    serial_api.o(i.uart4_irq) refers to serial_api.o(.bss) for .bss
    serial_api.o(i.uart4_irq) refers to serial_api.o(.data) for .data
    BusOut.o(i._ZN4mbed6BusOut4readEv) refers to assert.o(i.mbed_assert_internal) for mbed_assert_internal
    BusOut.o(i._ZN4mbed6BusOut4readEv) refers to assert.o(.text) for __aeabi_assert
    BusOut.o(i._ZN4mbed6BusOut4readEv) refers to BusOut.o(.constdata) for .constdata
    BusOut.o(i._ZN4mbed6BusOut5writeEi) refers to assert.o(i.mbed_assert_internal) for mbed_assert_internal
    BusOut.o(i._ZN4mbed6BusOut5writeEi) refers to fsl_gpio_hal.o(i.gpio_hal_write_pin_output) for gpio_hal_write_pin_output
    BusOut.o(i._ZN4mbed6BusOut5writeEi) refers to BusOut.o(.constdata) for .constdata
    BusOut.o(i._ZN4mbed6BusOutC1E7PinNameS1_S1_S1_S1_S1_S1_S1_S1_S1_S1_S1_S1_S1_S1_S1_) refers to new.o(i._Znwj) for operator new(unsigned)
    BusOut.o(i._ZN4mbed6BusOutC1E7PinNameS1_S1_S1_S1_S1_S1_S1_S1_S1_S1_S1_S1_S1_S1_S1_) refers to gpio.o(i.gpio_init_out) for gpio_init_out
    BusOut.o(i._ZN4mbed6BusOutC1E7PinNameS1_S1_S1_S1_S1_S1_S1_S1_S1_S1_S1_S1_S1_S1_S1_) refers to BusOut.o(.constdata__ZTVN4mbed6BusOutE) for vtable for mbed::BusOut
    BusOut.o(i._ZN4mbed6BusOutC1EP7PinName) refers to new.o(i._Znwj) for operator new(unsigned)
    BusOut.o(i._ZN4mbed6BusOutC1EP7PinName) refers to gpio.o(i.gpio_init_out) for gpio_init_out
    BusOut.o(i._ZN4mbed6BusOutC1EP7PinName) refers to BusOut.o(.constdata__ZTVN4mbed6BusOutE) for vtable for mbed::BusOut
    BusOut.o(i._ZN4mbed6BusOutD0Ev) refers to delete.o(i._ZdlPv) for operator delete (void*)
    BusOut.o(i._ZN4mbed6BusOutD0Ev) refers to BusOut.o(.constdata__ZTVN4mbed6BusOutE) for vtable for mbed::BusOut
    BusOut.o(i._ZN4mbed6BusOutD1Ev) refers to delete.o(i._ZdlPv) for operator delete (void*)
    BusOut.o(i._ZN4mbed6BusOutD1Ev) refers to BusOut.o(.constdata__ZTVN4mbed6BusOutE) for vtable for mbed::BusOut
    BusOut.o(i._ZN4mbed6BusOutaSERS0_) refers to BusOut.o(i._ZN4mbed6BusOut4readEv) for mbed::BusOut::read()
    BusOut.o(i._ZN4mbed6BusOutaSERS0_) refers to assert.o(i.mbed_assert_internal) for mbed_assert_internal
    BusOut.o(i._ZN4mbed6BusOutaSERS0_) refers to fsl_gpio_hal.o(i.gpio_hal_write_pin_output) for gpio_hal_write_pin_output
    BusOut.o(i._ZN4mbed6BusOutaSERS0_) refers to BusOut.o(.constdata) for .constdata
    BusOut.o(i._ZN4mbed6BusOutaSEi) refers to assert.o(i.mbed_assert_internal) for mbed_assert_internal
    BusOut.o(i._ZN4mbed6BusOutaSEi) refers to fsl_gpio_hal.o(i.gpio_hal_write_pin_output) for gpio_hal_write_pin_output
    BusOut.o(i._ZN4mbed6BusOutaSEi) refers to BusOut.o(.constdata) for .constdata
    BusOut.o(i._ZN4mbed6BusOutcviEv) refers to BusOut.o(i._ZN4mbed6BusOut4readEv) for mbed::BusOut::read()
    BusOut.o(.ARM.exidx) refers to BusOut.o(i._ZN4mbed6BusOutC1E7PinNameS1_S1_S1_S1_S1_S1_S1_S1_S1_S1_S1_S1_S1_S1_S1_) for i._ZN4mbed6BusOutC1E7PinNameS1_S1_S1_S1_S1_S1_S1_S1_S1_S1_S1_S1_S1_S1_S1_
    BusOut.o(.ARM.exidx) refers to BusOut.o(i._ZN4mbed6BusOutC1EP7PinName) for i._ZN4mbed6BusOutC1EP7PinName
    BusOut.o(.ARM.exidx) refers to BusOut.o(i._ZN4mbed6BusOutD1Ev) for i._ZN4mbed6BusOutD1Ev
    BusOut.o(.ARM.exidx) refers to BusOut.o(i._ZN4mbed6BusOutD0Ev) for i._ZN4mbed6BusOutD0Ev
    BusOut.o(.ARM.exidx) refers to BusOut.o(i._ZN4mbed6BusOut5writeEi) for i._ZN4mbed6BusOut5writeEi
    BusOut.o(.ARM.exidx) refers to BusOut.o(i._ZN4mbed6BusOut4readEv) for i._ZN4mbed6BusOut4readEv
    BusOut.o(.ARM.exidx) refers to BusOut.o(i._ZN4mbed6BusOutaSEi) for i._ZN4mbed6BusOutaSEi
    BusOut.o(.ARM.exidx) refers to BusOut.o(i._ZN4mbed6BusOutaSERS0_) for i._ZN4mbed6BusOutaSERS0_
    BusOut.o(.ARM.exidx) refers to BusOut.o(i._ZN4mbed6BusOutcviEv) for i._ZN4mbed6BusOutcviEv
    FilePath.o(i._ZN4mbed8FilePath10fileSystemEv) refers to FileBase.o(i._ZN4mbed8FileBase11getPathTypeEv) for mbed::FileBase::getPathType()
    FilePath.o(i._ZN4mbed8FilePath12isFileSystemEv) refers to FileBase.o(i._ZN4mbed8FileBase11getPathTypeEv) for mbed::FileBase::getPathType()
    FilePath.o(i._ZN4mbed8FilePath4fileEv) refers to FileBase.o(i._ZN4mbed8FileBase11getPathTypeEv) for mbed::FileBase::getPathType()
    FilePath.o(i._ZN4mbed8FilePath6isFileEv) refers to FileBase.o(i._ZN4mbed8FileBase11getPathTypeEv) for mbed::FileBase::getPathType()
    FilePath.o(i._ZN4mbed8FilePathC1EPKc) refers to FileBase.o(i._ZN4mbed8FileBase6lookupEPKcj) for mbed::FileBase::lookup(const char*, unsigned)
    FilePath.o(.ARM.exidx) refers to FilePath.o(i._ZN4mbed8FilePathC1EPKc) for i._ZN4mbed8FilePathC1EPKc
    FilePath.o(.ARM.exidx) refers to FilePath.o(i._ZN4mbed8FilePath8fileNameEv) for i._ZN4mbed8FilePath8fileNameEv
    FilePath.o(.ARM.exidx) refers to FilePath.o(i._ZN4mbed8FilePath12isFileSystemEv) for i._ZN4mbed8FilePath12isFileSystemEv
    FilePath.o(.ARM.exidx) refers to FilePath.o(i._ZN4mbed8FilePath10fileSystemEv) for i._ZN4mbed8FilePath10fileSystemEv
    FilePath.o(.ARM.exidx) refers to FilePath.o(i._ZN4mbed8FilePath6isFileEv) for i._ZN4mbed8FilePath6isFileEv
    FilePath.o(.ARM.exidx) refers to FilePath.o(i._ZN4mbed8FilePath4fileEv) for i._ZN4mbed8FilePath4fileEv
    FilePath.o(.ARM.exidx) refers to FilePath.o(i._ZN4mbed8FilePath6existsEv) for i._ZN4mbed8FilePath6existsEv
    FileSystemLike.o(i._ZN4mbed14FileSystemLike7opendirEv) refers to new.o(i._Znwj) for operator new(unsigned)
    FileSystemLike.o(i._ZN4mbed14FileSystemLike7opendirEv) refers to rt_memclr_w.o(.text) for __aeabi_memclr4
    FileSystemLike.o(i._ZN4mbed14FileSystemLike7opendirEv) refers to FileSystemLike.o(.constdata__ZTVN4mbed13BaseDirHandleE) for vtable for mbed::BaseDirHandle
    FileSystemLike.o(i._ZN4mbed14FileSystemLikeC2EPKc) refers to FileBase.o(i._ZN4mbed8FileBaseC1EPKcNS_8PathTypeE) for mbed::FileBase::FileBase(const char*, mbed::PathType)
    FileSystemLike.o(i._ZN4mbed14FileSystemLikeC2EPKc) refers to FileSystemLike.o(.constdata__ZTVN4mbed14FileSystemLikeE) for vtable for mbed::FileSystemLike
    FileSystemLike.o(i._ZN4mbed14FileSystemLikeD0Ev) refers to FileBase.o(i._ZN4mbed8FileBaseD1Ev) for mbed::FileBase::~FileBase()
    FileSystemLike.o(i._ZN4mbed14FileSystemLikeD0Ev) refers to delete.o(i._ZdlPv) for operator delete (void*)
    FileSystemLike.o(i._ZN4mbed14FileSystemLikeD2Ev) refers to FileBase.o(i._ZN4mbed8FileBaseD1Ev) for mbed::FileBase::~FileBase()
    FileSystemLike.o(.ARM.exidx) refers to FileSystemLike.o(i._ZN4mbed14FileSystemLikeC2EPKc) for i._ZN4mbed14FileSystemLikeC2EPKc
    FileSystemLike.o(.ARM.exidx) refers to FileSystemLike.o(i._ZN4mbed14FileSystemLikeD2Ev) for i._ZN4mbed14FileSystemLikeD2Ev
    FileSystemLike.o(.ARM.exidx) refers to FileSystemLike.o(i._ZN4mbed14FileSystemLikeD0Ev) for i._ZN4mbed14FileSystemLikeD0Ev
    FileSystemLike.o(.ARM.exidx) refers to FileSystemLike.o(i._ZN4mbed14FileSystemLike7opendirEv) for i._ZN4mbed14FileSystemLike7opendirEv
    I2C.o(i._ZN4mbed3I2C4readEi) refers to i2c_api.o(i.i2c_byte_read) for i2c_byte_read
    I2C.o(i._ZN4mbed3I2C4readEiPcib) refers to i2c_api.o(i.i2c_frequency) for i2c_frequency
    I2C.o(i._ZN4mbed3I2C4readEiPcib) refers to i2c_api.o(i.i2c_read) for i2c_read
    I2C.o(i._ZN4mbed3I2C4readEiPcib) refers to I2C.o(.data) for .data
    I2C.o(i._ZN4mbed3I2C4stopEv) refers to i2c_api.o(i.i2c_stop) for i2c_stop
    I2C.o(i._ZN4mbed3I2C5startEv) refers to i2c_api.o(i.i2c_start) for i2c_start
    I2C.o(i._ZN4mbed3I2C5writeEi) refers to i2c_api.o(i.i2c_byte_write) for i2c_byte_write
    I2C.o(i._ZN4mbed3I2C5writeEiPKcib) refers to i2c_api.o(i.i2c_frequency) for i2c_frequency
    I2C.o(i._ZN4mbed3I2C5writeEiPKcib) refers to i2c_api.o(i.i2c_write) for i2c_write
    I2C.o(i._ZN4mbed3I2C5writeEiPKcib) refers to I2C.o(.data) for .data
    I2C.o(i._ZN4mbed3I2C6aquireEv) refers to i2c_api.o(i.i2c_frequency) for i2c_frequency
    I2C.o(i._ZN4mbed3I2C6aquireEv) refers to I2C.o(.data) for .data
    I2C.o(i._ZN4mbed3I2C9frequencyEi) refers to i2c_api.o(i.i2c_frequency) for i2c_frequency
    I2C.o(i._ZN4mbed3I2C9frequencyEi) refers to I2C.o(.data) for .data
    I2C.o(i._ZN4mbed3I2CC1E7PinNameS1_) refers to i2c_api.o(i.i2c_init) for i2c_init
    I2C.o(i._ZN4mbed3I2CC1E7PinNameS1_) refers to I2C.o(.data) for .data
    I2C.o(.ARM.exidx) refers to I2C.o(i._ZN4mbed3I2CC1E7PinNameS1_) for i._ZN4mbed3I2CC1E7PinNameS1_
    I2C.o(.ARM.exidx) refers to I2C.o(i._ZN4mbed3I2C9frequencyEi) for i._ZN4mbed3I2C9frequencyEi
    I2C.o(.ARM.exidx) refers to I2C.o(i._ZN4mbed3I2C6aquireEv) for i._ZN4mbed3I2C6aquireEv
    I2C.o(.ARM.exidx) refers to I2C.o(i._ZN4mbed3I2C4readEiPcib) for i._ZN4mbed3I2C4readEiPcib
    I2C.o(.ARM.exidx) refers to I2C.o(i._ZN4mbed3I2C4readEi) for i._ZN4mbed3I2C4readEi
    I2C.o(.ARM.exidx) refers to I2C.o(i._ZN4mbed3I2C5writeEiPKcib) for i._ZN4mbed3I2C5writeEiPKcib
    I2C.o(.ARM.exidx) refers to I2C.o(i._ZN4mbed3I2C5writeEi) for i._ZN4mbed3I2C5writeEi
    I2C.o(.ARM.exidx) refers to I2C.o(i._ZN4mbed3I2C5startEv) for i._ZN4mbed3I2C5startEv
    I2C.o(.ARM.exidx) refers to I2C.o(i._ZN4mbed3I2C4stopEv) for i._ZN4mbed3I2C4stopEv
    InterruptIn.o(i._ZN4mbed11InterruptIn10enable_irqEv) refers to gpio_irq_api.o(i.gpio_irq_enable) for gpio_irq_enable
    InterruptIn.o(i._ZN4mbed11InterruptIn11disable_irqEv) refers to gpio_irq_api.o(i.gpio_irq_disable) for gpio_irq_disable
    InterruptIn.o(i._ZN4mbed11InterruptIn12_irq_handlerEj14gpio_irq_event) refers to FunctionPointer.o(i._ZN4mbed15FunctionPointer4callEv) for mbed::FunctionPointer::call()
    InterruptIn.o(i._ZN4mbed11InterruptIn4fallEPFvvE) refers to FunctionPointer.o(i._ZN4mbed15FunctionPointer6attachEPFvvE) for mbed::FunctionPointer::attach(void(*)())
    InterruptIn.o(i._ZN4mbed11InterruptIn4fallEPFvvE) refers to gpio_irq_api.o(i.gpio_irq_set) for gpio_irq_set
    InterruptIn.o(i._ZN4mbed11InterruptIn4modeE7PinMode) refers to gpio_api.o(i.gpio_mode) for gpio_mode
    InterruptIn.o(i._ZN4mbed11InterruptIn4readEv) refers to assert.o(i.mbed_assert_internal) for mbed_assert_internal
    InterruptIn.o(i._ZN4mbed11InterruptIn4readEv) refers to assert.o(.text) for __aeabi_assert
    InterruptIn.o(i._ZN4mbed11InterruptIn4readEv) refers to InterruptIn.o(.constdata) for .constdata
    InterruptIn.o(i._ZN4mbed11InterruptIn4riseEPFvvE) refers to FunctionPointer.o(i._ZN4mbed15FunctionPointer6attachEPFvvE) for mbed::FunctionPointer::attach(void(*)())
    InterruptIn.o(i._ZN4mbed11InterruptIn4riseEPFvvE) refers to gpio_irq_api.o(i.gpio_irq_set) for gpio_irq_set
    InterruptIn.o(i._ZN4mbed11InterruptInC1E7PinName) refers to FunctionPointer.o(i._ZN4mbed15FunctionPointerC1EPFvvE) for mbed::FunctionPointer::FunctionPointer(void(*)())
    InterruptIn.o(i._ZN4mbed11InterruptInC1E7PinName) refers to gpio_irq_api.o(i.gpio_irq_init) for gpio_irq_init
    InterruptIn.o(i._ZN4mbed11InterruptInC1E7PinName) refers to gpio.o(i.gpio_init_in) for gpio_init_in
    InterruptIn.o(i._ZN4mbed11InterruptInC1E7PinName) refers to InterruptIn.o(.constdata__ZTVN4mbed11InterruptInE) for vtable for mbed::InterruptIn
    InterruptIn.o(i._ZN4mbed11InterruptInC1E7PinName) refers to InterruptIn.o(i._ZN4mbed11InterruptIn12_irq_handlerEj14gpio_irq_event) for mbed::InterruptIn::_irq_handler(unsigned, gpio_irq_event)
    InterruptIn.o(i._ZN4mbed11InterruptInD0Ev) refers to gpio_irq_api.o(i.gpio_irq_free) for gpio_irq_free
    InterruptIn.o(i._ZN4mbed11InterruptInD0Ev) refers to delete.o(i._ZdlPv) for operator delete (void*)
    InterruptIn.o(i._ZN4mbed11InterruptInD0Ev) refers to InterruptIn.o(.constdata__ZTVN4mbed11InterruptInE) for vtable for mbed::InterruptIn
    InterruptIn.o(i._ZN4mbed11InterruptInD1Ev) refers to gpio_irq_api.o(i.gpio_irq_free) for gpio_irq_free
    InterruptIn.o(i._ZN4mbed11InterruptInD1Ev) refers to InterruptIn.o(.constdata__ZTVN4mbed11InterruptInE) for vtable for mbed::InterruptIn
    InterruptIn.o(i._ZN4mbed11InterruptIncviEv) refers to assert.o(i.mbed_assert_internal) for mbed_assert_internal
    InterruptIn.o(i._ZN4mbed11InterruptIncviEv) refers to assert.o(.text) for __aeabi_assert
    InterruptIn.o(i._ZN4mbed11InterruptIncviEv) refers to InterruptIn.o(.constdata) for .constdata
    InterruptIn.o(.ARM.exidx) refers to InterruptIn.o(i._ZN4mbed11InterruptIn12_irq_handlerEj14gpio_irq_event) for i._ZN4mbed11InterruptIn12_irq_handlerEj14gpio_irq_event
    InterruptIn.o(.ARM.exidx) refers to InterruptIn.o(i._ZN4mbed11InterruptInC1E7PinName) for i._ZN4mbed11InterruptInC1E7PinName
    InterruptIn.o(.ARM.exidx) refers to InterruptIn.o(i._ZN4mbed11InterruptInD1Ev) for i._ZN4mbed11InterruptInD1Ev
    InterruptIn.o(.ARM.exidx) refers to InterruptIn.o(i._ZN4mbed11InterruptInD0Ev) for i._ZN4mbed11InterruptInD0Ev
    InterruptIn.o(.ARM.exidx) refers to InterruptIn.o(i._ZN4mbed11InterruptIn4readEv) for i._ZN4mbed11InterruptIn4readEv
    InterruptIn.o(.ARM.exidx) refers to InterruptIn.o(i._ZN4mbed11InterruptIncviEv) for i._ZN4mbed11InterruptIncviEv
    InterruptIn.o(.ARM.exidx) refers to InterruptIn.o(i._ZN4mbed11InterruptIn4riseEPFvvE) for i._ZN4mbed11InterruptIn4riseEPFvvE
    InterruptIn.o(.ARM.exidx) refers to InterruptIn.o(i._ZN4mbed11InterruptIn4fallEPFvvE) for i._ZN4mbed11InterruptIn4fallEPFvvE
    InterruptIn.o(.ARM.exidx) refers to InterruptIn.o(i._ZN4mbed11InterruptIn4modeE7PinMode) for i._ZN4mbed11InterruptIn4modeE7PinMode
    InterruptIn.o(.ARM.exidx) refers to InterruptIn.o(i._ZN4mbed11InterruptIn10enable_irqEv) for i._ZN4mbed11InterruptIn10enable_irqEv
    InterruptIn.o(.ARM.exidx) refers to InterruptIn.o(i._ZN4mbed11InterruptIn11disable_irqEv) for i._ZN4mbed11InterruptIn11disable_irqEv
    SPI.o(i._ZN4mbed3SPI5writeEi) refers to spi_api.o(i.spi_format) for spi_format
    SPI.o(i._ZN4mbed3SPI5writeEi) refers to spi_api.o(i.spi_frequency) for spi_frequency
    SPI.o(i._ZN4mbed3SPI5writeEi) refers to spi_api.o(i.spi_master_write) for spi_master_write
    SPI.o(i._ZN4mbed3SPI5writeEi) refers to SPI.o(.data) for .data
    SPI.o(i._ZN4mbed3SPI6aquireEv) refers to spi_api.o(i.spi_format) for spi_format
    SPI.o(i._ZN4mbed3SPI6aquireEv) refers to spi_api.o(i.spi_frequency) for spi_frequency
    SPI.o(i._ZN4mbed3SPI6aquireEv) refers to SPI.o(.data) for .data
    SPI.o(i._ZN4mbed3SPI6formatEii) refers to spi_api.o(i.spi_format) for spi_format
    SPI.o(i._ZN4mbed3SPI6formatEii) refers to spi_api.o(i.spi_frequency) for spi_frequency
    SPI.o(i._ZN4mbed3SPI6formatEii) refers to SPI.o(.data) for .data
    SPI.o(i._ZN4mbed3SPI9frequencyEi) refers to spi_api.o(i.spi_format) for spi_format
    SPI.o(i._ZN4mbed3SPI9frequencyEi) refers to spi_api.o(i.spi_frequency) for spi_frequency
    SPI.o(i._ZN4mbed3SPI9frequencyEi) refers to SPI.o(.data) for .data
    SPI.o(i._ZN4mbed3SPIC1E7PinNameS1_S1_S1_) refers to spi_api.o(i.spi_init) for spi_init
    SPI.o(i._ZN4mbed3SPIC1E7PinNameS1_S1_S1_) refers to spi_api.o(i.spi_format) for spi_format
    SPI.o(i._ZN4mbed3SPIC1E7PinNameS1_S1_S1_) refers to spi_api.o(i.spi_frequency) for spi_frequency
    SPI.o(i._ZN4mbed3SPIC1E7PinNameS1_S1_S1_) refers to SPI.o(.constdata__ZTVN4mbed3SPIE) for vtable for mbed::SPI
    SPI.o(.ARM.exidx) refers to SPI.o(i._ZN4mbed3SPIC1E7PinNameS1_S1_S1_) for i._ZN4mbed3SPIC1E7PinNameS1_S1_S1_
    SPI.o(.ARM.exidx) refers to SPI.o(i._ZN4mbed3SPI6aquireEv) for i._ZN4mbed3SPI6aquireEv
    SPI.o(.ARM.exidx) refers to SPI.o(i._ZN4mbed3SPI6formatEii) for i._ZN4mbed3SPI6formatEii
    SPI.o(.ARM.exidx) refers to SPI.o(i._ZN4mbed3SPI9frequencyEi) for i._ZN4mbed3SPI9frequencyEi
    SPI.o(.ARM.exidx) refers to SPI.o(i._ZN4mbed3SPI5writeEi) for i._ZN4mbed3SPI5writeEi
    Stream.o(i._ZN4mbed6Stream4getcEv) refers to fflush.o(.text) for fflush
    Stream.o(i._ZN4mbed6Stream4getcEv) refers to fgetc.o(i.fgetc) for fgetc
    Stream.o(i._ZN4mbed6Stream4getsEPci) refers to fflush.o(.text) for fflush
    Stream.o(i._ZN4mbed6Stream4getsEPci) refers to fgets.o(.text) for fgets
    Stream.o(i._ZN4mbed6Stream4putcEi) refers to fflush.o(.text) for fflush
    Stream.o(i._ZN4mbed6Stream4putcEi) refers to fputc.o(i.fputc) for fputc
    Stream.o(i._ZN4mbed6Stream4putsEPKc) refers to fflush.o(.text) for fflush
    Stream.o(i._ZN4mbed6Stream4putsEPKc) refers to fputs.o(.text) for fputs
    Stream.o(i._ZN4mbed6Stream5scanfEPKcz) refers to fflush.o(.text) for fflush
    Stream.o(i._ZN4mbed6Stream5scanfEPKcz) refers to vfscanf.o(.text) for vfscanf
    Stream.o(i._ZN4mbed6Stream6printfEPKcz) refers to fflush.o(.text) for fflush
    Stream.o(i._ZN4mbed6Stream6printfEPKcz) refers to c89vfprintf.o(.text) for __c89vfprintf
    Stream.o(i._ZN4mbed6StreamC2EPKc) refers to _printf_percent.o(.ARM.Collect$$_printf_percent$$00000000) for _printf_percent
    Stream.o(i._ZN4mbed6StreamC2EPKc) refers to _printf_p.o(.ARM.Collect$$_printf_percent$$00000002) for _printf_p
    Stream.o(i._ZN4mbed6StreamC2EPKc) refers to _printf_hex_int_ll_ptr.o(.text) for _printf_longlong_hex
    Stream.o(i._ZN4mbed6StreamC2EPKc) refers to FileLike.o(i._ZN4mbed8FileLikeC2EPKc) for mbed::FileLike::FileLike__sub_object(const char*)
    Stream.o(i._ZN4mbed6StreamC2EPKc) refers to __2sprintf.o(.text) for __2sprintf
    Stream.o(i._ZN4mbed6StreamC2EPKc) refers to fopen.o(.text) for fopen
    Stream.o(i._ZN4mbed6StreamC2EPKc) refers to setbuf.o(.text) for setbuf
    Stream.o(i._ZN4mbed6StreamC2EPKc) refers to Stream.o(.constdata__ZTVN4mbed6StreamE) for vtable for mbed::Stream
    Stream.o(i._ZN4mbed6StreamD0Ev) refers to fclose.o(.text) for fclose
    Stream.o(i._ZN4mbed6StreamD0Ev) refers to FileLike.o(i._ZN4mbed8FileLikeD2Ev) for mbed::FileLike::~FileLike__sub_object()
    Stream.o(i._ZN4mbed6StreamD0Ev) refers to delete.o(i._ZdlPv) for operator delete (void*)
    Stream.o(i._ZN4mbed6StreamD0Ev) refers to Stream.o(.constdata__ZTVN4mbed6StreamE) for vtable for mbed::Stream
    Stream.o(i._ZN4mbed6StreamD2Ev) refers to fclose.o(.text) for fclose
    Stream.o(i._ZN4mbed6StreamD2Ev) refers to FileLike.o(i._ZN4mbed8FileLikeD2Ev) for mbed::FileLike::~FileLike__sub_object()
    Stream.o(i._ZN4mbed6StreamD2Ev) refers to Stream.o(.constdata__ZTVN4mbed6StreamE) for vtable for mbed::Stream
    Stream.o(i._ZThn4_N4mbed6StreamD0Ev) refers to fclose.o(.text) for fclose
    Stream.o(i._ZThn4_N4mbed6StreamD0Ev) refers to FileLike.o(i._ZN4mbed8FileLikeD2Ev) for mbed::FileLike::~FileLike__sub_object()
    Stream.o(i._ZThn4_N4mbed6StreamD0Ev) refers to delete.o(i._ZdlPv) for operator delete (void*)
    Stream.o(i._ZThn4_N4mbed6StreamD0Ev) refers to Stream.o(.constdata__ZTVN4mbed6StreamE) for vtable for mbed::Stream
    Stream.o(i._ZThn4_N4mbed6StreamD1Ev) refers to fclose.o(.text) for fclose
    Stream.o(i._ZThn4_N4mbed6StreamD1Ev) refers to FileLike.o(i._ZN4mbed8FileLikeD2Ev) for mbed::FileLike::~FileLike__sub_object()
    Stream.o(i._ZThn4_N4mbed6StreamD1Ev) refers to Stream.o(.constdata__ZTVN4mbed6StreamE) for vtable for mbed::Stream
    Stream.o(.ARM.exidx) refers to Stream.o(i._ZN4mbed6StreamC2EPKc) for i._ZN4mbed6StreamC2EPKc
    Stream.o(.ARM.exidx) refers to Stream.o(i._ZN4mbed6StreamD2Ev) for i._ZN4mbed6StreamD2Ev
    Stream.o(.ARM.exidx) refers to Stream.o(i._ZN4mbed6StreamD0Ev) for i._ZN4mbed6StreamD0Ev
    Stream.o(.ARM.exidx) refers to Stream.o(i._ZThn4_N4mbed6StreamD0Ev) for i._ZThn4_N4mbed6StreamD0Ev
    Stream.o(.ARM.exidx) refers to Stream.o(i._ZThn4_N4mbed6StreamD1Ev) for i._ZThn4_N4mbed6StreamD1Ev
    Stream.o(.ARM.exidx) refers to Stream.o(i._ZN4mbed6Stream4putcEi) for i._ZN4mbed6Stream4putcEi
    Stream.o(.ARM.exidx) refers to Stream.o(i._ZN4mbed6Stream4putsEPKc) for i._ZN4mbed6Stream4putsEPKc
    Stream.o(.ARM.exidx) refers to Stream.o(i._ZN4mbed6Stream4getcEv) for i._ZN4mbed6Stream4getcEv
    Stream.o(.ARM.exidx) refers to Stream.o(i._ZN4mbed6Stream4getsEPci) for i._ZN4mbed6Stream4getsEPci
    Stream.o(.ARM.exidx) refers to Stream.o(i._ZN4mbed6Stream6printfEPKcz) for i._ZN4mbed6Stream6printfEPKcz
    Stream.o(.ARM.exidx) refers to Stream.o(i._ZN4mbed6Stream5scanfEPKcz) for i._ZN4mbed6Stream5scanfEPKcz
    Stream.o(.ARM.exidx) refers to Stream.o(i._ZN4mbed6Stream5closeEv) for i._ZN4mbed6Stream5closeEv
    Stream.o(.ARM.exidx) refers to Stream.o(i._ZN4mbed6Stream5writeEPKvj) for i._ZN4mbed6Stream5writeEPKvj
    Stream.o(.ARM.exidx) refers to Stream.o(i._ZN4mbed6Stream4readEPvj) for i._ZN4mbed6Stream4readEPvj
    Stream.o(.ARM.exidx) refers to Stream.o(i._ZN4mbed6Stream5lseekEli) for i._ZN4mbed6Stream5lseekEli
    Stream.o(.ARM.exidx) refers to Stream.o(i._ZN4mbed6Stream6isattyEv) for i._ZN4mbed6Stream6isattyEv
    Stream.o(.ARM.exidx) refers to Stream.o(i._ZN4mbed6Stream5fsyncEv) for i._ZN4mbed6Stream5fsyncEv
    Stream.o(.ARM.exidx) refers to Stream.o(i._ZN4mbed6Stream4flenEv) for i._ZN4mbed6Stream4flenEv
    assert.o(i.mbed_assert_internal) refers to _printf_percent.o(.ARM.Collect$$_printf_percent$$00000000) for _printf_percent
    assert.o(i.mbed_assert_internal) refers to _printf_d.o(.ARM.Collect$$_printf_percent$$00000009) for _printf_d
    assert.o(i.mbed_assert_internal) refers to _printf_s.o(.ARM.Collect$$_printf_percent$$00000014) for _printf_s
    assert.o(i.mbed_assert_internal) refers to _printf_dec.o(.text) for _printf_int_dec
    assert.o(i.mbed_assert_internal) refers to _printf_str.o(.text) for _printf_str
    assert.o(i.mbed_assert_internal) refers to __2fprintf.o(.text) for __2fprintf
    assert.o(i.mbed_assert_internal) refers to board.o(i.mbed_die) for mbed_die
    assert.o(i.mbed_assert_internal) refers to stdio_streams.o(.bss) for __stderr
    gpio.o(i.gpio_init_in) refers to gpio_api.o(i.gpio_init) for gpio_init
    gpio.o(i.gpio_init_in) refers to gpio_api.o(i.gpio_dir) for gpio_dir
    gpio.o(i.gpio_init_in) refers to gpio_api.o(i.gpio_mode) for gpio_mode
    gpio.o(i.gpio_init_in_ex) refers to gpio_api.o(i.gpio_init) for gpio_init
    gpio.o(i.gpio_init_in_ex) refers to gpio_api.o(i.gpio_dir) for gpio_dir
    gpio.o(i.gpio_init_in_ex) refers to gpio_api.o(i.gpio_mode) for gpio_mode
    gpio.o(i.gpio_init_inout) refers to gpio_api.o(i.gpio_init) for gpio_init
    gpio.o(i.gpio_init_inout) refers to gpio_api.o(i.gpio_dir) for gpio_dir
    gpio.o(i.gpio_init_inout) refers to gpio_api.o(i.gpio_mode) for gpio_mode
    gpio.o(i.gpio_init_inout) refers to assert.o(i.mbed_assert_internal) for mbed_assert_internal
    gpio.o(i.gpio_init_inout) refers to fsl_gpio_hal.o(i.gpio_hal_write_pin_output) for gpio_hal_write_pin_output
    gpio.o(i.gpio_init_inout) refers to gpio.o(.constdata) for .constdata
    gpio.o(i.gpio_init_out) refers to gpio_api.o(i.gpio_init) for gpio_init
    gpio.o(i.gpio_init_out) refers to assert.o(i.mbed_assert_internal) for mbed_assert_internal
    gpio.o(i.gpio_init_out) refers to fsl_gpio_hal.o(i.gpio_hal_write_pin_output) for gpio_hal_write_pin_output
    gpio.o(i.gpio_init_out) refers to gpio_api.o(i.gpio_dir) for gpio_dir
    gpio.o(i.gpio_init_out) refers to gpio_api.o(i.gpio_mode) for gpio_mode
    gpio.o(i.gpio_init_out) refers to gpio.o(.constdata) for .constdata
    gpio.o(i.gpio_init_out_ex) refers to gpio_api.o(i.gpio_init) for gpio_init
    gpio.o(i.gpio_init_out_ex) refers to assert.o(i.mbed_assert_internal) for mbed_assert_internal
    gpio.o(i.gpio_init_out_ex) refers to fsl_gpio_hal.o(i.gpio_hal_write_pin_output) for gpio_hal_write_pin_output
    gpio.o(i.gpio_init_out_ex) refers to gpio_api.o(i.gpio_dir) for gpio_dir
    gpio.o(i.gpio_init_out_ex) refers to gpio_api.o(i.gpio_mode) for gpio_mode
    gpio.o(i.gpio_init_out_ex) refers to gpio.o(.constdata) for .constdata
    wait_api.o(i.wait) refers to us_ticker.o(i.us_ticker_read) for us_ticker_read
    wait_api.o(i.wait_ms) refers to us_ticker.o(i.us_ticker_read) for us_ticker_read
    wait_api.o(i.wait_us) refers to us_ticker.o(i.us_ticker_read) for us_ticker_read
    fsl_clock_manager.o(i.clock_manager_get_frequency) refers to fsl_clock_manager.o(i.clock_manager_get_frequency_by_name) for clock_manager_get_frequency_by_name
    fsl_clock_manager.o(i.clock_manager_get_frequency) refers to fsl_clock_manager.o(.data) for .data
    fsl_clock_manager.o(i.clock_manager_get_frequency_by_name) refers to fsl_mcg_hal.o(i.clock_hal_get_fllclk) for clock_hal_get_fllclk
    fsl_clock_manager.o(i.clock_manager_get_frequency_by_name) refers to fsl_mcg_hal.o(i.clock_hal_get_pll0clk) for clock_hal_get_pll0clk
    fsl_clock_manager.o(i.clock_manager_get_frequency_by_name) refers to fsl_mcg_hal.o(i.clock_hal_get_outclk) for clock_hal_get_outclk
    fsl_clock_manager.o(i.clock_manager_get_frequency_by_name) refers to fsl_mcg_hal.o(i.clock_hal_get_irclk) for clock_hal_get_irclk
    fsl_clock_manager.o(i.clock_manager_get_frequency_by_name) refers to fsl_clock_manager.o(i.clock_manager_get_system_clock) for clock_manager_get_system_clock
    fsl_clock_manager.o(i.clock_manager_get_frequency_by_source) refers to assert.o(.text) for __aeabi_assert
    fsl_clock_manager.o(i.clock_manager_get_frequency_by_source) refers to fsl_sim_hal.o(i.clock_hal_get_clock_source) for clock_hal_get_clock_source
    fsl_clock_manager.o(i.clock_manager_get_frequency_by_source) refers to fsl_clock_manager.o(i.clock_manager_get_frequency_by_name) for clock_manager_get_frequency_by_name
    fsl_clock_manager.o(i.clock_manager_get_frequency_by_source) refers to fsl_sim_hal.o(i.clock_hal_get_clock_divider) for clock_hal_get_clock_divider
    fsl_clock_manager.o(i.clock_manager_get_frequency_by_source) refers to fsl_clock_manager.o(.constdata) for .constdata
    fsl_clock_manager.o(i.clock_manager_get_frequency_by_source) refers to fsl_clock_manager.o(.data) for .data
    fsl_clock_manager.o(i.clock_manager_get_frequency_by_source) refers to fsl_sim_clock_module_names_K64F12.o(.data) for kSimClockSourceValueTable
    fsl_clock_manager.o(i.clock_manager_get_gate) refers to fsl_sim_hal.o(i.clock_hal_get_gate) for clock_hal_get_gate
    fsl_clock_manager.o(i.clock_manager_get_gate) refers to fsl_clock_manager.o(.data) for .data
    fsl_clock_manager.o(i.clock_manager_get_system_clock) refers to fsl_clock_manager.o(i.clock_manager_get_frequency_by_name) for clock_manager_get_frequency_by_name
    fsl_clock_manager.o(i.clock_manager_get_system_clock) refers to fsl_mcg_hal.o(i.clock_hal_get_outclk) for clock_hal_get_outclk
    fsl_clock_manager.o(i.clock_manager_get_system_clock) refers to fsl_sim_hal.o(i.clock_hal_get_clock_divider) for clock_hal_get_clock_divider
    fsl_clock_manager.o(i.clock_manager_get_system_clock) refers to fsl_sim_clock_module_names_K64F12.o(.constdata) for kSimClockNameConfigTable
    fsl_clock_manager.o(i.clock_manager_set_gate) refers to fsl_sim_hal.o(i.clock_hal_set_gate) for clock_hal_set_gate
    fsl_clock_manager.o(i.clock_manager_set_gate) refers to fsl_clock_manager.o(.data) for .data
    fsl_ftm_hal.o(i.ftm_hal_disable_pwm_mode) refers to assert.o(.text) for __aeabi_assert
    fsl_ftm_hal.o(i.ftm_hal_disable_pwm_mode) refers to fsl_ftm_hal.o(i.ftm_hal_enable_dual_channel_combine) for ftm_hal_enable_dual_channel_combine
    fsl_ftm_hal.o(i.ftm_hal_disable_pwm_mode) refers to fsl_ftm_hal.o(.constdata) for .constdata
    fsl_ftm_hal.o(i.ftm_hal_enable_channel_trigger) refers to assert.o(.text) for __aeabi_assert
    fsl_ftm_hal.o(i.ftm_hal_enable_channel_trigger) refers to fsl_ftm_hal.o(.constdata) for .constdata
    fsl_ftm_hal.o(i.ftm_hal_enable_dual_channel_combine) refers to assert.o(.text) for __aeabi_assert
    fsl_ftm_hal.o(i.ftm_hal_enable_dual_channel_combine) refers to fsl_ftm_hal.o(.constdata) for .constdata
    fsl_ftm_hal.o(i.ftm_hal_enable_pwm_mode) refers to assert.o(.text) for __aeabi_assert
    fsl_ftm_hal.o(i.ftm_hal_enable_pwm_mode) refers to fsl_ftm_hal.o(i.ftm_hal_enable_dual_channel_combine) for ftm_hal_enable_dual_channel_combine
    fsl_ftm_hal.o(i.ftm_hal_enable_pwm_mode) refers to fsl_ftm_hal.o(.constdata) for .constdata
    fsl_ftm_hal.o(i.ftm_hal_init) refers to fsl_ftm_hal.o(i.ftm_hal_enable_pwm_mode) for ftm_hal_enable_pwm_mode
    fsl_ftm_hal.o(i.ftm_hal_init) refers to assert.o(.text) for __aeabi_assert
    fsl_ftm_hal.o(i.ftm_hal_init) refers to fsl_ftm_hal.o(.constdata) for .constdata
    fsl_ftm_hal.o(i.ftm_hal_reset) refers to assert.o(.text) for __aeabi_assert
    fsl_ftm_hal.o(i.ftm_hal_reset) refers to fsl_ftm_hal.o(.constdata) for .constdata
    fsl_ftm_hal.o(i.ftm_hal_set_channel_input_capture_filter) refers to assert.o(.text) for __aeabi_assert
    fsl_ftm_hal.o(i.ftm_hal_set_channel_input_capture_filter) refers to fsl_ftm_hal.o(.constdata) for .constdata
    fsl_ftm_hal.o(i.ftm_hal_set_hardware_trigger) refers to assert.o(.text) for __aeabi_assert
    fsl_ftm_hal.o(i.ftm_hal_set_hardware_trigger) refers to fsl_ftm_hal.o(.constdata) for .constdata
    fsl_uart_hal_common_configurations.o(i.uart_hal_configure_bit_count_per_char) refers to assert.o(.text) for __aeabi_assert
    fsl_uart_hal_common_configurations.o(i.uart_hal_configure_bit_count_per_char) refers to fsl_uart_hal_common_configurations.o(.constdata) for .constdata
    fsl_uart_hal_common_configurations.o(i.uart_hal_configure_parity_mode) refers to assert.o(.text) for __aeabi_assert
    fsl_uart_hal_common_configurations.o(i.uart_hal_configure_parity_mode) refers to fsl_uart_hal_common_configurations.o(.constdata) for .constdata
    fsl_uart_hal_common_configurations.o(i.uart_hal_configure_stop_bit_count) refers to assert.o(.text) for __aeabi_assert
    fsl_uart_hal_common_configurations.o(i.uart_hal_configure_stop_bit_count) refers to fsl_uart_hal_common_configurations.o(.constdata) for .constdata
    fsl_uart_hal_common_configurations.o(i.uart_hal_configure_tx_rx_inversion) refers to assert.o(.text) for __aeabi_assert
    fsl_uart_hal_common_configurations.o(i.uart_hal_configure_tx_rx_inversion) refers to fsl_uart_hal_common_configurations.o(.constdata) for .constdata
    fsl_uart_hal_common_configurations.o(i.uart_hal_disable_receiver) refers to assert.o(.text) for __aeabi_assert
    fsl_uart_hal_common_configurations.o(i.uart_hal_disable_receiver) refers to fsl_uart_hal_common_configurations.o(.constdata) for .constdata
    fsl_uart_hal_common_configurations.o(i.uart_hal_disable_transmitter) refers to assert.o(.text) for __aeabi_assert
    fsl_uart_hal_common_configurations.o(i.uart_hal_disable_transmitter) refers to fsl_uart_hal_common_configurations.o(.constdata) for .constdata
    fsl_uart_hal_common_configurations.o(i.uart_hal_enable_receiver) refers to assert.o(.text) for __aeabi_assert
    fsl_uart_hal_common_configurations.o(i.uart_hal_enable_receiver) refers to fsl_uart_hal_common_configurations.o(.constdata) for .constdata
    fsl_uart_hal_common_configurations.o(i.uart_hal_enable_transmitter) refers to assert.o(.text) for __aeabi_assert
    fsl_uart_hal_common_configurations.o(i.uart_hal_enable_transmitter) refers to fsl_uart_hal_common_configurations.o(.constdata) for .constdata
    fsl_uart_hal_common_configurations.o(i.uart_hal_init) refers to assert.o(.text) for __aeabi_assert
    fsl_uart_hal_common_configurations.o(i.uart_hal_init) refers to fsl_uart_hal_common_configurations.o(.constdata) for .constdata
    fsl_uart_hal_common_configurations.o(i.uart_hal_is_receiver_enabled) refers to assert.o(.text) for __aeabi_assert
    fsl_uart_hal_common_configurations.o(i.uart_hal_is_receiver_enabled) refers to fsl_uart_hal_common_configurations.o(.constdata) for .constdata
    fsl_uart_hal_common_configurations.o(i.uart_hal_is_transmitter_enabled) refers to assert.o(.text) for __aeabi_assert
    fsl_uart_hal_common_configurations.o(i.uart_hal_is_transmitter_enabled) refers to fsl_uart_hal_common_configurations.o(.constdata) for .constdata
    fsl_uart_hal_common_configurations.o(i.uart_hal_set_baud_rate) refers to assert.o(.text) for __aeabi_assert
    fsl_uart_hal_common_configurations.o(i.uart_hal_set_baud_rate) refers to fsl_uart_hal_common_configurations.o(.constdata) for .constdata
    fsl_uart_hal_common_configurations.o(i.uart_hal_set_baud_rate_divisor) refers to assert.o(.text) for __aeabi_assert
    fsl_uart_hal_common_configurations.o(i.uart_hal_set_baud_rate_divisor) refers to fsl_uart_hal_common_configurations.o(.constdata) for .constdata
    fsl_uart_hal_common_configurations.o(i.uart_hal_set_baud_rate_fine_adjust) refers to assert.o(.text) for __aeabi_assert
    fsl_uart_hal_common_configurations.o(i.uart_hal_set_baud_rate_fine_adjust) refers to fsl_uart_hal_common_configurations.o(.constdata) for .constdata
    fsl_uart_hal_special_feature_configurations.o(i.uart_hal_configure_idle_line_detect) refers to assert.o(.text) for __aeabi_assert
    fsl_uart_hal_special_feature_configurations.o(i.uart_hal_configure_idle_line_detect) refers to fsl_uart_hal_special_feature_configurations.o(.constdata) for .constdata
    fsl_uart_hal_special_feature_configurations.o(i.uart_hal_configure_infrared_operation) refers to assert.o(.text) for __aeabi_assert
    fsl_uart_hal_special_feature_configurations.o(i.uart_hal_configure_infrared_operation) refers to fsl_uart_hal_special_feature_configurations.o(.constdata) for .constdata
    fsl_uart_hal_special_feature_configurations.o(i.uart_hal_configure_loopback_mode) refers to assert.o(.text) for __aeabi_assert
    fsl_uart_hal_special_feature_configurations.o(i.uart_hal_configure_loopback_mode) refers to fsl_uart_hal_special_feature_configurations.o(.constdata) for .constdata
    fsl_uart_hal_special_feature_configurations.o(i.uart_hal_configure_match_address_operation) refers to assert.o(.text) for __aeabi_assert
    fsl_uart_hal_special_feature_configurations.o(i.uart_hal_configure_match_address_operation) refers to fsl_uart_hal_special_feature_configurations.o(.constdata) for .constdata
    fsl_uart_hal_special_feature_configurations.o(i.uart_hal_configure_receive_resync_disable_operation) refers to assert.o(.text) for __aeabi_assert
    fsl_uart_hal_special_feature_configurations.o(i.uart_hal_configure_receive_resync_disable_operation) refers to fsl_uart_hal_special_feature_configurations.o(.constdata) for .constdata
    fsl_uart_hal_special_feature_configurations.o(i.uart_hal_configure_send_msb_first_operation) refers to assert.o(.text) for __aeabi_assert
    fsl_uart_hal_special_feature_configurations.o(i.uart_hal_configure_send_msb_first_operation) refers to fsl_uart_hal_special_feature_configurations.o(.constdata) for .constdata
    fsl_uart_hal_special_feature_configurations.o(i.uart_hal_configure_singlewire_mode) refers to assert.o(.text) for __aeabi_assert
    fsl_uart_hal_special_feature_configurations.o(i.uart_hal_configure_singlewire_mode) refers to fsl_uart_hal_special_feature_configurations.o(.constdata) for .constdata
    fsl_uart_hal_special_feature_configurations.o(i.uart_hal_configure_transmitter_rts_polarity) refers to assert.o(.text) for __aeabi_assert
    fsl_uart_hal_special_feature_configurations.o(i.uart_hal_configure_transmitter_rts_polarity) refers to fsl_uart_hal_special_feature_configurations.o(.constdata) for .constdata
    fsl_uart_hal_special_feature_configurations.o(i.uart_hal_configure_txdir_in_singlewire_mode) refers to assert.o(.text) for __aeabi_assert
    fsl_uart_hal_special_feature_configurations.o(i.uart_hal_configure_txdir_in_singlewire_mode) refers to fsl_uart_hal_special_feature_configurations.o(.constdata) for .constdata
    fsl_uart_hal_special_feature_configurations.o(i.uart_hal_configure_wait_mode_operation) refers to assert.o(.text) for __aeabi_assert
    fsl_uart_hal_special_feature_configurations.o(i.uart_hal_configure_wait_mode_operation) refers to fsl_uart_hal_special_feature_configurations.o(.constdata) for .constdata
    fsl_uart_hal_special_feature_configurations.o(i.uart_hal_disable_receiver_rts) refers to assert.o(.text) for __aeabi_assert
    fsl_uart_hal_special_feature_configurations.o(i.uart_hal_disable_receiver_rts) refers to fsl_uart_hal_special_feature_configurations.o(.constdata) for .constdata
    fsl_uart_hal_special_feature_configurations.o(i.uart_hal_disable_transmitter_cts) refers to assert.o(.text) for __aeabi_assert
    fsl_uart_hal_special_feature_configurations.o(i.uart_hal_disable_transmitter_cts) refers to fsl_uart_hal_special_feature_configurations.o(.constdata) for .constdata
    fsl_uart_hal_special_feature_configurations.o(i.uart_hal_disable_transmitter_rts) refers to assert.o(.text) for __aeabi_assert
    fsl_uart_hal_special_feature_configurations.o(i.uart_hal_disable_transmitter_rts) refers to fsl_uart_hal_special_feature_configurations.o(.constdata) for .constdata
    fsl_uart_hal_special_feature_configurations.o(i.uart_hal_enable_receiver_rts) refers to assert.o(.text) for __aeabi_assert
    fsl_uart_hal_special_feature_configurations.o(i.uart_hal_enable_receiver_rts) refers to fsl_uart_hal_special_feature_configurations.o(.constdata) for .constdata
    fsl_uart_hal_special_feature_configurations.o(i.uart_hal_enable_transmitter_cts) refers to assert.o(.text) for __aeabi_assert
    fsl_uart_hal_special_feature_configurations.o(i.uart_hal_enable_transmitter_cts) refers to fsl_uart_hal_special_feature_configurations.o(.constdata) for .constdata
    fsl_uart_hal_special_feature_configurations.o(i.uart_hal_enable_transmitter_rts) refers to assert.o(.text) for __aeabi_assert
    fsl_uart_hal_special_feature_configurations.o(i.uart_hal_enable_transmitter_rts) refers to fsl_uart_hal_special_feature_configurations.o(.constdata) for .constdata
    fsl_uart_hal_special_feature_configurations.o(i.uart_hal_get_receiver_wakeup_method) refers to assert.o(.text) for __aeabi_assert
    fsl_uart_hal_special_feature_configurations.o(i.uart_hal_get_receiver_wakeup_method) refers to fsl_uart_hal_special_feature_configurations.o(.constdata) for .constdata
    fsl_uart_hal_special_feature_configurations.o(i.uart_hal_get_wait_mode_operation_config) refers to assert.o(.text) for __aeabi_assert
    fsl_uart_hal_special_feature_configurations.o(i.uart_hal_get_wait_mode_operation_config) refers to fsl_uart_hal_special_feature_configurations.o(.constdata) for .constdata
    fsl_uart_hal_special_feature_configurations.o(i.uart_hal_is_receiver_in_standby) refers to assert.o(.text) for __aeabi_assert
    fsl_uart_hal_special_feature_configurations.o(i.uart_hal_is_receiver_in_standby) refers to fsl_uart_hal_special_feature_configurations.o(.constdata) for .constdata
    fsl_uart_hal_special_feature_configurations.o(i.uart_hal_put_receiver_in_normal_mode) refers to assert.o(.text) for __aeabi_assert
    fsl_uart_hal_special_feature_configurations.o(i.uart_hal_put_receiver_in_normal_mode) refers to fsl_uart_hal_special_feature_configurations.o(.constdata) for .constdata
    fsl_uart_hal_special_feature_configurations.o(i.uart_hal_put_receiver_in_standby_mode) refers to assert.o(.text) for __aeabi_assert
    fsl_uart_hal_special_feature_configurations.o(i.uart_hal_put_receiver_in_standby_mode) refers to fsl_uart_hal_status_flags.o(i.uart_hal_is_receiver_active) for uart_hal_is_receiver_active
    fsl_uart_hal_special_feature_configurations.o(i.uart_hal_put_receiver_in_standby_mode) refers to fsl_uart_hal_special_feature_configurations.o(.constdata) for .constdata
    fsl_uart_hal_special_feature_configurations.o(i.uart_hal_queue_break_char_to_send) refers to assert.o(.text) for __aeabi_assert
    fsl_uart_hal_special_feature_configurations.o(i.uart_hal_queue_break_char_to_send) refers to fsl_uart_hal_special_feature_configurations.o(.constdata) for .constdata
    fsl_uart_hal_special_feature_configurations.o(i.uart_hal_select_receiver_wakeup_method) refers to assert.o(.text) for __aeabi_assert
    fsl_uart_hal_special_feature_configurations.o(i.uart_hal_select_receiver_wakeup_method) refers to fsl_uart_hal_special_feature_configurations.o(.constdata) for .constdata
    fsl_uart_hal_special_feature_configurations.o(i.uart_hal_set_break_char_detect_length) refers to assert.o(.text) for __aeabi_assert
    fsl_uart_hal_special_feature_configurations.o(i.uart_hal_set_break_char_detect_length) refers to fsl_uart_hal_special_feature_configurations.o(.constdata) for .constdata
    fsl_uart_hal_special_feature_configurations.o(i.uart_hal_set_break_char_transmit_length) refers to assert.o(.text) for __aeabi_assert
    fsl_uart_hal_special_feature_configurations.o(i.uart_hal_set_break_char_transmit_length) refers to fsl_uart_hal_special_feature_configurations.o(.constdata) for .constdata
    fsl_uart_hal_status_flags.o(i.uart_hal_clear_all_non_autoclear_status_flags) refers to assert.o(.text) for __aeabi_assert
    fsl_uart_hal_status_flags.o(i.uart_hal_clear_all_non_autoclear_status_flags) refers to fsl_uart_hal_status_flags.o(i.uart_hal_clear_status_flag) for uart_hal_clear_status_flag
    fsl_uart_hal_status_flags.o(i.uart_hal_clear_all_non_autoclear_status_flags) refers to fsl_uart_hal_status_flags.o(.constdata) for .constdata
    fsl_uart_hal_status_flags.o(i.uart_hal_clear_status_flag) refers to assert.o(.text) for __aeabi_assert
    fsl_uart_hal_status_flags.o(i.uart_hal_clear_status_flag) refers to fsl_uart_hal_status_flags.o(.constdata) for .constdata
    fsl_uart_hal_status_flags.o(i.uart_hal_get_all_status_flag) refers to assert.o(.text) for __aeabi_assert
    fsl_uart_hal_status_flags.o(i.uart_hal_get_all_status_flag) refers to fsl_uart_hal_status_flags.o(.constdata) for .constdata
    fsl_uart_hal_status_flags.o(i.uart_hal_is_frame_error_detected) refers to assert.o(.text) for __aeabi_assert
    fsl_uart_hal_status_flags.o(i.uart_hal_is_frame_error_detected) refers to fsl_uart_hal_status_flags.o(.constdata) for .constdata
    fsl_uart_hal_status_flags.o(i.uart_hal_is_idle_line_detected) refers to assert.o(.text) for __aeabi_assert
    fsl_uart_hal_status_flags.o(i.uart_hal_is_idle_line_detected) refers to fsl_uart_hal_status_flags.o(.constdata) for .constdata
    fsl_uart_hal_status_flags.o(i.uart_hal_is_line_break_detected) refers to assert.o(.text) for __aeabi_assert
    fsl_uart_hal_status_flags.o(i.uart_hal_is_line_break_detected) refers to fsl_uart_hal_status_flags.o(.constdata) for .constdata
    fsl_uart_hal_status_flags.o(i.uart_hal_is_noise_detected) refers to assert.o(.text) for __aeabi_assert
    fsl_uart_hal_status_flags.o(i.uart_hal_is_noise_detected) refers to fsl_uart_hal_status_flags.o(.constdata) for .constdata
    fsl_uart_hal_status_flags.o(i.uart_hal_is_parity_error_detected) refers to assert.o(.text) for __aeabi_assert
    fsl_uart_hal_status_flags.o(i.uart_hal_is_parity_error_detected) refers to fsl_uart_hal_status_flags.o(.constdata) for .constdata
    fsl_uart_hal_status_flags.o(i.uart_hal_is_receive_active_edge_detected) refers to assert.o(.text) for __aeabi_assert
    fsl_uart_hal_status_flags.o(i.uart_hal_is_receive_active_edge_detected) refers to fsl_uart_hal_status_flags.o(.constdata) for .constdata
    fsl_uart_hal_status_flags.o(i.uart_hal_is_receive_data_register_full) refers to assert.o(.text) for __aeabi_assert
    fsl_uart_hal_status_flags.o(i.uart_hal_is_receive_data_register_full) refers to fsl_uart_hal_status_flags.o(.constdata) for .constdata
    fsl_uart_hal_status_flags.o(i.uart_hal_is_receive_overrun_detected) refers to assert.o(.text) for __aeabi_assert
    fsl_uart_hal_status_flags.o(i.uart_hal_is_receive_overrun_detected) refers to fsl_uart_hal_status_flags.o(.constdata) for .constdata
    fsl_uart_hal_status_flags.o(i.uart_hal_is_receiver_active) refers to assert.o(.text) for __aeabi_assert
    fsl_uart_hal_status_flags.o(i.uart_hal_is_receiver_active) refers to fsl_uart_hal_status_flags.o(.constdata) for .constdata
    fsl_uart_hal_status_flags.o(i.uart_hal_is_transmission_complete) refers to assert.o(.text) for __aeabi_assert
    fsl_uart_hal_status_flags.o(i.uart_hal_is_transmission_complete) refers to fsl_uart_hal_status_flags.o(.constdata) for .constdata
    fsl_uart_hal_status_flags.o(i.uart_hal_is_transmit_data_register_empty) refers to assert.o(.text) for __aeabi_assert
    fsl_uart_hal_status_flags.o(i.uart_hal_is_transmit_data_register_empty) refers to fsl_uart_hal_status_flags.o(.constdata) for .constdata
    fsl_uart_hal_interrupts_and_dma.o(i.uart_hal_configure_dma) refers to assert.o(.text) for __aeabi_assert
    fsl_uart_hal_interrupts_and_dma.o(i.uart_hal_configure_dma) refers to fsl_uart_hal_interrupts_and_dma.o(.constdata) for .constdata
    fsl_uart_hal_interrupts_and_dma.o(i.uart_hal_configure_interrupts) refers to assert.o(.text) for __aeabi_assert
    fsl_uart_hal_interrupts_and_dma.o(i.uart_hal_configure_interrupts) refers to fsl_uart_hal_interrupts_and_dma.o(.constdata) for .constdata
    fsl_uart_hal_interrupts_and_dma.o(i.uart_hal_disable_break_detect_interrupt) refers to assert.o(.text) for __aeabi_assert
    fsl_uart_hal_interrupts_and_dma.o(i.uart_hal_disable_break_detect_interrupt) refers to fsl_uart_hal_interrupts_and_dma.o(.constdata) for .constdata
    fsl_uart_hal_interrupts_and_dma.o(i.uart_hal_disable_framing_error_interrupt) refers to assert.o(.text) for __aeabi_assert
    fsl_uart_hal_interrupts_and_dma.o(i.uart_hal_disable_framing_error_interrupt) refers to fsl_uart_hal_interrupts_and_dma.o(.constdata) for .constdata
    fsl_uart_hal_interrupts_and_dma.o(i.uart_hal_disable_idle_line_interrupt) refers to assert.o(.text) for __aeabi_assert
    fsl_uart_hal_interrupts_and_dma.o(i.uart_hal_disable_idle_line_interrupt) refers to fsl_uart_hal_interrupts_and_dma.o(.constdata) for .constdata
    fsl_uart_hal_interrupts_and_dma.o(i.uart_hal_disable_noise_error_interrupt) refers to assert.o(.text) for __aeabi_assert
    fsl_uart_hal_interrupts_and_dma.o(i.uart_hal_disable_noise_error_interrupt) refers to fsl_uart_hal_interrupts_and_dma.o(.constdata) for .constdata
    fsl_uart_hal_interrupts_and_dma.o(i.uart_hal_disable_parity_error_interrupt) refers to assert.o(.text) for __aeabi_assert
    fsl_uart_hal_interrupts_and_dma.o(i.uart_hal_disable_parity_error_interrupt) refers to fsl_uart_hal_interrupts_and_dma.o(.constdata) for .constdata
    fsl_uart_hal_interrupts_and_dma.o(i.uart_hal_disable_rx_active_edge_interrupt) refers to assert.o(.text) for __aeabi_assert
    fsl_uart_hal_interrupts_and_dma.o(i.uart_hal_disable_rx_active_edge_interrupt) refers to fsl_uart_hal_interrupts_and_dma.o(.constdata) for .constdata
    fsl_uart_hal_interrupts_and_dma.o(i.uart_hal_disable_rx_data_register_full_interrupt) refers to assert.o(.text) for __aeabi_assert
    fsl_uart_hal_interrupts_and_dma.o(i.uart_hal_disable_rx_data_register_full_interrupt) refers to fsl_uart_hal_interrupts_and_dma.o(.constdata) for .constdata
    fsl_uart_hal_interrupts_and_dma.o(i.uart_hal_disable_rx_overrun_interrupt) refers to assert.o(.text) for __aeabi_assert
    fsl_uart_hal_interrupts_and_dma.o(i.uart_hal_disable_rx_overrun_interrupt) refers to fsl_uart_hal_interrupts_and_dma.o(.constdata) for .constdata
    fsl_uart_hal_interrupts_and_dma.o(i.uart_hal_disable_transmission_complete_interrupt) refers to assert.o(.text) for __aeabi_assert
    fsl_uart_hal_interrupts_and_dma.o(i.uart_hal_disable_transmission_complete_interrupt) refers to fsl_uart_hal_interrupts_and_dma.o(.constdata) for .constdata
    fsl_uart_hal_interrupts_and_dma.o(i.uart_hal_disable_tx_data_register_empty_interrupt) refers to assert.o(.text) for __aeabi_assert
    fsl_uart_hal_interrupts_and_dma.o(i.uart_hal_disable_tx_data_register_empty_interrupt) refers to fsl_uart_hal_interrupts_and_dma.o(.constdata) for .constdata
    fsl_uart_hal_interrupts_and_dma.o(i.uart_hal_enable_break_detect_interrupt) refers to assert.o(.text) for __aeabi_assert
    fsl_uart_hal_interrupts_and_dma.o(i.uart_hal_enable_break_detect_interrupt) refers to fsl_uart_hal_interrupts_and_dma.o(.constdata) for .constdata
    fsl_uart_hal_interrupts_and_dma.o(i.uart_hal_enable_framing_error_interrupt) refers to assert.o(.text) for __aeabi_assert
    fsl_uart_hal_interrupts_and_dma.o(i.uart_hal_enable_framing_error_interrupt) refers to fsl_uart_hal_interrupts_and_dma.o(.constdata) for .constdata
    fsl_uart_hal_interrupts_and_dma.o(i.uart_hal_enable_idle_line_interrupt) refers to assert.o(.text) for __aeabi_assert
    fsl_uart_hal_interrupts_and_dma.o(i.uart_hal_enable_idle_line_interrupt) refers to fsl_uart_hal_interrupts_and_dma.o(.constdata) for .constdata
    fsl_uart_hal_interrupts_and_dma.o(i.uart_hal_enable_noise_error_interrupt) refers to assert.o(.text) for __aeabi_assert
    fsl_uart_hal_interrupts_and_dma.o(i.uart_hal_enable_noise_error_interrupt) refers to fsl_uart_hal_interrupts_and_dma.o(.constdata) for .constdata
    fsl_uart_hal_interrupts_and_dma.o(i.uart_hal_enable_parity_error_interrupt) refers to assert.o(.text) for __aeabi_assert
    fsl_uart_hal_interrupts_and_dma.o(i.uart_hal_enable_parity_error_interrupt) refers to fsl_uart_hal_interrupts_and_dma.o(.constdata) for .constdata
    fsl_uart_hal_interrupts_and_dma.o(i.uart_hal_enable_rx_active_edge_interrupt) refers to assert.o(.text) for __aeabi_assert
    fsl_uart_hal_interrupts_and_dma.o(i.uart_hal_enable_rx_active_edge_interrupt) refers to fsl_uart_hal_interrupts_and_dma.o(.constdata) for .constdata
    fsl_uart_hal_interrupts_and_dma.o(i.uart_hal_enable_rx_data_register_full_interrupt) refers to assert.o(.text) for __aeabi_assert
    fsl_uart_hal_interrupts_and_dma.o(i.uart_hal_enable_rx_data_register_full_interrupt) refers to fsl_uart_hal_interrupts_and_dma.o(.constdata) for .constdata
    fsl_uart_hal_interrupts_and_dma.o(i.uart_hal_enable_rx_overrun_interrupt) refers to assert.o(.text) for __aeabi_assert
    fsl_uart_hal_interrupts_and_dma.o(i.uart_hal_enable_rx_overrun_interrupt) refers to fsl_uart_hal_interrupts_and_dma.o(.constdata) for .constdata
    fsl_uart_hal_interrupts_and_dma.o(i.uart_hal_enable_transmission_complete_interrupt) refers to assert.o(.text) for __aeabi_assert
    fsl_uart_hal_interrupts_and_dma.o(i.uart_hal_enable_transmission_complete_interrupt) refers to fsl_uart_hal_interrupts_and_dma.o(.constdata) for .constdata
    fsl_uart_hal_interrupts_and_dma.o(i.uart_hal_enable_tx_data_register_empty_interrupt) refers to assert.o(.text) for __aeabi_assert
    fsl_uart_hal_interrupts_and_dma.o(i.uart_hal_enable_tx_data_register_empty_interrupt) refers to fsl_uart_hal_interrupts_and_dma.o(.constdata) for .constdata
    fsl_uart_hal_interrupts_and_dma.o(i.uart_hal_is_break_detect_interrupt_enabled) refers to assert.o(.text) for __aeabi_assert
    fsl_uart_hal_interrupts_and_dma.o(i.uart_hal_is_break_detect_interrupt_enabled) refers to fsl_uart_hal_interrupts_and_dma.o(.constdata) for .constdata
    fsl_uart_hal_interrupts_and_dma.o(i.uart_hal_is_framing_error_interrupt_enabled) refers to assert.o(.text) for __aeabi_assert
    fsl_uart_hal_interrupts_and_dma.o(i.uart_hal_is_framing_error_interrupt_enabled) refers to fsl_uart_hal_interrupts_and_dma.o(.constdata) for .constdata
    fsl_uart_hal_interrupts_and_dma.o(i.uart_hal_is_idle_line_interrupt_enabled) refers to assert.o(.text) for __aeabi_assert
    fsl_uart_hal_interrupts_and_dma.o(i.uart_hal_is_idle_line_interrupt_enabled) refers to fsl_uart_hal_interrupts_and_dma.o(.constdata) for .constdata
    fsl_uart_hal_interrupts_and_dma.o(i.uart_hal_is_noise_error_interrupt_enabled) refers to assert.o(.text) for __aeabi_assert
    fsl_uart_hal_interrupts_and_dma.o(i.uart_hal_is_noise_error_interrupt_enabled) refers to fsl_uart_hal_interrupts_and_dma.o(.constdata) for .constdata
    fsl_uart_hal_interrupts_and_dma.o(i.uart_hal_is_parity_error_interrupt_enabled) refers to assert.o(.text) for __aeabi_assert
    fsl_uart_hal_interrupts_and_dma.o(i.uart_hal_is_parity_error_interrupt_enabled) refers to fsl_uart_hal_interrupts_and_dma.o(.constdata) for .constdata
    fsl_uart_hal_interrupts_and_dma.o(i.uart_hal_is_receive_data_full_interrupt_enabled) refers to assert.o(.text) for __aeabi_assert
    fsl_uart_hal_interrupts_and_dma.o(i.uart_hal_is_receive_data_full_interrupt_enabled) refers to fsl_uart_hal_interrupts_and_dma.o(.constdata) for .constdata
    fsl_uart_hal_interrupts_and_dma.o(i.uart_hal_is_rx_active_edge_interrupt_enabled) refers to assert.o(.text) for __aeabi_assert
    fsl_uart_hal_interrupts_and_dma.o(i.uart_hal_is_rx_active_edge_interrupt_enabled) refers to fsl_uart_hal_interrupts_and_dma.o(.constdata) for .constdata
    fsl_uart_hal_interrupts_and_dma.o(i.uart_hal_is_rx_overrun_interrupt_enabled) refers to assert.o(.text) for __aeabi_assert
    fsl_uart_hal_interrupts_and_dma.o(i.uart_hal_is_rx_overrun_interrupt_enabled) refers to fsl_uart_hal_interrupts_and_dma.o(.constdata) for .constdata
    fsl_uart_hal_interrupts_and_dma.o(i.uart_hal_is_rxdma_enabled) refers to assert.o(.text) for __aeabi_assert
    fsl_uart_hal_interrupts_and_dma.o(i.uart_hal_is_rxdma_enabled) refers to fsl_uart_hal_interrupts_and_dma.o(.constdata) for .constdata
    fsl_uart_hal_interrupts_and_dma.o(i.uart_hal_is_transmission_complete_interrupt_enabled) refers to assert.o(.text) for __aeabi_assert
    fsl_uart_hal_interrupts_and_dma.o(i.uart_hal_is_transmission_complete_interrupt_enabled) refers to fsl_uart_hal_interrupts_and_dma.o(.constdata) for .constdata
    fsl_uart_hal_interrupts_and_dma.o(i.uart_hal_is_tx_data_register_empty_interrupt_enabled) refers to assert.o(.text) for __aeabi_assert
    fsl_uart_hal_interrupts_and_dma.o(i.uart_hal_is_tx_data_register_empty_interrupt_enabled) refers to fsl_uart_hal_interrupts_and_dma.o(.constdata) for .constdata
    fsl_uart_hal_interrupts_and_dma.o(i.uart_hal_is_txdma_enabled) refers to assert.o(.text) for __aeabi_assert
    fsl_uart_hal_interrupts_and_dma.o(i.uart_hal_is_txdma_enabled) refers to fsl_uart_hal_interrupts_and_dma.o(.constdata) for .constdata
    fsl_uart_hal_transfer_functions.o(i.uart_hal_configure_bit10_as_paritybit_operation) refers to assert.o(.text) for __aeabi_assert
    fsl_uart_hal_transfer_functions.o(i.uart_hal_configure_bit10_as_paritybit_operation) refers to fsl_uart_hal_transfer_functions.o(.constdata) for .constdata
    fsl_uart_hal_transfer_functions.o(i.uart_hal_getchar) refers to assert.o(.text) for __aeabi_assert
    fsl_uart_hal_transfer_functions.o(i.uart_hal_getchar) refers to fsl_uart_hal_transfer_functions.o(.constdata) for .constdata
    fsl_uart_hal_transfer_functions.o(i.uart_hal_getchar10) refers to assert.o(.text) for __aeabi_assert
    fsl_uart_hal_transfer_functions.o(i.uart_hal_getchar10) refers to fsl_uart_hal_transfer_functions.o(.constdata) for .constdata
    fsl_uart_hal_transfer_functions.o(i.uart_hal_getchar9) refers to assert.o(.text) for __aeabi_assert
    fsl_uart_hal_transfer_functions.o(i.uart_hal_getchar9) refers to fsl_uart_hal_transfer_functions.o(.constdata) for .constdata
    fsl_uart_hal_transfer_functions.o(i.uart_hal_is_bit10_set_as_paritybit) refers to assert.o(.text) for __aeabi_assert
    fsl_uart_hal_transfer_functions.o(i.uart_hal_is_bit10_set_as_paritybit) refers to fsl_uart_hal_transfer_functions.o(.constdata) for .constdata
    fsl_uart_hal_transfer_functions.o(i.uart_hal_is_current_dataword_received_with_noise) refers to assert.o(.text) for __aeabi_assert
    fsl_uart_hal_transfer_functions.o(i.uart_hal_is_current_dataword_received_with_noise) refers to fsl_uart_hal_transfer_functions.o(.constdata) for .constdata
    fsl_uart_hal_transfer_functions.o(i.uart_hal_is_current_dataword_received_with_parityerror) refers to assert.o(.text) for __aeabi_assert
    fsl_uart_hal_transfer_functions.o(i.uart_hal_is_current_dataword_received_with_parityerror) refers to fsl_uart_hal_transfer_functions.o(.constdata) for .constdata
    fsl_uart_hal_transfer_functions.o(i.uart_hal_putchar) refers to assert.o(.text) for __aeabi_assert
    fsl_uart_hal_transfer_functions.o(i.uart_hal_putchar) refers to fsl_uart_hal_transfer_functions.o(.constdata) for .constdata
    fsl_uart_hal_transfer_functions.o(i.uart_hal_putchar10) refers to assert.o(.text) for __aeabi_assert
    fsl_uart_hal_transfer_functions.o(i.uart_hal_putchar10) refers to fsl_uart_hal_transfer_functions.o(.constdata) for .constdata
    fsl_uart_hal_transfer_functions.o(i.uart_hal_putchar9) refers to assert.o(.text) for __aeabi_assert
    fsl_uart_hal_transfer_functions.o(i.uart_hal_putchar9) refers to fsl_uart_hal_transfer_functions.o(.constdata) for .constdata
    gpio_api.o(i.gpio_dir) refers to assert.o(i.mbed_assert_internal) for mbed_assert_internal
    gpio_api.o(i.gpio_dir) refers to fsl_gpio_hal.o(i.gpio_hal_set_pin_direction) for gpio_hal_set_pin_direction
    gpio_api.o(i.gpio_dir) refers to gpio_api.o(.constdata) for .constdata
    gpio_api.o(i.gpio_init) refers to fsl_sim_hal.o(i.clock_hal_set_gate) for clock_hal_set_gate
    gpio_api.o(i.gpio_init) refers to assert.o(.text) for __aeabi_assert
    gpio_api.o(i.gpio_init) refers to gpio_api.o(.constdata) for .constdata
    gpio_api.o(i.gpio_mode) refers to pinmap.o(i.pin_mode) for pin_mode
    gpio_api.o(i.gpio_set) refers to assert.o(i.mbed_assert_internal) for mbed_assert_internal
    gpio_api.o(i.gpio_set) refers to pinmap.o(i.pin_function) for pin_function
    gpio_api.o(i.gpio_set) refers to gpio_api.o(.constdata) for .constdata
    gpio_irq_api.o(i.gpio_irqA) refers to gpio_irq_api.o(i.handle_interrupt_in) for handle_interrupt_in
    gpio_irq_api.o(i.gpio_irqB) refers to gpio_irq_api.o(i.handle_interrupt_in) for handle_interrupt_in
    gpio_irq_api.o(i.gpio_irqC) refers to gpio_irq_api.o(i.handle_interrupt_in) for handle_interrupt_in
    gpio_irq_api.o(i.gpio_irqD) refers to gpio_irq_api.o(i.handle_interrupt_in) for handle_interrupt_in
    gpio_irq_api.o(i.gpio_irqE) refers to gpio_irq_api.o(i.handle_interrupt_in) for handle_interrupt_in
    gpio_irq_api.o(i.gpio_irq_free) refers to gpio_irq_api.o(.bss) for .bss
    gpio_irq_api.o(i.gpio_irq_init) refers to error.o(i.error) for error
    gpio_irq_api.o(i.gpio_irq_init) refers to cmsis_nvic.o(i.NVIC_SetVector) for NVIC_SetVector
    gpio_irq_api.o(i.gpio_irq_init) refers to gpio_irq_api.o(.data) for .data
    gpio_irq_api.o(i.gpio_irq_init) refers to gpio_irq_api.o(i.gpio_irqA) for gpio_irqA
    gpio_irq_api.o(i.gpio_irq_init) refers to gpio_irq_api.o(i.gpio_irqB) for gpio_irqB
    gpio_irq_api.o(i.gpio_irq_init) refers to gpio_irq_api.o(i.gpio_irqC) for gpio_irqC
    gpio_irq_api.o(i.gpio_irq_init) refers to gpio_irq_api.o(i.gpio_irqD) for gpio_irqD
    gpio_irq_api.o(i.gpio_irq_init) refers to gpio_irq_api.o(i.gpio_irqE) for gpio_irqE
    gpio_irq_api.o(i.gpio_irq_init) refers to gpio_irq_api.o(.bss) for .bss
    gpio_irq_api.o(i.gpio_irq_set) refers to assert.o(.text) for __aeabi_assert
    gpio_irq_api.o(i.gpio_irq_set) refers to gpio_irq_api.o(.constdata) for .constdata
    gpio_irq_api.o(i.handle_interrupt_in) refers to assert.o(.text) for __aeabi_assert
    gpio_irq_api.o(i.handle_interrupt_in) refers to gpio_irq_api.o(.bss) for .bss
    gpio_irq_api.o(i.handle_interrupt_in) refers to gpio_irq_api.o(.constdata) for .constdata
    gpio_irq_api.o(i.handle_interrupt_in) refers to gpio_irq_api.o(.data) for .data
    pinmap.o(i.pin_function) refers to assert.o(i.mbed_assert_internal) for mbed_assert_internal
    pinmap.o(i.pin_function) refers to fsl_clock_manager.o(i.clock_manager_set_gate) for clock_manager_set_gate
    pinmap.o(i.pin_function) refers to assert.o(.text) for __aeabi_assert
    pinmap.o(i.pin_function) refers to pinmap.o(.constdata) for .constdata
    pinmap.o(i.pin_mode) refers to assert.o(i.mbed_assert_internal) for mbed_assert_internal
    pinmap.o(i.pin_mode) refers to assert.o(.text) for __aeabi_assert
    pinmap.o(i.pin_mode) refers to pinmap.o(.constdata) for .constdata
    i2c_api.o(i.i2c_byte_read) refers to assert.o(.text) for __aeabi_assert
    i2c_api.o(i.i2c_byte_read) refers to i2c_api.o(i.i2c_wait_end_rx_transfer) for i2c_wait_end_rx_transfer
    i2c_api.o(i.i2c_byte_read) refers to i2c_api.o(.constdata) for .constdata
    i2c_api.o(i.i2c_byte_write) refers to assert.o(.text) for __aeabi_assert
    i2c_api.o(i.i2c_byte_write) refers to i2c_api.o(i.i2c_do_write) for i2c_do_write
    i2c_api.o(i.i2c_byte_write) refers to i2c_api.o(.constdata) for .constdata
    i2c_api.o(i.i2c_do_write) refers to assert.o(.text) for __aeabi_assert
    i2c_api.o(i.i2c_do_write) refers to i2c_api.o(.constdata) for .constdata
    i2c_api.o(i.i2c_frequency) refers to fsl_clock_manager.o(i.clock_manager_get_frequency) for clock_manager_get_frequency
    i2c_api.o(i.i2c_frequency) refers to fsl_i2c_hal.o(i.i2c_hal_set_baud) for i2c_hal_set_baud
    i2c_api.o(i.i2c_init) refers to pinmap_common.o(i.pinmap_peripheral) for pinmap_peripheral
    i2c_api.o(i.i2c_init) refers to pinmap_common.o(i.pinmap_merge) for pinmap_merge
    i2c_api.o(i.i2c_init) refers to assert.o(i.mbed_assert_internal) for mbed_assert_internal
    i2c_api.o(i.i2c_init) refers to fsl_clock_manager.o(i.clock_manager_set_gate) for clock_manager_set_gate
    i2c_api.o(i.i2c_init) refers to assert.o(.text) for __aeabi_assert
    i2c_api.o(i.i2c_init) refers to fsl_clock_manager.o(i.clock_manager_get_frequency) for clock_manager_get_frequency
    i2c_api.o(i.i2c_init) refers to fsl_i2c_hal.o(i.i2c_hal_set_baud) for i2c_hal_set_baud
    i2c_api.o(i.i2c_init) refers to pinmap_common.o(i.pinmap_pinout) for pinmap_pinout
    i2c_api.o(i.i2c_init) refers to PeripheralPins.o(.constdata) for PinMap_I2C_SDA
    i2c_api.o(i.i2c_init) refers to PeripheralPins.o(.constdata) for PinMap_I2C_SCL
    i2c_api.o(i.i2c_init) refers to i2c_api.o(.constdata) for .constdata
    i2c_api.o(i.i2c_read) refers to fsl_i2c_hal.o(i.i2c_hal_send_start) for i2c_hal_send_start
    i2c_api.o(i.i2c_read) refers to i2c_api.o(i.i2c_do_write) for i2c_do_write
    i2c_api.o(i.i2c_read) refers to i2c_api.o(i.i2c_stop) for i2c_stop
    i2c_api.o(i.i2c_read) refers to assert.o(.text) for __aeabi_assert
    i2c_api.o(i.i2c_read) refers to i2c_api.o(i.i2c_wait_end_rx_transfer) for i2c_wait_end_rx_transfer
    i2c_api.o(i.i2c_read) refers to i2c_api.o(.constdata) for .constdata
    i2c_api.o(i.i2c_reset) refers to i2c_api.o(i.i2c_stop) for i2c_stop
    i2c_api.o(i.i2c_slave_address) refers to assert.o(.text) for __aeabi_assert
    i2c_api.o(i.i2c_slave_address) refers to i2c_api.o(.constdata) for .constdata
    i2c_api.o(i.i2c_slave_mode) refers to assert.o(.text) for __aeabi_assert
    i2c_api.o(i.i2c_slave_mode) refers to i2c_api.o(.constdata) for .constdata
    i2c_api.o(i.i2c_slave_read) refers to assert.o(.text) for __aeabi_assert
    i2c_api.o(i.i2c_slave_read) refers to i2c_api.o(i.i2c_wait_end_rx_transfer) for i2c_wait_end_rx_transfer
    i2c_api.o(i.i2c_slave_read) refers to i2c_api.o(.constdata) for .constdata
    i2c_api.o(i.i2c_slave_receive) refers to i2c_api.o(.constdata) for .constdata
    i2c_api.o(i.i2c_slave_write) refers to i2c_api.o(i.i2c_do_write) for i2c_do_write
    i2c_api.o(i.i2c_slave_write) refers to assert.o(.text) for __aeabi_assert
    i2c_api.o(i.i2c_slave_write) refers to i2c_api.o(i.i2c_wait_end_rx_transfer) for i2c_wait_end_rx_transfer
    i2c_api.o(i.i2c_slave_write) refers to i2c_api.o(.constdata) for .constdata
    i2c_api.o(i.i2c_start) refers to fsl_i2c_hal.o(i.i2c_hal_send_start) for i2c_hal_send_start
    i2c_api.o(i.i2c_stop) refers to assert.o(.text) for __aeabi_assert
    i2c_api.o(i.i2c_stop) refers to i2c_api.o(.constdata) for .constdata
    i2c_api.o(i.i2c_wait_end_rx_transfer) refers to assert.o(.text) for __aeabi_assert
    i2c_api.o(i.i2c_wait_end_rx_transfer) refers to i2c_api.o(.constdata) for .constdata
    i2c_api.o(i.i2c_write) refers to fsl_i2c_hal.o(i.i2c_hal_send_start) for i2c_hal_send_start
    i2c_api.o(i.i2c_write) refers to i2c_api.o(i.i2c_do_write) for i2c_do_write
    i2c_api.o(i.i2c_write) refers to i2c_api.o(i.i2c_stop) for i2c_stop
    spi_api.o(i.spi_format) refers to fsl_dspi_hal.o(i.dspi_hal_configure_data_format) for dspi_hal_configure_data_format
    spi_api.o(i.spi_format) refers to error.o(i.error) for error
    spi_api.o(i.spi_format) refers to assert.o(.text) for __aeabi_assert
    spi_api.o(i.spi_format) refers to spi_api.o(.constdata) for .constdata
    spi_api.o(i.spi_frequency) refers to fsl_clock_manager.o(i.clock_manager_get_frequency) for clock_manager_get_frequency
    spi_api.o(i.spi_frequency) refers to fsl_dspi_hal.o(i.dspi_hal_set_baud) for dspi_hal_set_baud
    spi_api.o(i.spi_init) refers to pinmap_common.o(i.pinmap_peripheral) for pinmap_peripheral
    spi_api.o(i.spi_init) refers to pinmap_common.o(i.pinmap_merge) for pinmap_merge
    spi_api.o(i.spi_init) refers to assert.o(i.mbed_assert_internal) for mbed_assert_internal
    spi_api.o(i.spi_init) refers to fsl_clock_manager.o(i.clock_manager_set_gate) for clock_manager_set_gate
    spi_api.o(i.spi_init) refers to assert.o(.text) for __aeabi_assert
    spi_api.o(i.spi_init) refers to spi_api.o(i.spi_format) for spi_format
    spi_api.o(i.spi_init) refers to fsl_dspi_hal.o(i.dspi_hal_configure_delays) for dspi_hal_configure_delays
    spi_api.o(i.spi_init) refers to fsl_clock_manager.o(i.clock_manager_get_frequency) for clock_manager_get_frequency
    spi_api.o(i.spi_init) refers to fsl_dspi_hal.o(i.dspi_hal_set_baud) for dspi_hal_set_baud
    spi_api.o(i.spi_init) refers to pinmap_common.o(i.pinmap_pinout) for pinmap_pinout
    spi_api.o(i.spi_init) refers to PeripheralPins.o(.constdata) for PinMap_SPI_MOSI
    spi_api.o(i.spi_init) refers to PeripheralPins.o(.constdata) for PinMap_SPI_MISO
    spi_api.o(i.spi_init) refers to PeripheralPins.o(.constdata) for PinMap_SPI_SCLK
    spi_api.o(i.spi_init) refers to PeripheralPins.o(.constdata) for PinMap_SPI_SSEL
    spi_api.o(i.spi_init) refers to spi_api.o(.constdata) for .constdata
    spi_api.o(i.spi_master_write) refers to fsl_dspi_hal.o(i.dspi_hal_write_data_master_mode) for dspi_hal_write_data_master_mode
    spi_api.o(i.spi_master_write) refers to assert.o(.text) for __aeabi_assert
    spi_api.o(i.spi_master_write) refers to spi_api.o(.constdata) for .constdata
    spi_api.o(i.spi_slave_read) refers to assert.o(.text) for __aeabi_assert
    spi_api.o(i.spi_slave_read) refers to spi_api.o(.constdata) for .constdata
    spi_api.o(i.spi_slave_receive) refers to assert.o(.text) for __aeabi_assert
    spi_api.o(i.spi_slave_receive) refers to spi_api.o(.constdata) for .constdata
    spi_api.o(i.spi_slave_write) refers to assert.o(.text) for __aeabi_assert
    spi_api.o(i.spi_slave_write) refers to spi_api.o(.constdata) for .constdata
    us_ticker.o(i.lptmr_isr) refers to us_ticker_api.o(i.us_ticker_irq_handler) for us_ticker_irq_handler
    us_ticker.o(i.lptmr_isr) refers to us_ticker.o(.data) for .data
    us_ticker.o(i.us_ticker_init) refers to fsl_sim_hal.o(i.clock_hal_set_gate) for clock_hal_set_gate
    us_ticker.o(i.us_ticker_init) refers to fsl_clock_manager.o(i.clock_manager_get_frequency) for clock_manager_get_frequency
    us_ticker.o(i.us_ticker_init) refers to cmsis_nvic.o(i.NVIC_SetVector) for NVIC_SetVector
    us_ticker.o(i.us_ticker_init) refers to us_ticker.o(.data) for .data
    us_ticker.o(i.us_ticker_init) refers to us_ticker.o(i.lptmr_isr) for lptmr_isr
    us_ticker.o(i.us_ticker_read) refers to us_ticker.o(i.us_ticker_init) for us_ticker_init
    us_ticker.o(i.us_ticker_read) refers to us_ticker.o(.data) for .data
    us_ticker.o(i.us_ticker_set_interrupt) refers to us_ticker.o(i.us_ticker_init) for us_ticker_init
    us_ticker.o(i.us_ticker_set_interrupt) refers to us_ticker_api.o(i.us_ticker_irq_handler) for us_ticker_irq_handler
    us_ticker.o(i.us_ticker_set_interrupt) refers to us_ticker.o(.data) for .data
    FileBase.o(i._ZN4mbed8FileBase3getEi) refers to FileBase.o(.data) for .data
    FileBase.o(i._ZN4mbed8FileBase6lookupEPKcj) refers to strncmp.o(.text) for strncmp
    FileBase.o(i._ZN4mbed8FileBase6lookupEPKcj) refers to strlen.o(.text) for strlen
    FileBase.o(i._ZN4mbed8FileBase6lookupEPKcj) refers to FileBase.o(.data) for .data
    FileBase.o(i._ZN4mbed8FileBaseC1EPKcNS_8PathTypeE) refers to FileBase.o(.constdata__ZTVN4mbed8FileBaseE) for vtable for mbed::FileBase
    FileBase.o(i._ZN4mbed8FileBaseC1EPKcNS_8PathTypeE) refers to FileBase.o(.data) for .data
    FileBase.o(i._ZN4mbed8FileBaseD0Ev) refers to delete.o(i._ZdlPv) for operator delete (void*)
    FileBase.o(i._ZN4mbed8FileBaseD0Ev) refers to FileBase.o(.constdata__ZTVN4mbed8FileBaseE) for vtable for mbed::FileBase
    FileBase.o(i._ZN4mbed8FileBaseD0Ev) refers to FileBase.o(.data) for .data
    FileBase.o(i._ZN4mbed8FileBaseD1Ev) refers to FileBase.o(.constdata__ZTVN4mbed8FileBaseE) for vtable for mbed::FileBase
    FileBase.o(i._ZN4mbed8FileBaseD1Ev) refers to FileBase.o(.data) for .data
    FileBase.o(.ARM.exidx) refers to FileBase.o(i._ZN4mbed8FileBaseC1EPKcNS_8PathTypeE) for i._ZN4mbed8FileBaseC1EPKcNS_8PathTypeE
    FileBase.o(.ARM.exidx) refers to FileBase.o(i._ZN4mbed8FileBaseD1Ev) for i._ZN4mbed8FileBaseD1Ev
    FileBase.o(.ARM.exidx) refers to FileBase.o(i._ZN4mbed8FileBaseD0Ev) for i._ZN4mbed8FileBaseD0Ev
    FileBase.o(.ARM.exidx) refers to FileBase.o(i._ZN4mbed8FileBase7getNameEv) for i._ZN4mbed8FileBase7getNameEv
    FileBase.o(.ARM.exidx) refers to FileBase.o(i._ZN4mbed8FileBase11getPathTypeEv) for i._ZN4mbed8FileBase11getPathTypeEv
    FileBase.o(.ARM.exidx) refers to FileBase.o(i._ZN4mbed8FileBase6lookupEPKcj) for i._ZN4mbed8FileBase6lookupEPKcj
    FileBase.o(.ARM.exidx) refers to FileBase.o(i._ZN4mbed8FileBase3getEi) for i._ZN4mbed8FileBase3getEi
    FileLike.o(i._ZN4mbed8FileLikeC2EPKc) refers to FileBase.o(i._ZN4mbed8FileBaseC1EPKcNS_8PathTypeE) for mbed::FileBase::FileBase(const char*, mbed::PathType)
    FileLike.o(i._ZN4mbed8FileLikeC2EPKc) refers to retarget.o(.constdata__ZTVN4mbed10FileHandleE) for vtable for mbed::FileHandle
    FileLike.o(i._ZN4mbed8FileLikeC2EPKc) refers to FileLike.o(.constdata__ZTVN4mbed8FileLikeE) for vtable for mbed::FileLike
    FileLike.o(i._ZN4mbed8FileLikeD0Ev) refers to FileBase.o(i._ZN4mbed8FileBaseD1Ev) for mbed::FileBase::~FileBase()
    FileLike.o(i._ZN4mbed8FileLikeD0Ev) refers to retarget.o(i._ZN4mbed10FileHandleD2Ev) for mbed::FileHandle::~FileHandle__sub_object()
    FileLike.o(i._ZN4mbed8FileLikeD0Ev) refers to delete.o(i._ZdlPv) for operator delete (void*)
    FileLike.o(i._ZN4mbed8FileLikeD2Ev) refers to FileBase.o(i._ZN4mbed8FileBaseD1Ev) for mbed::FileBase::~FileBase()
    FileLike.o(i._ZN4mbed8FileLikeD2Ev) refers to retarget.o(i._ZN4mbed10FileHandleD2Ev) for mbed::FileHandle::~FileHandle__sub_object()
    FileLike.o(i._ZThn4_N4mbed8FileLikeD0Ev) refers to FileBase.o(i._ZN4mbed8FileBaseD1Ev) for mbed::FileBase::~FileBase()
    FileLike.o(i._ZThn4_N4mbed8FileLikeD0Ev) refers to retarget.o(i._ZN4mbed10FileHandleD2Ev) for mbed::FileHandle::~FileHandle__sub_object()
    FileLike.o(i._ZThn4_N4mbed8FileLikeD0Ev) refers to delete.o(i._ZdlPv) for operator delete (void*)
    FileLike.o(i._ZThn4_N4mbed8FileLikeD1Ev) refers to FileBase.o(i._ZN4mbed8FileBaseD1Ev) for mbed::FileBase::~FileBase()
    FileLike.o(i._ZThn4_N4mbed8FileLikeD1Ev) refers to retarget.o(i._ZN4mbed10FileHandleD2Ev) for mbed::FileHandle::~FileHandle__sub_object()
    FileLike.o(.ARM.exidx) refers to FileLike.o(i._ZN4mbed8FileLikeC2EPKc) for i._ZN4mbed8FileLikeC2EPKc
    FileLike.o(.ARM.exidx) refers to FileLike.o(i._ZN4mbed8FileLikeD2Ev) for i._ZN4mbed8FileLikeD2Ev
    FileLike.o(.ARM.exidx) refers to FileLike.o(i._ZN4mbed8FileLikeD0Ev) for i._ZN4mbed8FileLikeD0Ev
    FileLike.o(.ARM.exidx) refers to FileLike.o(i._ZThn4_N4mbed8FileLikeD0Ev) for i._ZThn4_N4mbed8FileLikeD0Ev
    FileLike.o(.ARM.exidx) refers to FileLike.o(i._ZThn4_N4mbed8FileLikeD1Ev) for i._ZThn4_N4mbed8FileLikeD1Ev
    FunctionPointer.o(.ARM.exidx) refers to FunctionPointer.o(i._ZN4mbed15FunctionPointer6attachEPFvvE) for i._ZN4mbed15FunctionPointer6attachEPFvvE
    FunctionPointer.o(.ARM.exidx) refers to FunctionPointer.o(i._ZN4mbed15FunctionPointerC1EPFvvE) for i._ZN4mbed15FunctionPointerC1EPFvvE
    FunctionPointer.o(.ARM.exidx) refers to FunctionPointer.o(i._ZN4mbed15FunctionPointer4callEv) for i._ZN4mbed15FunctionPointer4callEv
    pinmap_common.o(i.pinmap_merge) refers to error.o(i.error) for error
    pinmap_common.o(i.pinmap_peripheral) refers to error.o(i.error) for error
    pinmap_common.o(i.pinmap_pinout) refers to pinmap.o(i.pin_function) for pin_function
    pinmap_common.o(i.pinmap_pinout) refers to pinmap.o(i.pin_mode) for pin_mode
    pinmap_common.o(i.pinmap_pinout) refers to error.o(i.error) for error
    fsl_i2c_hal.o(i.i2c_hal_get_max_baud) refers to assert.o(.text) for __aeabi_assert
    fsl_i2c_hal.o(i.i2c_hal_get_max_baud) refers to fsl_i2c_hal.o(.constdata) for .constdata
    fsl_i2c_hal.o(i.i2c_hal_init) refers to assert.o(.text) for __aeabi_assert
    fsl_i2c_hal.o(i.i2c_hal_init) refers to fsl_i2c_hal.o(.constdata) for .constdata
    fsl_i2c_hal.o(i.i2c_hal_reset) refers to assert.o(.text) for __aeabi_assert
    fsl_i2c_hal.o(i.i2c_hal_reset) refers to fsl_i2c_hal.o(.constdata) for .constdata
    fsl_i2c_hal.o(i.i2c_hal_send_start) refers to assert.o(.text) for __aeabi_assert
    fsl_i2c_hal.o(i.i2c_hal_send_start) refers to fsl_i2c_hal.o(.constdata) for .constdata
    fsl_i2c_hal.o(i.i2c_hal_set_baud) refers to assert.o(.text) for __aeabi_assert
    fsl_i2c_hal.o(i.i2c_hal_set_baud) refers to fsl_i2c_hal.o(.constdata) for .constdata
    fsl_i2c_hal.o(i.i2c_hal_set_slave_address_10bit) refers to assert.o(.text) for __aeabi_assert
    fsl_i2c_hal.o(i.i2c_hal_set_slave_address_10bit) refers to fsl_i2c_hal.o(.constdata) for .constdata
    fsl_i2c_hal.o(i.i2c_hal_set_slave_address_7bit) refers to assert.o(.text) for __aeabi_assert
    fsl_i2c_hal.o(i.i2c_hal_set_slave_address_7bit) refers to fsl_i2c_hal.o(.constdata) for .constdata
    fsl_dspi_hal.o(i.dspi_hal_configure_data_format) refers to assert.o(.text) for __aeabi_assert
    fsl_dspi_hal.o(i.dspi_hal_configure_data_format) refers to fsl_dspi_hal.o(.constdata) for .constdata
    fsl_dspi_hal.o(i.dspi_hal_configure_delays) refers to assert.o(.text) for __aeabi_assert
    fsl_dspi_hal.o(i.dspi_hal_configure_delays) refers to fsl_dspi_hal.o(.constdata) for .constdata
    fsl_dspi_hal.o(i.dspi_hal_configure_dma) refers to assert.o(.text) for __aeabi_assert
    fsl_dspi_hal.o(i.dspi_hal_configure_dma) refers to fsl_dspi_hal.o(.constdata) for .constdata
    fsl_dspi_hal.o(i.dspi_hal_configure_fifos) refers to assert.o(.text) for __aeabi_assert
    fsl_dspi_hal.o(i.dspi_hal_configure_fifos) refers to fsl_dspi_hal.o(.constdata) for .constdata
    fsl_dspi_hal.o(i.dspi_hal_configure_interrupt) refers to assert.o(.text) for __aeabi_assert
    fsl_dspi_hal.o(i.dspi_hal_configure_interrupt) refers to fsl_dspi_hal.o(.constdata) for .constdata
    fsl_dspi_hal.o(i.dspi_hal_configure_pcs_polarity) refers to assert.o(.text) for __aeabi_assert
    fsl_dspi_hal.o(i.dspi_hal_configure_pcs_polarity) refers to fsl_dspi_hal.o(.constdata) for .constdata
    fsl_dspi_hal.o(i.dspi_hal_flush_fifos) refers to assert.o(.text) for __aeabi_assert
    fsl_dspi_hal.o(i.dspi_hal_flush_fifos) refers to fsl_dspi_hal.o(.constdata) for .constdata
    fsl_dspi_hal.o(i.dspi_hal_get_fifo_data) refers to assert.o(.text) for __aeabi_assert
    fsl_dspi_hal.o(i.dspi_hal_get_fifo_data) refers to fsl_dspi_hal.o(.constdata) for .constdata
    fsl_dspi_hal.o(i.dspi_hal_master_init) refers to assert.o(.text) for __aeabi_assert
    fsl_dspi_hal.o(i.dspi_hal_master_init) refers to fsl_dspi_hal.o(i.dspi_hal_set_baud) for dspi_hal_set_baud
    fsl_dspi_hal.o(i.dspi_hal_master_init) refers to fsl_dspi_hal.o(i.dspi_hal_configure_data_format) for dspi_hal_configure_data_format
    fsl_dspi_hal.o(i.dspi_hal_master_init) refers to fsl_dspi_hal.o(i.dspi_hal_configure_fifos) for dspi_hal_configure_fifos
    fsl_dspi_hal.o(i.dspi_hal_master_init) refers to fsl_dspi_hal.o(.constdata) for .constdata
    fsl_dspi_hal.o(i.dspi_hal_reset) refers to assert.o(.text) for __aeabi_assert
    fsl_dspi_hal.o(i.dspi_hal_reset) refers to fsl_dspi_hal.o(.constdata) for .constdata
    fsl_dspi_hal.o(i.dspi_hal_set_baud) refers to assert.o(.text) for __aeabi_assert
    fsl_dspi_hal.o(i.dspi_hal_set_baud) refers to fsl_dspi_hal.o(.constdata) for .constdata
    fsl_dspi_hal.o(i.dspi_hal_set_baud_divisors) refers to assert.o(.text) for __aeabi_assert
    fsl_dspi_hal.o(i.dspi_hal_set_baud_divisors) refers to fsl_dspi_hal.o(.constdata) for .constdata
    fsl_dspi_hal.o(i.dspi_hal_slave_init) refers to assert.o(.text) for __aeabi_assert
    fsl_dspi_hal.o(i.dspi_hal_slave_init) refers to fsl_dspi_hal.o(i.dspi_hal_configure_data_format) for dspi_hal_configure_data_format
    fsl_dspi_hal.o(i.dspi_hal_slave_init) refers to fsl_dspi_hal.o(i.dspi_hal_configure_fifos) for dspi_hal_configure_fifos
    fsl_dspi_hal.o(i.dspi_hal_slave_init) refers to fsl_dspi_hal.o(.constdata) for .constdata
    fsl_dspi_hal.o(i.dspi_hal_write_data_master_mode) refers to assert.o(.text) for __aeabi_assert
    fsl_dspi_hal.o(i.dspi_hal_write_data_master_mode) refers to fsl_dspi_hal.o(.constdata) for .constdata
    fsl_mcg_hal.o(i.clock_hal_get_outclk) refers to fsl_mcg_hal.o(i.clock_hal_get_fllclk) for clock_hal_get_fllclk
    fsl_sim_clock_module_names_K64F12.o(.data) refers to fsl_sim_clock_module_names_K64F12.o(.constdata) for kSimClockSdhcSrcTable
    fsl_sim_clock_module_names_K64F12.o(.data) refers to fsl_sim_clock_module_names_K64F12.o(.constdata) for kSimClockTimeSrcTable
    fsl_sim_clock_module_names_K64F12.o(.data) refers to fsl_sim_clock_module_names_K64F12.o(.constdata) for kSimClockRmiiSrcTable
    fsl_sim_clock_module_names_K64F12.o(.data) refers to fsl_sim_clock_module_names_K64F12.o(.constdata) for kSimClockUsbSrcTable
    fsl_sim_clock_module_names_K64F12.o(.data) refers to fsl_sim_clock_module_names_K64F12.o(.constdata) for kSimClockOsc32kSelTable
    fsl_sim_clock_module_names_K64F12.o(.data) refers to fsl_sim_clock_module_names_K64F12.o(.constdata) for kSimClockPllfllSelTable
    fsl_sim_clock_module_names_K64F12.o(.data) refers to fsl_sim_clock_module_names_K64F12.o(.constdata) for kSimClockTraceSelTable
    fsl_sim_clock_module_names_K64F12.o(.data) refers to fsl_sim_clock_module_names_K64F12.o(.constdata) for kSimClockClkoutSelTable
    fsl_sim_clock_module_names_K64F12.o(.data) refers to fsl_sim_clock_module_names_K64F12.o(.constdata) for kSimClockRtcClkoutSelTable
    fsl_sim_hal.o(i.clock_hal_get_clock_divider) refers to assert.o(.text) for __aeabi_assert
    fsl_sim_hal.o(i.clock_hal_get_clock_divider) refers to fsl_sim_hal.o(.constdata) for .constdata
    fsl_sim_hal.o(i.clock_hal_get_clock_source) refers to assert.o(.text) for __aeabi_assert
    fsl_sim_hal.o(i.clock_hal_get_clock_source) refers to fsl_sim_hal.o(.constdata) for .constdata
    fsl_sim_hal.o(i.clock_hal_get_gate) refers to assert.o(.text) for __aeabi_assert
    fsl_sim_hal.o(i.clock_hal_get_gate) refers to fsl_sim_hal.o(.constdata) for .constdata
    fsl_sim_hal.o(i.clock_hal_get_gate) refers to fsl_sim_clock_module_names_K64F12.o(.constdata) for kSimClockGateModuleConfigTable
    fsl_sim_hal.o(i.clock_hal_set_clock_divider) refers to assert.o(.text) for __aeabi_assert
    fsl_sim_hal.o(i.clock_hal_set_clock_divider) refers to fsl_sim_hal.o(.constdata) for .constdata
    fsl_sim_hal.o(i.clock_hal_set_clock_source) refers to assert.o(.text) for __aeabi_assert
    fsl_sim_hal.o(i.clock_hal_set_clock_source) refers to fsl_sim_hal.o(.constdata) for .constdata
    fsl_sim_hal.o(i.clock_hal_set_gate) refers to assert.o(.text) for __aeabi_assert
    fsl_sim_hal.o(i.clock_hal_set_gate) refers to fsl_sim_hal.o(.constdata) for .constdata
    fsl_sim_hal.o(i.clock_hal_set_gate) refers to fsl_sim_clock_module_names_K64F12.o(.constdata) for kSimClockGateModuleConfigTable
    fsl_sim_hal.o(i.clock_manager_find_module) refers to fsl_sim_clock_module_names_K64F12.o(.constdata) for kSimClockGateModuleConfigTable
    fsl_sim_hal.o(i.sim_get_alttrgen) refers to assert.o(.text) for __aeabi_assert
    fsl_sim_hal.o(i.sim_get_alttrgen) refers to fsl_sim_hal.o(.constdata) for .constdata
    fsl_sim_hal.o(i.sim_get_ftm_ch_src) refers to assert.o(.text) for __aeabi_assert
    fsl_sim_hal.o(i.sim_get_ftm_ch_src) refers to fsl_sim_hal.o(.constdata) for .constdata
    fsl_sim_hal.o(i.sim_get_ftm_clk_sel) refers to assert.o(.text) for __aeabi_assert
    fsl_sim_hal.o(i.sim_get_ftm_clk_sel) refers to fsl_sim_hal.o(.constdata) for .constdata
    fsl_sim_hal.o(i.sim_get_ftm_flt_sel) refers to assert.o(.text) for __aeabi_assert
    fsl_sim_hal.o(i.sim_get_ftm_flt_sel) refers to fsl_sim_hal.o(.constdata) for .constdata
    fsl_sim_hal.o(i.sim_get_ftm_trg_src) refers to assert.o(.text) for __aeabi_assert
    fsl_sim_hal.o(i.sim_get_ftm_trg_src) refers to fsl_sim_hal.o(.constdata) for .constdata
    fsl_sim_hal.o(i.sim_get_pretrgsel) refers to assert.o(.text) for __aeabi_assert
    fsl_sim_hal.o(i.sim_get_pretrgsel) refers to fsl_sim_hal.o(.constdata) for .constdata
    fsl_sim_hal.o(i.sim_get_trgsel) refers to assert.o(.text) for __aeabi_assert
    fsl_sim_hal.o(i.sim_get_trgsel) refers to fsl_sim_hal.o(.constdata) for .constdata
    fsl_sim_hal.o(i.sim_get_uart_rxsrc) refers to assert.o(.text) for __aeabi_assert
    fsl_sim_hal.o(i.sim_get_uart_rxsrc) refers to fsl_sim_hal.o(.constdata) for .constdata
    fsl_sim_hal.o(i.sim_get_uart_txsrc) refers to assert.o(.text) for __aeabi_assert
    fsl_sim_hal.o(i.sim_get_uart_txsrc) refers to fsl_sim_hal.o(.constdata) for .constdata
    fsl_sim_hal.o(i.sim_set_alttrgen) refers to assert.o(.text) for __aeabi_assert
    fsl_sim_hal.o(i.sim_set_alttrgen) refers to fsl_sim_hal.o(.constdata) for .constdata
    fsl_sim_hal.o(i.sim_set_ftm_ch_src) refers to assert.o(.text) for __aeabi_assert
    fsl_sim_hal.o(i.sim_set_ftm_ch_src) refers to fsl_sim_hal.o(.constdata) for .constdata
    fsl_sim_hal.o(i.sim_set_ftm_clk_sel) refers to assert.o(.text) for __aeabi_assert
    fsl_sim_hal.o(i.sim_set_ftm_clk_sel) refers to fsl_sim_hal.o(.constdata) for .constdata
    fsl_sim_hal.o(i.sim_set_ftm_flt_sel) refers to assert.o(.text) for __aeabi_assert
    fsl_sim_hal.o(i.sim_set_ftm_flt_sel) refers to fsl_sim_hal.o(.constdata) for .constdata
    fsl_sim_hal.o(i.sim_set_ftm_trg_src) refers to assert.o(.text) for __aeabi_assert
    fsl_sim_hal.o(i.sim_set_ftm_trg_src) refers to fsl_sim_hal.o(.constdata) for .constdata
    fsl_sim_hal.o(i.sim_set_pretrgsel) refers to assert.o(.text) for __aeabi_assert
    fsl_sim_hal.o(i.sim_set_pretrgsel) refers to fsl_sim_hal.o(.constdata) for .constdata
    fsl_sim_hal.o(i.sim_set_trgsel) refers to assert.o(.text) for __aeabi_assert
    fsl_sim_hal.o(i.sim_set_trgsel) refers to fsl_sim_hal.o(.constdata) for .constdata
    fsl_sim_hal.o(i.sim_set_uart_rxsrc) refers to assert.o(.text) for __aeabi_assert
    fsl_sim_hal.o(i.sim_set_uart_rxsrc) refers to fsl_sim_hal.o(.constdata) for .constdata
    fsl_sim_hal.o(i.sim_set_uart_txsrc) refers to assert.o(.text) for __aeabi_assert
    fsl_sim_hal.o(i.sim_set_uart_txsrc) refers to fsl_sim_hal.o(.constdata) for .constdata
    error.o(i.error) refers to vfprintf.o(.text) for vfprintf
    error.o(i.error) refers to exit.o(i.exit) for exit
    error.o(i.error) refers to stdio_streams.o(.bss) for __stderr
    us_ticker_api.o(i.us_ticker_insert_event) refers to us_ticker.o(i.us_ticker_set_interrupt) for us_ticker_set_interrupt
    us_ticker_api.o(i.us_ticker_insert_event) refers to us_ticker_api.o(.data) for .data
    us_ticker_api.o(i.us_ticker_irq_handler) refers to us_ticker.o(i.us_ticker_clear_interrupt) for us_ticker_clear_interrupt
    us_ticker_api.o(i.us_ticker_irq_handler) refers to us_ticker.o(i.us_ticker_read) for us_ticker_read
    us_ticker_api.o(i.us_ticker_irq_handler) refers to us_ticker.o(i.us_ticker_disable_interrupt) for us_ticker_disable_interrupt
    us_ticker_api.o(i.us_ticker_irq_handler) refers to us_ticker.o(i.us_ticker_set_interrupt) for us_ticker_set_interrupt
    us_ticker_api.o(i.us_ticker_irq_handler) refers to us_ticker_api.o(.data) for .data
    us_ticker_api.o(i.us_ticker_remove_event) refers to us_ticker.o(i.us_ticker_set_interrupt) for us_ticker_set_interrupt
    us_ticker_api.o(i.us_ticker_remove_event) refers to us_ticker.o(i.us_ticker_disable_interrupt) for us_ticker_disable_interrupt
    us_ticker_api.o(i.us_ticker_remove_event) refers to us_ticker_api.o(.data) for .data
    us_ticker_api.o(i.us_ticker_set_handler) refers to us_ticker.o(i.us_ticker_init) for us_ticker_init
    us_ticker_api.o(i.us_ticker_set_handler) refers to us_ticker_api.o(.data) for .data
    exit.o(i.exit) refers to fflush.o(.text) for fflush
    exit.o(i.exit) refers to board.o(i.mbed_die) for mbed_die
    exit.o(i.exit) refers to stdio_streams.o(.bss) for __stdout
    exit.o(i.exit) refers to stdio_streams.o(.bss) for __stderr
    malloc.o(.text) refers (Special) to hguard.o(.text) for __heap$guard
    malloc.o(.text) refers (Special) to init_alloc.o(.text) for _init_alloc
    malloc.o(.text) refers to rt_heap_descriptor.o(.text) for __rt_heap_descriptor
    malloc.o(.text) refers to heapstubs.o(.text) for __Heap_Alloc
    free.o(.text) refers (Special) to hguard.o(.text) for __heap$guard
    free.o(.text) refers to rt_heap_descriptor.o(.text) for __rt_heap_descriptor
    free.o(.text) refers to heapstubs.o(.text) for __Heap_Free
    h1_alloc.o(.text) refers (Special) to h1_init.o(.text) for __Heap_Initialize
    h1_alloc.o(.text) refers to rt_heap_descriptor.o(.text) for __rt_heap_descriptor
    h1_alloc.o(.text) refers to init_alloc.o(.text) for __Heap_Full
    h1_free.o(.text) refers to rt_heap_descriptor.o(.text) for __rt_heap_descriptor
    h1_alloc_mt.o(.text) refers (Special) to h1_init.o(.text) for __Heap_Initialize
    h1_alloc_mt.o(.text) refers to init_alloc.o(.text) for __Heap_Full
    h1_alloc_mt.o(.text) refers to rt_heap_descriptor.o(.text) for __rt_heap_descriptor
    h1_free_mt.o(.text) refers to rt_heap_descriptor.o(.text) for __rt_heap_descriptor
    heap2.o(i._FDIterate) refers to heap2.o(.conststring) for .conststring
    heap2.o(i.___Heap_ProvideMemory$realtime) refers to fdtree.o(i._FDTree_Delete) for _FDTree_Delete
    heap2.o(i.___Heap_ProvideMemory$realtime) refers to fdtree.o(i._FDTree_Insert) for _FDTree_Insert
    heap2.o(i.___Heap_Stats$realtime) refers to heap2.o(i._Heap2_StatsIterate) for _Heap2_StatsIterate
    heap2.o(i.___Heap_Valid$realtime) refers to heap2.o(i._FDIterate) for _FDIterate
    heap2.o(i.___Heap_Valid$realtime) refers to heap2.o(.conststring) for .conststring
    heap2.o(i._free$realtime) refers to rt_heap_descriptor.o(.text) for __rt_heap_descriptor
    heap2.o(i._free$realtime) refers to fdtree.o(i._FDTree_Delete) for _FDTree_Delete
    heap2.o(i._free$realtime) refers to fdtree.o(i._FDTree_Insert) for _FDTree_Insert
    heap2.o(i._malloc$realtime) refers to rt_heap_descriptor.o(.text) for __rt_heap_descriptor
    heap2.o(i._malloc$realtime) refers to fdtree.o(i._FDTree_FindFirst) for _FDTree_FindFirst
    heap2.o(i._malloc$realtime) refers to init_alloc.o(.text) for __Heap_Full
    heap2.o(i._malloc$realtime) refers to fdtree.o(i._FDTree_RemoveNode) for _FDTree_RemoveNode
    heap2.o(i._malloc$realtime) refers to fdtree.o(i._FDTree_Insert) for _FDTree_Insert
    heap2.o(i._posix_memalign$realtime) refers to rt_heap_descriptor.o(.text) for __rt_heap_descriptor
    heap2.o(i._posix_memalign$realtime) refers to fdtree.o(i._FDTree_FindFirst) for _FDTree_FindFirst
    heap2.o(i._posix_memalign$realtime) refers to init_alloc.o(.text) for __Heap_Full
    heap2.o(i._posix_memalign$realtime) refers to fdtree.o(i._FDTree_RemoveNode) for _FDTree_RemoveNode
    heap2.o(i._posix_memalign$realtime) refers to fdtree.o(i._FDTree_Insert) for _FDTree_Insert
    heap2.o(i._realloc$realtime) refers to rt_heap_descriptor.o(.text) for __rt_heap_descriptor
    heap2.o(i._realloc$realtime) refers to fdtree.o(i._FDTree_Insert) for _FDTree_Insert
    heap2.o(i._realloc$realtime) refers to h1_free.o(.text) for free
    heap2.o(i._realloc$realtime) refers to h1_alloc.o(.text) for malloc
    heap2.o(i._realloc$realtime) refers to fdtree.o(i._FDTree_Delete) for _FDTree_Delete
    heap2.o(i._realloc$realtime) refers to rt_memcpy_w.o(.text) for __aeabi_memcpy4
    heap2mt.o(i._FDIterate) refers to heap2mt.o(.conststring) for .conststring
    heap2mt.o(i.___Heap_Initialize$realtime$concurrent) refers to mutex_dummy.o(.text) for _mutex_initialize
    heap2mt.o(i.___Heap_ProvideMemory$realtime$concurrent) refers to fdtree.o(i._FDTree_Delete) for _FDTree_Delete
    heap2mt.o(i.___Heap_ProvideMemory$realtime$concurrent) refers to fdtree.o(i._FDTree_Insert) for _FDTree_Insert
    heap2mt.o(i.___Heap_Stats$realtime$concurrent) refers to heap2mt.o(i._Heap2_StatsIterate) for _Heap2_StatsIterate
    heap2mt.o(i.___Heap_Valid$realtime$concurrent) refers to heap2mt.o(i._FDIterate) for _FDIterate
    heap2mt.o(i.___Heap_Valid$realtime$concurrent) refers to heap2mt.o(.conststring) for .conststring
    heap2mt.o(i._free$realtime$concurrent) refers to rt_heap_descriptor.o(.text) for __rt_heap_descriptor
    heap2mt.o(i._free$realtime$concurrent) refers to fdtree.o(i._FDTree_Delete) for _FDTree_Delete
    heap2mt.o(i._free$realtime$concurrent) refers to fdtree.o(i._FDTree_Insert) for _FDTree_Insert
    heap2mt.o(i._malloc$realtime$concurrent) refers to rt_heap_descriptor.o(.text) for __rt_heap_descriptor
    heap2mt.o(i._malloc$realtime$concurrent) refers to fdtree.o(i._FDTree_FindFirst) for _FDTree_FindFirst
    heap2mt.o(i._malloc$realtime$concurrent) refers to init_alloc.o(.text) for __Heap_Full
    heap2mt.o(i._malloc$realtime$concurrent) refers to fdtree.o(i._FDTree_RemoveNode) for _FDTree_RemoveNode
    heap2mt.o(i._malloc$realtime$concurrent) refers to fdtree.o(i._FDTree_Insert) for _FDTree_Insert
    heap2mt.o(i._posix_memalign$realtime$concurrent) refers to rt_heap_descriptor.o(.text) for __rt_heap_descriptor
    heap2mt.o(i._posix_memalign$realtime$concurrent) refers to fdtree.o(i._FDTree_FindFirst) for _FDTree_FindFirst
    heap2mt.o(i._posix_memalign$realtime$concurrent) refers to init_alloc.o(.text) for __Heap_Full
    heap2mt.o(i._posix_memalign$realtime$concurrent) refers to fdtree.o(i._FDTree_RemoveNode) for _FDTree_RemoveNode
    heap2mt.o(i._posix_memalign$realtime$concurrent) refers to fdtree.o(i._FDTree_Insert) for _FDTree_Insert
    heap2mt.o(i._realloc$realtime$concurrent) refers to rt_heap_descriptor.o(.text) for __rt_heap_descriptor
    heap2mt.o(i._realloc$realtime$concurrent) refers to fdtree.o(i._FDTree_Insert) for _FDTree_Insert
    heap2mt.o(i._realloc$realtime$concurrent) refers to h1_free.o(.text) for free
    heap2mt.o(i._realloc$realtime$concurrent) refers to h1_alloc.o(.text) for malloc
    heap2mt.o(i._realloc$realtime$concurrent) refers to fdtree.o(i._FDTree_Delete) for _FDTree_Delete
    heap2mt.o(i._realloc$realtime$concurrent) refers to rt_memcpy_w.o(.text) for __aeabi_memcpy4
    vfprintf.o(.text) refers (Special) to _printf_a.o(.ARM.Collect$$_printf_percent$$00000006) for _printf_a
    vfprintf.o(.text) refers (Special) to _printf_c.o(.ARM.Collect$$_printf_percent$$00000013) for _printf_c
    vfprintf.o(.text) refers (Special) to _printf_charcount.o(.text) for _printf_charcount
    vfprintf.o(.text) refers (Special) to _printf_d.o(.ARM.Collect$$_printf_percent$$00000009) for _printf_d
    vfprintf.o(.text) refers (Special) to _printf_e.o(.ARM.Collect$$_printf_percent$$00000004) for _printf_e
    vfprintf.o(.text) refers (Special) to _printf_f.o(.ARM.Collect$$_printf_percent$$00000003) for _printf_f
    vfprintf.o(.text) refers (Special) to printf1.o(x$fpl$printf1) for _printf_fp_dec
    vfprintf.o(.text) refers (Special) to printf2.o(x$fpl$printf2) for _printf_fp_hex
    vfprintf.o(.text) refers (Special) to _printf_g.o(.ARM.Collect$$_printf_percent$$00000005) for _printf_g
    vfprintf.o(.text) refers (Special) to _printf_i.o(.ARM.Collect$$_printf_percent$$00000008) for _printf_i
    vfprintf.o(.text) refers (Special) to _printf_dec.o(.text) for _printf_int_dec
    vfprintf.o(.text) refers (Special) to _printf_l.o(.ARM.Collect$$_printf_percent$$00000012) for _printf_l
    vfprintf.o(.text) refers (Special) to _printf_lc.o(.ARM.Collect$$_printf_percent$$00000015) for _printf_lc
    vfprintf.o(.text) refers (Special) to _printf_ll.o(.ARM.Collect$$_printf_percent$$00000007) for _printf_ll
    vfprintf.o(.text) refers (Special) to _printf_lld.o(.ARM.Collect$$_printf_percent$$0000000E) for _printf_lld
    vfprintf.o(.text) refers (Special) to _printf_lli.o(.ARM.Collect$$_printf_percent$$0000000D) for _printf_lli
    vfprintf.o(.text) refers (Special) to _printf_llo.o(.ARM.Collect$$_printf_percent$$00000010) for _printf_llo
    vfprintf.o(.text) refers (Special) to _printf_llu.o(.ARM.Collect$$_printf_percent$$0000000F) for _printf_llu
    vfprintf.o(.text) refers (Special) to _printf_llx.o(.ARM.Collect$$_printf_percent$$00000011) for _printf_llx
    vfprintf.o(.text) refers (Special) to _printf_longlong_dec.o(.text) for _printf_longlong_dec
    vfprintf.o(.text) refers (Special) to _printf_hex_int_ll_ptr.o(.text) for _printf_longlong_hex
    vfprintf.o(.text) refers (Special) to _printf_oct_int_ll.o(.text) for _printf_longlong_oct
    vfprintf.o(.text) refers (Special) to _printf_ls.o(.ARM.Collect$$_printf_percent$$00000016) for _printf_ls
    vfprintf.o(.text) refers (Special) to _printf_n.o(.ARM.Collect$$_printf_percent$$00000001) for _printf_n
    vfprintf.o(.text) refers (Special) to _printf_o.o(.ARM.Collect$$_printf_percent$$0000000B) for _printf_o
    vfprintf.o(.text) refers (Special) to _printf_p.o(.ARM.Collect$$_printf_percent$$00000002) for _printf_p
    vfprintf.o(.text) refers (Special) to _printf_percent.o(.ARM.Collect$$_printf_percent$$00000000) for _printf_percent
    vfprintf.o(.text) refers (Special) to _printf_pad.o(.text) for _printf_post_padding
    vfprintf.o(.text) refers (Special) to _printf_s.o(.ARM.Collect$$_printf_percent$$00000014) for _printf_s
    vfprintf.o(.text) refers (Special) to _printf_str.o(.text) for _printf_str
    vfprintf.o(.text) refers (Special) to _printf_truncate.o(.text) for _printf_truncate_signed
    vfprintf.o(.text) refers (Special) to _printf_u.o(.ARM.Collect$$_printf_percent$$0000000A) for _printf_u
    vfprintf.o(.text) refers (Special) to _printf_wctomb.o(.text) for _printf_wctomb
    vfprintf.o(.text) refers (Special) to _printf_x.o(.ARM.Collect$$_printf_percent$$0000000C) for _printf_x
    vfprintf.o(.text) refers to _printf_char_file.o(.text) for _printf_char_file
    c89vfprintf.o(.text) refers (Special) to _printf_a.o(.ARM.Collect$$_printf_percent$$00000006) for _printf_a
    c89vfprintf.o(.text) refers (Special) to _printf_c.o(.ARM.Collect$$_printf_percent$$00000013) for _printf_c
    c89vfprintf.o(.text) refers (Special) to _printf_charcount.o(.text) for _printf_charcount
    c89vfprintf.o(.text) refers (Special) to _printf_d.o(.ARM.Collect$$_printf_percent$$00000009) for _printf_d
    c89vfprintf.o(.text) refers (Special) to _printf_e.o(.ARM.Collect$$_printf_percent$$00000004) for _printf_e
    c89vfprintf.o(.text) refers (Special) to _printf_f.o(.ARM.Collect$$_printf_percent$$00000003) for _printf_f
    c89vfprintf.o(.text) refers (Special) to printf1.o(x$fpl$printf1) for _printf_fp_dec
    c89vfprintf.o(.text) refers (Special) to _printf_g.o(.ARM.Collect$$_printf_percent$$00000005) for _printf_g
    c89vfprintf.o(.text) refers (Special) to _printf_i.o(.ARM.Collect$$_printf_percent$$00000008) for _printf_i
    c89vfprintf.o(.text) refers (Special) to _printf_dec.o(.text) for _printf_int_dec
    c89vfprintf.o(.text) refers (Special) to _printf_l.o(.ARM.Collect$$_printf_percent$$00000012) for _printf_l
    c89vfprintf.o(.text) refers (Special) to _printf_lc.o(.ARM.Collect$$_printf_percent$$00000015) for _printf_lc
    c89vfprintf.o(.text) refers (Special) to _printf_ll.o(.ARM.Collect$$_printf_percent$$00000007) for _printf_ll
    c89vfprintf.o(.text) refers (Special) to _printf_lld.o(.ARM.Collect$$_printf_percent$$0000000E) for _printf_lld
    c89vfprintf.o(.text) refers (Special) to _printf_lli.o(.ARM.Collect$$_printf_percent$$0000000D) for _printf_lli
    c89vfprintf.o(.text) refers (Special) to _printf_llo.o(.ARM.Collect$$_printf_percent$$00000010) for _printf_llo
    c89vfprintf.o(.text) refers (Special) to _printf_llu.o(.ARM.Collect$$_printf_percent$$0000000F) for _printf_llu
    c89vfprintf.o(.text) refers (Special) to _printf_llx.o(.ARM.Collect$$_printf_percent$$00000011) for _printf_llx
    c89vfprintf.o(.text) refers (Special) to _printf_longlong_dec.o(.text) for _printf_longlong_dec
    c89vfprintf.o(.text) refers (Special) to _printf_hex_int_ll_ptr.o(.text) for _printf_longlong_hex
    c89vfprintf.o(.text) refers (Special) to _printf_oct_int_ll.o(.text) for _printf_longlong_oct
    c89vfprintf.o(.text) refers (Special) to _printf_ls.o(.ARM.Collect$$_printf_percent$$00000016) for _printf_ls
    c89vfprintf.o(.text) refers (Special) to _printf_n.o(.ARM.Collect$$_printf_percent$$00000001) for _printf_n
    c89vfprintf.o(.text) refers (Special) to _printf_o.o(.ARM.Collect$$_printf_percent$$0000000B) for _printf_o
    c89vfprintf.o(.text) refers (Special) to _printf_p.o(.ARM.Collect$$_printf_percent$$00000002) for _printf_p
    c89vfprintf.o(.text) refers (Special) to _printf_percent.o(.ARM.Collect$$_printf_percent$$00000000) for _printf_percent
    c89vfprintf.o(.text) refers (Special) to _printf_pad.o(.text) for _printf_post_padding
    c89vfprintf.o(.text) refers (Special) to _printf_s.o(.ARM.Collect$$_printf_percent$$00000014) for _printf_s
    c89vfprintf.o(.text) refers (Special) to _printf_str.o(.text) for _printf_str
    c89vfprintf.o(.text) refers (Special) to _printf_truncate.o(.text) for _printf_truncate_signed
    c89vfprintf.o(.text) refers (Special) to _printf_u.o(.ARM.Collect$$_printf_percent$$0000000A) for _printf_u
    c89vfprintf.o(.text) refers (Special) to _printf_wctomb.o(.text) for _printf_wctomb
    c89vfprintf.o(.text) refers (Special) to _printf_x.o(.ARM.Collect$$_printf_percent$$0000000C) for _printf_x
    c89vfprintf.o(.text) refers to _printf_char_file.o(.text) for _printf_char_file
    __2fprintf.o(.text) refers to _printf_char_file.o(.text) for _printf_char_file
    __2sprintf.o(.text) refers to _printf_char_common.o(.text) for _printf_char_common
    __2sprintf.o(.text) refers to _sputc.o(.text) for _sputc
    noretval__2fprintf.o(.text) refers to _printf_char_file.o(.text) for _printf_char_file
    noretval__2sprintf.o(.text) refers to _printf_char_common.o(.text) for _printf_char_common
    noretval__2sprintf.o(.text) refers to _sputc.o(.text) for _sputc
    __printf.o(.text) refers to _printf_percent.o(.ARM.Collect$$_printf_percent$$00000000) for _printf_percent
    _printf_str.o(.text) refers (Special) to _printf_char.o(.text) for _printf_cs_common
    _printf_str.o(.text) refers (Weak) to _printf_pad.o(.text) for _printf_pre_padding
    _printf_str.o(.text) refers (Weak) to _printf_pad.o(.text) for _printf_post_padding
    _printf_dec.o(.text) refers (Weak) to _printf_truncate.o(.text) for _printf_truncate_signed
    _printf_dec.o(.text) refers (Weak) to _printf_truncate.o(.text) for _printf_truncate_unsigned
    _printf_dec.o(.text) refers to _printf_intcommon.o(.text) for _printf_int_common
    _printf_hex_ll.o(.text) refers to _printf_intcommon.o(.text) for _printf_int_common
    _printf_hex_ll.o(.text) refers to _printf_hex_ll.o(.constdata) for .constdata
    _printf_hex_int.o(.text) refers (Weak) to _printf_truncate.o(.text) for _printf_truncate_unsigned
    _printf_hex_int.o(.text) refers to _printf_intcommon.o(.text) for _printf_int_common
    _printf_hex_int.o(.text) refers to _printf_hex_int.o(.constdata) for .constdata
    _printf_hex_int_ll.o(.text) refers to _printf_intcommon.o(.text) for _printf_int_common
    _printf_hex_int_ll.o(.text) refers (Weak) to _printf_truncate.o(.text) for _printf_truncate_unsigned
    _printf_hex_int_ll.o(.text) refers to _printf_hex_int_ll.o(.constdata) for .constdata
    _printf_hex_ptr.o(.text) refers to _printf_intcommon.o(.text) for _printf_int_common
    _printf_hex_ptr.o(.text) refers to _printf_hex_ptr.o(.constdata) for .constdata
    _printf_hex_int_ptr.o(.text) refers to _printf_intcommon.o(.text) for _printf_int_common
    _printf_hex_int_ptr.o(.text) refers (Weak) to _printf_truncate.o(.text) for _printf_truncate_unsigned
    _printf_hex_int_ptr.o(.text) refers to _printf_hex_int_ptr.o(.constdata) for .constdata
    _printf_hex_ll_ptr.o(.text) refers to _printf_intcommon.o(.text) for _printf_int_common
    _printf_hex_ll_ptr.o(.text) refers to _printf_hex_ll_ptr.o(.constdata) for .constdata
    _printf_hex_int_ll_ptr.o(.text) refers to _printf_intcommon.o(.text) for _printf_int_common
    _printf_hex_int_ll_ptr.o(.text) refers (Weak) to _printf_truncate.o(.text) for _printf_truncate_unsigned
    _printf_hex_int_ll_ptr.o(.text) refers to _printf_hex_int_ll_ptr.o(.constdata) for .constdata
    __printf_flags.o(.text) refers to _printf_percent.o(.ARM.Collect$$_printf_percent$$00000000) for _printf_percent
    __printf_flags.o(.text) refers to __printf_flags.o(.constdata) for .constdata
    __printf_ss.o(.text) refers to _printf_percent.o(.ARM.Collect$$_printf_percent$$00000000) for _printf_percent
    __printf_flags_ss.o(.text) refers to _printf_percent.o(.ARM.Collect$$_printf_percent$$00000000) for _printf_percent
    __printf_flags_ss.o(.text) refers to __printf_flags_ss.o(.constdata) for .constdata
    __printf_wp.o(.text) refers to __printf_wp.o(i._is_digit) for _is_digit
    __printf_wp.o(.text) refers to _printf_percent.o(.ARM.Collect$$_printf_percent$$00000000) for _printf_percent
    __printf_flags_wp.o(.text) refers to __printf_wp.o(i._is_digit) for _is_digit
    __printf_flags_wp.o(.text) refers to _printf_percent.o(.ARM.Collect$$_printf_percent$$00000000) for _printf_percent
    __printf_flags_wp.o(.text) refers to __printf_flags_wp.o(.constdata) for .constdata
    __printf_ss_wp.o(.text) refers to __printf_wp.o(i._is_digit) for _is_digit
    __printf_ss_wp.o(.text) refers to _printf_percent.o(.ARM.Collect$$_printf_percent$$00000000) for _printf_percent
    __printf_flags_ss_wp.o(.text) refers to __printf_wp.o(i._is_digit) for _is_digit
    __printf_flags_ss_wp.o(.text) refers to _printf_percent.o(.ARM.Collect$$_printf_percent$$00000000) for _printf_percent
    __printf_flags_ss_wp.o(.text) refers to __printf_flags_ss_wp.o(.constdata) for .constdata
    _printf_s.o(.ARM.Collect$$_printf_percent$$00000014) refers (Weak) to _printf_char.o(.text) for _printf_string
    _printf_p.o(.ARM.Collect$$_printf_percent$$00000002) refers (Weak) to _printf_hex_int_ll_ptr.o(.text) for _printf_hex_ptr
    _printf_d.o(.ARM.Collect$$_printf_percent$$00000009) refers (Weak) to _printf_dec.o(.text) for _printf_int_dec
    _printf_percent.o(.ARM.Collect$$_printf_percent$$00000000) refers (Special) to _printf_percent_end.o(.ARM.Collect$$_printf_percent$$00000017) for _printf_percent_end
    vfscanf.o(.text) refers (Special) to _scanf_int.o(.text) for _scanf_int
    vfscanf.o(.text) refers (Special) to _scanf_longlong.o(.text) for _scanf_longlong
    vfscanf.o(.text) refers (Special) to _scanf_mbtowc.o(.text) for _scanf_mbtowc
    vfscanf.o(.text) refers (Special) to scanf1.o(x$fpl$scanf1) for _scanf_real
    vfscanf.o(.text) refers (Special) to _scanf_str.o(.text) for _scanf_string
    vfscanf.o(.text) refers (Special) to _scanf_wctomb.o(.text) for _scanf_wctomb
    vfscanf.o(.text) refers (Special) to _scanf_wstr.o(.text) for _scanf_wstring
    vfscanf.o(.text) refers to scanf_char_file.o(.text) for __vfscanf_char_file
    __0sscanf.o(.text) refers to scanf_char.o(.text) for __vfscanf_char
    __0sscanf.o(.text) refers to _sgetc.o(.text) for _sgetc
    _scanf_int.o(.text) refers to _chval.o(.text) for _chval
    fflush.o(.text) refers to stdio.o(.text) for _fflush
    fflush.o(.text) refers to fseek.o(.text) for _fseek
    fflush.o(.text) refers to stdio_streams.o(.bss) for __stdin
    fgetc.o(i.fgetc) refers to filbuf.o(.text) for __filbuf_byte
    fgets.o(.text) refers to fgetc.o(i.fgetc) for fgetc
    fgets.o(.text) refers to ferror.o(.text) for ferror
    fputc.o(i.fputc) refers to flsbuf.o(.text) for __flsbuf_byte
    fputs.o(.text) refers to fputc.o(i.fputc) for fputc
    fopen.o(.text) refers to fclose.o(.text) for _fclose_internal
    fopen.o(.text) refers to retarget.o(i._sys_open) for _sys_open
    fopen.o(.text) refers to fseek.o(.text) for _fseek
    fopen.o(.text) refers to h1_alloc.o(.text) for malloc
    fopen.o(.text) refers to rt_memclr_w.o(.text) for __aeabi_memclr4
    fopen.o(.text) refers to stdio_streams.o(.bss) for __stdin
    setbuf.o(.text) refers to setvbuf.o(.text) for setvbuf
    stdio_streams.o(.bss) refers (Special) to initio.o(.text) for _initio
    stdio_streams.o(.bss) refers (Special) to initio.o(.text) for _initio
    stdio_streams.o(.bss) refers (Special) to initio.o(.text) for _initio
    stdio_streams.o(.data) refers (Special) to initio.o(.text) for _initio
    stdio_streams.o(.data) refers (Special) to initio.o(.text) for _initio
    stdio_streams.o(.data) refers (Special) to initio.o(.text) for _initio
    fclose.o(.text) refers to stdio.o(.text) for _fflush
    fclose.o(.text) refers to retarget.o(i._sys_close) for _sys_close
    fclose.o(.text) refers to h1_free.o(.text) for free
    fclose.o(.text) refers to rt_memclr_w.o(.text) for __aeabi_memclr4
    fclose_locked.o(.text) refers to fclose.o(.text) for _fclose_internal
    fclose_locked.o(.text) refers to streamlock.o(.data) for _stream_list_lock
    fflush_locked.o(.text) refers to stdio.o(.text) for _fflush
    fflush_locked.o(.text) refers to fseek.o(.text) for _fseek
    fflush_locked.o(.text) refers to fflush.o(.text) for _do_fflush
    fflush_locked.o(.text) refers to streamlock.o(.data) for _stream_list_lock
    fflush_locked.o(.text) refers to stdio_streams.o(.bss) for __stdin
    fopen_locked.o(.text) refers to fclose.o(.text) for _fclose_internal
    fopen_locked.o(.text) refers to retarget.o(i._sys_open) for _sys_open
    fopen_locked.o(.text) refers to fseek.o(.text) for _fseek
    fopen_locked.o(.text) refers to h1_alloc.o(.text) for malloc
    fopen_locked.o(.text) refers to rt_memclr_w.o(.text) for __aeabi_memclr4
    fopen_locked.o(.text) refers to streamlock.o(.data) for _stream_list_lock
    fopen_locked.o(.text) refers to stdio_streams.o(.bss) for __stdin
    atexit_aeabi.o(.text) refers to aeabi_atexit.o(.text) for __aeabi_atexit
    atexit_aeabi.o(.ARM.exidx) refers to atexit_aeabi.o(.text) for .text
    aeabi_atexit.o(.text) refers (Special) to cxa_finalize.o(.text) for __cxa_finalize
    aeabi_atexit.o(.text) refers to h1_alloc.o(.text) for malloc
    aeabi_atexit.o(.text) refers to rt_ddtor_pointer_addr.o(.text) for __rt_ddtor_pointer_addr
    aeabi_atexit.o(.ARM.exidx) refers (Special) to cxa_finalize.o(.text) for __cxa_finalize
    aeabi_atexit.o(.ARM.exidx) refers to aeabi_atexit.o(.text) for .text
    assert.o(.text) refers to assert_stdio.o(.text) for __assert_puts
    assert.o(.text) refers to abort.o(.text) for abort
    rt_memmove_w.o(.text) refers to rt_memcpy_w.o(.text) for __aeabi_memcpy4
    strncpy.o(.text) refers to rt_memclr.o(.text) for __aeabi_memclr
    __main.o(!!!main) refers to __rtentry.o(.ARM.Collect$$rtentry$$00000000) for __rt_entry
    init_aeabi.o(.emb_text) refers (Special) to libinit2.o(.ARM.Collect$$libinit$$00000031) for __rt_lib_init_cpp_2
    init_aeabi.o(.init_array) refers (Special) to libinit2.o(.ARM.Collect$$libinit$$00000031) for __rt_lib_init_cpp_2
    init_aeabi.o(.init_array) refers to init_aeabi.o(.text) for __cpp_initialize__aeabi_
    init_aeabi.o(.dummy_text) refers (Special) to libinit2.o(.ARM.Collect$$libinit$$00000031) for __rt_lib_init_cpp_2
    init_aeabi.o(.text) refers (Special) to libinit2.o(.ARM.Collect$$libinit$$00000031) for __rt_lib_init_cpp_2
    init_aeabi.o(.ARM.exidx) refers (Special) to libinit2.o(.ARM.Collect$$libinit$$00000031) for __rt_lib_init_cpp_2
    init_aeabi.o(.ARM.exidx) refers to init_aeabi.o(.text) for .text
    array_new.o(i._Znaj) refers to new.o(i._Znwj) for operator new(unsigned)
    array_new.o(.ARM.exidx) refers to array_new.o(i._Znaj) for i._Znaj
    array_new.o(.ARM.exidx) refers to unwind_pr0.o(.text) for __aeabi_unwind_cpp_pr0
    array_new.o(.ARM.exidx) refers to array_new.o(.ARM.extab) for .extab._Znaj
    array_new.o(.ARM.extab) refers to arm_callunex_noexceptions.o(.text) for __cxa_call_unexpected
    array_new.o(.ARM.extab) refers to bad_alloc_dtor.o(.constdata__ZTISt9bad_alloc) for typeinfo for std::bad_alloc
    delete.o(i._ZdlPv) refers to h1_free.o(.text) for free
    delete.o(.ARM.exidx) refers to delete.o(i._ZdlPv) for i._ZdlPv
    new.o(i._Znwj) refers to rt_new_handler_addr.o(.text) for __rt_new_handler_addr
    new.o(i._Znwj) refers to h1_alloc.o(.text) for malloc
    new.o(i._Znwj) refers to arm_newhandler_noexceptions.o(.text) for __default_new_handler()
    new.o(.ARM.exidx) refers to new.o(i._Znwj) for i._Znwj
    new.o(.ARM.exidx) refers to unwind_pr0.o(.text) for __aeabi_unwind_cpp_pr0
    new.o(.ARM.exidx) refers to new.o(.ARM.extab) for .extab._Znwj
    new.o(.ARM.extab) refers to arm_callunex_noexceptions.o(.text) for __cxa_call_unexpected
    new.o(.ARM.extab) refers to bad_alloc_dtor.o(.constdata__ZTISt9bad_alloc) for typeinfo for std::bad_alloc
    pure_virt.o(i.__cxa_pure_virtual) refers to defsig_pvfn_outer.o(.text) for __rt_SIGPVFN
    pure_virt.o(.ARM.exidx) refers to pure_virt.o(i.__cxa_pure_virtual) for i.__cxa_pure_virtual
    lib_rtti_impl.o(i._ZN10__cxxabiv116__enum_type_infoD0Ev) refers to lib_rtti_impl.o(i._ZN10__cxxabiv116__enum_type_infoD1Ev) for __cxxabiv1::__enum_type_info::~__enum_type_info()
    lib_rtti_impl.o(i._ZN10__cxxabiv117__array_type_infoD0Ev) refers to lib_rtti_impl.o(i._ZN10__cxxabiv117__array_type_infoD1Ev) for __cxxabiv1::__array_type_info::~__array_type_info()
    lib_rtti_impl.o(i._ZN10__cxxabiv117__class_type_infoD0Ev) refers to lib_rtti_impl.o(i._ZN10__cxxabiv117__class_type_infoD1Ev) for __cxxabiv1::__class_type_info::~__class_type_info()
    lib_rtti_impl.o(i._ZN10__cxxabiv117__pbase_type_infoD0Ev) refers to lib_rtti_impl.o(i._ZN10__cxxabiv117__pbase_type_infoD1Ev) for __cxxabiv1::__pbase_type_info::~__pbase_type_info()
    lib_rtti_impl.o(i._ZN10__cxxabiv119__pointer_type_infoD0Ev) refers to lib_rtti_impl.o(i._ZN10__cxxabiv119__pointer_type_infoD1Ev) for __cxxabiv1::__pointer_type_info::~__pointer_type_info()
    lib_rtti_impl.o(i._ZN10__cxxabiv119__pointer_type_infoD1Ev) refers to lib_rtti_impl.o(i._ZN10__cxxabiv117__pbase_type_infoD1Ev) for __cxxabiv1::__pbase_type_info::~__pbase_type_info()
    lib_rtti_impl.o(i._ZN10__cxxabiv120__function_type_infoD0Ev) refers to lib_rtti_impl.o(i._ZN10__cxxabiv120__function_type_infoD1Ev) for __cxxabiv1::__function_type_info::~__function_type_info()
    lib_rtti_impl.o(i._ZN10__cxxabiv120__si_class_type_infoD0Ev) refers to lib_rtti_impl.o(i._ZN10__cxxabiv120__si_class_type_infoD1Ev) for __cxxabiv1::__si_class_type_info::~__si_class_type_info()
    lib_rtti_impl.o(i._ZN10__cxxabiv120__si_class_type_infoD1Ev) refers to lib_rtti_impl.o(i._ZN10__cxxabiv117__class_type_infoD1Ev) for __cxxabiv1::__class_type_info::~__class_type_info()
    lib_rtti_impl.o(i._ZN10__cxxabiv121__vmi_class_type_infoD0Ev) refers to lib_rtti_impl.o(i._ZN10__cxxabiv121__vmi_class_type_infoD1Ev) for __cxxabiv1::__vmi_class_type_info::~__vmi_class_type_info()
    lib_rtti_impl.o(i._ZN10__cxxabiv121__vmi_class_type_infoD1Ev) refers to lib_rtti_impl.o(i._ZN10__cxxabiv117__class_type_infoD1Ev) for __cxxabiv1::__class_type_info::~__class_type_info()
    lib_rtti_impl.o(i._ZN10__cxxabiv123__fundamental_type_infoD0Ev) refers to lib_rtti_impl.o(i._ZN10__cxxabiv123__fundamental_type_infoD1Ev) for __cxxabiv1::__fundamental_type_info::~__fundamental_type_info()
    lib_rtti_impl.o(i._ZN10__cxxabiv129__pointer_to_member_type_infoD0Ev) refers to lib_rtti_impl.o(i._ZN10__cxxabiv129__pointer_to_member_type_infoD1Ev) for __cxxabiv1::__pointer_to_member_type_info::~__pointer_to_member_type_info()
    lib_rtti_impl.o(i._ZN10__cxxabiv129__pointer_to_member_type_infoD1Ev) refers to lib_rtti_impl.o(i._ZN10__cxxabiv117__pbase_type_infoD1Ev) for __cxxabiv1::__pbase_type_info::~__pbase_type_info()
    lib_rtti_impl.o(.ARM.exidx) refers to lib_rtti_impl.o(i._ZN10__cxxabiv123__fundamental_type_infoD1Ev) for i._ZN10__cxxabiv123__fundamental_type_infoD1Ev
    lib_rtti_impl.o(.ARM.exidx) refers to lib_rtti_impl.o(i._ZN10__cxxabiv123__fundamental_type_infoD0Ev) for i._ZN10__cxxabiv123__fundamental_type_infoD0Ev
    lib_rtti_impl.o(.ARM.exidx) refers to lib_rtti_impl.o(i._ZN10__cxxabiv117__array_type_infoD1Ev) for i._ZN10__cxxabiv117__array_type_infoD1Ev
    lib_rtti_impl.o(.ARM.exidx) refers to lib_rtti_impl.o(i._ZN10__cxxabiv117__array_type_infoD0Ev) for i._ZN10__cxxabiv117__array_type_infoD0Ev
    lib_rtti_impl.o(.ARM.exidx) refers to lib_rtti_impl.o(i._ZN10__cxxabiv120__function_type_infoD1Ev) for i._ZN10__cxxabiv120__function_type_infoD1Ev
    lib_rtti_impl.o(.ARM.exidx) refers to lib_rtti_impl.o(i._ZN10__cxxabiv120__function_type_infoD0Ev) for i._ZN10__cxxabiv120__function_type_infoD0Ev
    lib_rtti_impl.o(.ARM.exidx) refers to lib_rtti_impl.o(i._ZN10__cxxabiv116__enum_type_infoD1Ev) for i._ZN10__cxxabiv116__enum_type_infoD1Ev
    lib_rtti_impl.o(.ARM.exidx) refers to lib_rtti_impl.o(i._ZN10__cxxabiv116__enum_type_infoD0Ev) for i._ZN10__cxxabiv116__enum_type_infoD0Ev
    lib_rtti_impl.o(.ARM.exidx) refers to lib_rtti_impl.o(i._ZN10__cxxabiv117__class_type_infoD1Ev) for i._ZN10__cxxabiv117__class_type_infoD1Ev
    lib_rtti_impl.o(.ARM.exidx) refers to lib_rtti_impl.o(i._ZN10__cxxabiv117__class_type_infoD0Ev) for i._ZN10__cxxabiv117__class_type_infoD0Ev
    lib_rtti_impl.o(.ARM.exidx) refers to lib_rtti_impl.o(i._ZN10__cxxabiv120__si_class_type_infoD1Ev) for i._ZN10__cxxabiv120__si_class_type_infoD1Ev
    lib_rtti_impl.o(.ARM.exidx) refers to lib_rtti_impl.o(i._ZN10__cxxabiv120__si_class_type_infoD0Ev) for i._ZN10__cxxabiv120__si_class_type_infoD0Ev
    lib_rtti_impl.o(.ARM.exidx) refers to lib_rtti_impl.o(i._ZN10__cxxabiv121__vmi_class_type_infoD1Ev) for i._ZN10__cxxabiv121__vmi_class_type_infoD1Ev
    lib_rtti_impl.o(.ARM.exidx) refers to lib_rtti_impl.o(i._ZN10__cxxabiv121__vmi_class_type_infoD0Ev) for i._ZN10__cxxabiv121__vmi_class_type_infoD0Ev
    lib_rtti_impl.o(.ARM.exidx) refers to lib_rtti_impl.o(i._ZN10__cxxabiv117__pbase_type_infoD1Ev) for i._ZN10__cxxabiv117__pbase_type_infoD1Ev
    lib_rtti_impl.o(.ARM.exidx) refers to lib_rtti_impl.o(i._ZN10__cxxabiv117__pbase_type_infoD0Ev) for i._ZN10__cxxabiv117__pbase_type_infoD0Ev
    lib_rtti_impl.o(.ARM.exidx) refers to lib_rtti_impl.o(i._ZN10__cxxabiv119__pointer_type_infoD1Ev) for i._ZN10__cxxabiv119__pointer_type_infoD1Ev
    lib_rtti_impl.o(.ARM.exidx) refers to lib_rtti_impl.o(i._ZN10__cxxabiv119__pointer_type_infoD0Ev) for i._ZN10__cxxabiv119__pointer_type_infoD0Ev
    lib_rtti_impl.o(.ARM.exidx) refers to lib_rtti_impl.o(i._ZN10__cxxabiv129__pointer_to_member_type_infoD1Ev) for i._ZN10__cxxabiv129__pointer_to_member_type_infoD1Ev
    lib_rtti_impl.o(.ARM.exidx) refers to lib_rtti_impl.o(i._ZN10__cxxabiv129__pointer_to_member_type_infoD0Ev) for i._ZN10__cxxabiv129__pointer_to_member_type_infoD0Ev
    d2f.o(x$fpl$d2f) refers (Special) to usenofp.o(x$fpl$usenofp) for __I$use$fp
    d2f.o(x$fpl$d2f) refers to fretinf.o(x$fpl$fretinf) for __fpl_fretinf
    d2f.o(x$fpl$d2f) refers to dnaninf.o(x$fpl$dnaninf) for __fpl_dnaninf
    daddsub_clz.o(x$fpl$dadd) refers (Special) to usenofp.o(x$fpl$usenofp) for __I$use$fp
    daddsub_clz.o(x$fpl$dadd) refers to daddsub_clz.o(x$fpl$dsub) for _dsub1
    daddsub_clz.o(x$fpl$dadd) refers to dretinf.o(x$fpl$dretinf) for __fpl_dretinf
    daddsub_clz.o(x$fpl$dadd) refers to dnaninf.o(x$fpl$dnaninf) for __fpl_dnaninf
    daddsub_clz.o(x$fpl$drsb) refers (Special) to usenofp.o(x$fpl$usenofp) for __I$use$fp
    daddsub_clz.o(x$fpl$drsb) refers to daddsub_clz.o(x$fpl$dadd) for _dadd1
    daddsub_clz.o(x$fpl$drsb) refers to daddsub_clz.o(x$fpl$dsub) for _dsub1
    daddsub_clz.o(x$fpl$dsub) refers (Special) to usenofp.o(x$fpl$usenofp) for __I$use$fp
    daddsub_clz.o(x$fpl$dsub) refers to daddsub_clz.o(x$fpl$dadd) for _dadd1
    daddsub_clz.o(x$fpl$dsub) refers to dnaninf.o(x$fpl$dnaninf) for __fpl_dnaninf
    ddiv.o(x$fpl$drdiv) refers (Special) to usenofp.o(x$fpl$usenofp) for __I$use$fp
    ddiv.o(x$fpl$drdiv) refers to ddiv.o(x$fpl$ddiv) for ddiv_entry
    ddiv.o(x$fpl$ddiv) refers (Special) to usenofp.o(x$fpl$usenofp) for __I$use$fp
    ddiv.o(x$fpl$ddiv) refers to dretinf.o(x$fpl$dretinf) for __fpl_dretinf
    ddiv.o(x$fpl$ddiv) refers to dnaninf.o(x$fpl$dnaninf) for __fpl_dnaninf
    dfix.o(x$fpl$dfix) refers (Special) to usenofp.o(x$fpl$usenofp) for __I$use$fp
    dfix.o(x$fpl$dfix) refers to dnaninf.o(x$fpl$dnaninf) for __fpl_dnaninf
    dfix.o(x$fpl$dfixr) refers (Special) to usenofp.o(x$fpl$usenofp) for __I$use$fp
    dfix.o(x$fpl$dfixr) refers to dnaninf.o(x$fpl$dnaninf) for __fpl_dnaninf
    dflt_clz.o(x$fpl$dfltu) refers (Special) to usenofp.o(x$fpl$usenofp) for __I$use$fp
    dflt_clz.o(x$fpl$dflt) refers (Special) to usenofp.o(x$fpl$usenofp) for __I$use$fp
    dflt_clz.o(x$fpl$dfltn) refers (Special) to usenofp.o(x$fpl$usenofp) for __I$use$fp
    dleqf.o(x$fpl$dleqf) refers (Special) to usenofp.o(x$fpl$usenofp) for __I$use$fp
    dleqf.o(x$fpl$dleqf) refers to dnaninf.o(x$fpl$dnaninf) for __fpl_dnaninf
    dleqf.o(x$fpl$dleqf) refers to dcmpi.o(x$fpl$dcmpinf) for __fpl_dcmp_Inf
    dmul.o(x$fpl$dmul) refers (Special) to usenofp.o(x$fpl$usenofp) for __I$use$fp
    dmul.o(x$fpl$dmul) refers to dretinf.o(x$fpl$dretinf) for __fpl_dretinf
    dmul.o(x$fpl$dmul) refers to dnaninf.o(x$fpl$dnaninf) for __fpl_dnaninf
    drleqf.o(x$fpl$drleqf) refers (Special) to usenofp.o(x$fpl$usenofp) for __I$use$fp
    drleqf.o(x$fpl$drleqf) refers to dleqf.o(x$fpl$dleqf) for __fpl_dcmple_InfNaN
    f2d.o(x$fpl$f2d) refers (Special) to usenofp.o(x$fpl$usenofp) for __I$use$fp
    f2d.o(x$fpl$f2d) refers to fnaninf.o(x$fpl$fnaninf) for __fpl_fnaninf
    f2d.o(x$fpl$f2d) refers to dretinf.o(x$fpl$dretinf) for __fpl_dretinf
    cos.o(i.__hardfp_cos) refers (Special) to usenofp.o(x$fpl$usenofp) for __I$use$fp
    cos.o(i.__hardfp_cos) refers to _rserrno.o(.text) for __set_errno
    cos.o(i.__hardfp_cos) refers to dunder.o(i.__mathlib_dbl_invalid) for __mathlib_dbl_invalid
    cos.o(i.__hardfp_cos) refers to dunder.o(i.__mathlib_dbl_infnan) for __mathlib_dbl_infnan
    cos.o(i.__hardfp_cos) refers to rred.o(i.__ieee754_rem_pio2) for __ieee754_rem_pio2
    cos.o(i.__hardfp_cos) refers to sin_i.o(i.__kernel_sin) for __kernel_sin
    cos.o(i.__hardfp_cos) refers to cos_i.o(i.__kernel_cos) for __kernel_cos
    cos.o(i.__hardfp_cos) refers to basic.o(x$fpl$basic) for __aeabi_dneg
    cos.o(i.__softfp_cos) refers (Special) to usenofp.o(x$fpl$usenofp) for __I$use$fp
    cos.o(i.__softfp_cos) refers to cos.o(i.__hardfp_cos) for __hardfp_cos
    cos.o(i.cos) refers (Special) to usenofp.o(x$fpl$usenofp) for __I$use$fp
    cos.o(i.cos) refers to cos.o(i.__hardfp_cos) for __hardfp_cos
    cos_x.o(i.____hardfp_cos$lsc) refers (Special) to usenofp.o(x$fpl$usenofp) for __I$use$fp
    cos_x.o(i.____hardfp_cos$lsc) refers to _rserrno.o(.text) for __set_errno
    cos_x.o(i.____hardfp_cos$lsc) refers to dunder.o(i.__mathlib_dbl_infnan) for __mathlib_dbl_infnan
    cos_x.o(i.____hardfp_cos$lsc) refers to rred.o(i.__ieee754_rem_pio2) for __ieee754_rem_pio2
    cos_x.o(i.____hardfp_cos$lsc) refers to sin_i.o(i.__kernel_sin) for __kernel_sin
    cos_x.o(i.____hardfp_cos$lsc) refers to cos_i.o(i.__kernel_cos) for __kernel_cos
    cos_x.o(i.____hardfp_cos$lsc) refers to basic.o(x$fpl$basic) for __aeabi_dneg
    cos_x.o(i.____softfp_cos$lsc) refers (Special) to usenofp.o(x$fpl$usenofp) for __I$use$fp
    cos_x.o(i.____softfp_cos$lsc) refers to cos_x.o(i.____hardfp_cos$lsc) for ____hardfp_cos$lsc
    cos_x.o(i.__cos$lsc) refers (Special) to usenofp.o(x$fpl$usenofp) for __I$use$fp
    cos_x.o(i.__cos$lsc) refers to cos_x.o(i.____hardfp_cos$lsc) for ____hardfp_cos$lsc
    sin.o(i.__hardfp_sin) refers (Special) to usenofp.o(x$fpl$usenofp) for __I$use$fp
    sin.o(i.__hardfp_sin) refers to _rserrno.o(.text) for __set_errno
    sin.o(i.__hardfp_sin) refers to dunder.o(i.__mathlib_dbl_invalid) for __mathlib_dbl_invalid
    sin.o(i.__hardfp_sin) refers to dunder.o(i.__mathlib_dbl_infnan) for __mathlib_dbl_infnan
    sin.o(i.__hardfp_sin) refers to rred.o(i.__ieee754_rem_pio2) for __ieee754_rem_pio2
    sin.o(i.__hardfp_sin) refers to cos_i.o(i.__kernel_cos) for __kernel_cos
    sin.o(i.__hardfp_sin) refers to basic.o(x$fpl$basic) for __aeabi_dneg
    sin.o(i.__hardfp_sin) refers to sin_i.o(i.__kernel_sin) for __kernel_sin
    sin.o(i.__softfp_sin) refers (Special) to usenofp.o(x$fpl$usenofp) for __I$use$fp
    sin.o(i.__softfp_sin) refers to sin.o(i.__hardfp_sin) for __hardfp_sin
    sin.o(i.sin) refers (Special) to usenofp.o(x$fpl$usenofp) for __I$use$fp
    sin.o(i.sin) refers to sin.o(i.__hardfp_sin) for __hardfp_sin
    sin_x.o(i.____hardfp_sin$lsc) refers (Special) to usenofp.o(x$fpl$usenofp) for __I$use$fp
    sin_x.o(i.____hardfp_sin$lsc) refers to _rserrno.o(.text) for __set_errno
    sin_x.o(i.____hardfp_sin$lsc) refers to dunder.o(i.__mathlib_dbl_infnan) for __mathlib_dbl_infnan
    sin_x.o(i.____hardfp_sin$lsc) refers to rred.o(i.__ieee754_rem_pio2) for __ieee754_rem_pio2
    sin_x.o(i.____hardfp_sin$lsc) refers to cos_i.o(i.__kernel_cos) for __kernel_cos
    sin_x.o(i.____hardfp_sin$lsc) refers to basic.o(x$fpl$basic) for __aeabi_dneg
    sin_x.o(i.____hardfp_sin$lsc) refers to sin_i.o(i.__kernel_sin) for __kernel_sin
    sin_x.o(i.____softfp_sin$lsc) refers (Special) to usenofp.o(x$fpl$usenofp) for __I$use$fp
    sin_x.o(i.____softfp_sin$lsc) refers to sin_x.o(i.____hardfp_sin$lsc) for ____hardfp_sin$lsc
    sin_x.o(i.__sin$lsc) refers (Special) to usenofp.o(x$fpl$usenofp) for __I$use$fp
    sin_x.o(i.__sin$lsc) refers to sin_x.o(i.____hardfp_sin$lsc) for ____hardfp_sin$lsc
    sqrt.o(i.__hardfp_sqrt) refers (Special) to usenofp.o(x$fpl$usenofp) for __I$use$fp
    sqrt.o(i.__hardfp_sqrt) refers to dsqrt_umaal.o(x$fpl$dsqrt) for _dsqrt
    sqrt.o(i.__hardfp_sqrt) refers to _rserrno.o(.text) for __set_errno
    sqrt.o(i.__softfp_sqrt) refers (Special) to usenofp.o(x$fpl$usenofp) for __I$use$fp
    sqrt.o(i.__softfp_sqrt) refers to dsqrt_umaal.o(x$fpl$dsqrt) for _dsqrt
    sqrt.o(i.__softfp_sqrt) refers to _rserrno.o(.text) for __set_errno
    sqrt.o(i.sqrt) refers (Special) to usenofp.o(x$fpl$usenofp) for __I$use$fp
    sqrt.o(i.sqrt) refers to dsqrt_umaal.o(x$fpl$dsqrt) for _dsqrt
    sqrt.o(i.sqrt) refers to _rserrno.o(.text) for __set_errno
    sqrt_x.o(i.____hardfp_sqrt$lsc) refers (Special) to usenofp.o(x$fpl$usenofp) for __I$use$fp
    sqrt_x.o(i.____hardfp_sqrt$lsc) refers to dleqf.o(x$fpl$dleqf) for __aeabi_cdcmple
    sqrt_x.o(i.____hardfp_sqrt$lsc) refers to _rserrno.o(.text) for __set_errno
    sqrt_x.o(i.____hardfp_sqrt$lsc) refers to dsqrt_umaal.o(x$fpl$dsqrt) for _dsqrt
    sqrt_x.o(i.____softfp_sqrt$lsc) refers (Special) to usenofp.o(x$fpl$usenofp) for __I$use$fp
    sqrt_x.o(i.____softfp_sqrt$lsc) refers to dleqf.o(x$fpl$dleqf) for __aeabi_cdcmple
    sqrt_x.o(i.____softfp_sqrt$lsc) refers to _rserrno.o(.text) for __set_errno
    sqrt_x.o(i.____softfp_sqrt$lsc) refers to dsqrt_umaal.o(x$fpl$dsqrt) for _dsqrt
    sqrt_x.o(i.__sqrt$lsc) refers (Special) to usenofp.o(x$fpl$usenofp) for __I$use$fp
    sqrt_x.o(i.__sqrt$lsc) refers to dleqf.o(x$fpl$dleqf) for __aeabi_cdcmple
    sqrt_x.o(i.__sqrt$lsc) refers to _rserrno.o(.text) for __set_errno
    sqrt_x.o(i.__sqrt$lsc) refers to dsqrt_umaal.o(x$fpl$dsqrt) for _dsqrt
    __rtentry.o(.ARM.Collect$$rtentry$$00000000) refers (Special) to __rtentry2.o(.ARM.Collect$$rtentry$$0000000A) for __rt_entry_li
    __rtentry.o(.ARM.Collect$$rtentry$$00000000) refers (Special) to __rtentry2.o(.ARM.Collect$$rtentry$$0000000D) for __rt_entry_main
    __rtentry.o(.ARM.Collect$$rtentry$$00000000) refers (Special) to __rtentry2.o(.ARM.Collect$$rtentry$$0000000C) for __rt_entry_postli_1
    __rtentry.o(.ARM.Collect$$rtentry$$00000000) refers (Special) to __rtentry2.o(.ARM.Collect$$rtentry$$00000009) for __rt_entry_postsh_1
    __rtentry.o(.ARM.Collect$$rtentry$$00000000) refers (Special) to __rtentry2.o(.ARM.Collect$$rtentry$$00000002) for __rt_entry_presh_1
    __rtentry.o(.ARM.Collect$$rtentry$$00000000) refers (Special) to __rtentry4.o(.ARM.Collect$$rtentry$$00000004) for __rt_entry_sh
    rt_heap_descriptor.o(.text) refers to rt_heap_descriptor.o(.bss) for __rt_heap_descriptor_data
    rt_heap_descriptor_intlibspace.o(.text) refers to libspace.o(.bss) for __libspace_start
    rt_new_handler_addr.o(.text) refers to rt_new_handler_addr.o(.bss) for __rt_new_handler_addr_data
    rt_new_handler_addr_intlibspace.o(.text) refers to libspace.o(.bss) for __libspace_start
    rt_ddtor_pointer_addr.o(.text) refers to rt_ddtor_pointer_addr.o(.bss) for __rt_ddtor_pointer_addr_data
    rt_ddtor_pointer_addr_intlibspace.o(.text) refers to libspace.o(.bss) for __libspace_start
    init_alloc.o(.text) refers (Special) to hguard.o(.text) for __heap$guard
    init_alloc.o(.text) refers (Special) to libinit2.o(.ARM.Collect$$libinit$$00000005) for __rt_lib_init_heap_2
    init_alloc.o(.text) refers (Special) to maybetermalloc1.o(.emb_text) for _maybe_terminate_alloc
    init_alloc.o(.text) refers to heapauxa.o(.text) for __rt_heap_expand
    init_alloc.o(.text) refers to h1_extend.o(.text) for __Heap_ProvideMemory
    init_alloc.o(.text) refers to defsig_rtmem_outer.o(.text) for __rt_SIGRTMEM
    init_alloc.o(.text) refers to rt_heap_descriptor.o(.text) for __rt_heap_descriptor
    init_alloc.o(.text) refers to h1_init.o(.text) for __Heap_Initialize
    h1_init_mt.o(.text) refers to mutex_dummy.o(.text) for _mutex_initialize
    _rserrno.o(.text) refers to rt_errno_addr.o(.text) for __aeabi_errno_addr
    _printf_intcommon.o(.text) refers (Weak) to _printf_pad.o(.text) for _printf_pre_padding
    _printf_intcommon.o(.text) refers (Weak) to _printf_pad.o(.text) for _printf_pre_padding
    _printf_intcommon.o(.text) refers (Weak) to _printf_pad.o(.text) for _printf_post_padding
    _printf_char_common.o(.text) refers to __printf_flags_ss_wp.o(.text) for __printf
    _printf_char.o(.text) refers (Weak) to _printf_str.o(.text) for _printf_str
    _printf_char_file.o(.text) refers to _printf_char_common.o(.text) for _printf_char_common
    _printf_char_file.o(.text) refers to ferror.o(.text) for ferror
    _printf_char_file.o(.text) refers to fputc.o(i.fputc) for fputc
    _printf_wctomb.o(.text) refers (Special) to _printf_wchar.o(.text) for _printf_lcs_common
    _printf_wctomb.o(.text) refers to _wcrtomb.o(.text) for _wcrtomb
    _printf_wctomb.o(.text) refers (Weak) to _printf_pad.o(.text) for _printf_pre_padding
    _printf_wctomb.o(.text) refers (Weak) to _printf_pad.o(.text) for _printf_post_padding
    _printf_wctomb.o(.text) refers to _printf_wctomb.o(.constdata) for .constdata
    _printf_wctomb.o(.constdata) refers (Special) to _printf_wchar.o(.text) for _printf_lcs_common
    _printf_longlong_dec.o(.text) refers to lludiv10.o(.text) for _ll_udiv10
    _printf_longlong_dec.o(.text) refers to _printf_intcommon.o(.text) for _printf_int_common
    _printf_oct_ll.o(.text) refers to _printf_intcommon.o(.text) for _printf_int_common
    _printf_oct_int.o(.text) refers (Weak) to _printf_truncate.o(.text) for _printf_truncate_unsigned
    _printf_oct_int.o(.text) refers to _printf_intcommon.o(.text) for _printf_int_common
    _printf_oct_int_ll.o(.text) refers to _printf_intcommon.o(.text) for _printf_int_common
    _printf_oct_int_ll.o(.text) refers (Weak) to _printf_truncate.o(.text) for _printf_truncate_unsigned
    _printf_c.o(.ARM.Collect$$_printf_percent$$00000013) refers (Weak) to _printf_char.o(.text) for _printf_char
    _printf_n.o(.ARM.Collect$$_printf_percent$$00000001) refers (Weak) to _printf_charcount.o(.text) for _printf_charcount
    _printf_x.o(.ARM.Collect$$_printf_percent$$0000000C) refers (Weak) to _printf_hex_int_ll_ptr.o(.text) for _printf_int_hex
    _printf_o.o(.ARM.Collect$$_printf_percent$$0000000B) refers (Weak) to _printf_oct_int_ll.o(.text) for _printf_int_oct
    _printf_i.o(.ARM.Collect$$_printf_percent$$00000008) refers (Weak) to _printf_dec.o(.text) for _printf_int_dec
    _printf_u.o(.ARM.Collect$$_printf_percent$$0000000A) refers (Weak) to _printf_dec.o(.text) for _printf_int_dec
    _printf_f.o(.ARM.Collect$$_printf_percent$$00000003) refers (Weak) to printf1.o(x$fpl$printf1) for _printf_fp_dec
    _printf_e.o(.ARM.Collect$$_printf_percent$$00000004) refers (Weak) to printf1.o(x$fpl$printf1) for _printf_fp_dec
    _printf_g.o(.ARM.Collect$$_printf_percent$$00000005) refers (Weak) to printf1.o(x$fpl$printf1) for _printf_fp_dec
    _printf_a.o(.ARM.Collect$$_printf_percent$$00000006) refers (Weak) to printf2.o(x$fpl$printf2) for _printf_fp_hex
    _printf_lli.o(.ARM.Collect$$_printf_percent$$0000000D) refers (Special) to _printf_ll.o(.ARM.Collect$$_printf_percent$$00000007) for _printf_ll
    _printf_lli.o(.ARM.Collect$$_printf_percent$$0000000D) refers (Weak) to _printf_longlong_dec.o(.text) for _printf_longlong_dec
    _printf_lld.o(.ARM.Collect$$_printf_percent$$0000000E) refers (Special) to _printf_ll.o(.ARM.Collect$$_printf_percent$$00000007) for _printf_ll
    _printf_lld.o(.ARM.Collect$$_printf_percent$$0000000E) refers (Weak) to _printf_longlong_dec.o(.text) for _printf_longlong_dec
    _printf_llu.o(.ARM.Collect$$_printf_percent$$0000000F) refers (Special) to _printf_ll.o(.ARM.Collect$$_printf_percent$$00000007) for _printf_ll
    _printf_llu.o(.ARM.Collect$$_printf_percent$$0000000F) refers (Weak) to _printf_longlong_dec.o(.text) for _printf_longlong_dec
    _printf_lc.o(.ARM.Collect$$_printf_percent$$00000015) refers (Special) to _printf_l.o(.ARM.Collect$$_printf_percent$$00000012) for _printf_l
    _printf_lc.o(.ARM.Collect$$_printf_percent$$00000015) refers (Weak) to _printf_wchar.o(.text) for _printf_wchar
    _printf_ls.o(.ARM.Collect$$_printf_percent$$00000016) refers (Special) to _printf_l.o(.ARM.Collect$$_printf_percent$$00000012) for _printf_l
    _printf_ls.o(.ARM.Collect$$_printf_percent$$00000016) refers (Weak) to _printf_wchar.o(.text) for _printf_wstring
    _printf_llo.o(.ARM.Collect$$_printf_percent$$00000010) refers (Special) to _printf_ll.o(.ARM.Collect$$_printf_percent$$00000007) for _printf_ll
    _printf_llo.o(.ARM.Collect$$_printf_percent$$00000010) refers (Weak) to _printf_oct_int_ll.o(.text) for _printf_ll_oct
    _printf_llx.o(.ARM.Collect$$_printf_percent$$00000011) refers (Special) to _printf_ll.o(.ARM.Collect$$_printf_percent$$00000007) for _printf_ll
    _printf_llx.o(.ARM.Collect$$_printf_percent$$00000011) refers (Weak) to _printf_hex_int_ll_ptr.o(.text) for _printf_ll_hex
    _scanf_longlong.o(.text) refers to _chval.o(.text) for _chval
    scanf_char.o(.text) refers to _scanf.o(.text) for __vfscanf
    scanf_char.o(.text) refers to isspace.o(.text) for isspace
    scanf_char_file.o(.text) refers to scanf_char.o(.text) for __vfscanf_char
    scanf_char_file.o(.text) refers to fgetc.o(i.fgetc) for fgetc
    scanf_char_file.o(.text) refers to backspace.o(.text) for __backspace
    _scanf_mbtowc.o(.text) refers to _mbrtowc.o(.text) for _mbrtowc
    _scanf_wctomb.o(.text) refers to _wcrtomb.o(.text) for _wcrtomb
    _scanf_wctomb.o(.text) refers to _scanf_wcharmap.o(.text) for _scanf_wcharmap
    _scanf_wstr.o(.text) refers to _scanf_wcharmap.o(.text) for _scanf_wcharmap
    filbuf.o(.text) refers to retarget.o(i._sys_read) for _sys_read
    filbuf.o(.text) refers to stdio.o(.text) for _seterr
    filbuf.o(.text) refers to h1_alloc.o(.text) for malloc
    filbuf.o(.text) refers to retarget.o(i._sys_seek) for _sys_seek
    filbuf.o(.text) refers to flushlinebuffered.o(.text) for _flushlinebuffered
    flsbuf.o(.text) refers to stdio.o(.text) for _deferredlazyseek
    flsbuf.o(.text) refers to retarget.o(i._sys_flen) for _sys_flen
    flsbuf.o(.text) refers to retarget.o(i._sys_istty) for _sys_istty
    flsbuf.o(.text) refers to h1_alloc.o(.text) for malloc
    fseek.o(.text) refers to retarget.o(i._sys_istty) for _sys_istty
    fseek.o(.text) refers to ftell.o(.text) for _ftell_internal
    fseek.o(.text) refers to retarget.o(i._sys_flen) for _sys_flen
    fseek.o(.text) refers to stdio.o(.text) for _seterr
    stdio.o(.text) refers to retarget.o(i._sys_seek) for _sys_seek
    stdio.o(.text) refers to retarget.o(i._sys_write) for _sys_write
    streamlock.o(.data) refers (Special) to initio.o(.text) for _initio
    initio.o(.text) refers (Special) to libinit2.o(.ARM.Collect$$libinit$$00000024) for __rt_lib_init_stdio_2
    initio.o(.text) refers (Special) to libshutdown2.o(.ARM.Collect$$libshutdown$$00000004) for __rt_lib_shutdown_stdio_2
    initio.o(.text) refers to rt_memclr_w.o(.text) for __aeabi_memclr4
    initio.o(.text) refers to fopen.o(.text) for freopen
    initio.o(.text) refers to defsig_rtred_outer.o(.text) for __rt_SIGRTRED
    initio.o(.text) refers to setvbuf.o(.text) for setvbuf
    initio.o(.text) refers to fclose.o(.text) for _fclose_internal
    initio.o(.text) refers to h1_free.o(.text) for free
    initio.o(.text) refers to stdio_streams.o(.bss) for __stdin
    initio.o(.text) refers to stdio_streams.o(.bss) for __stdout
    initio.o(.text) refers to stdio_streams.o(.bss) for __stderr
    initio.o(.text) refers to stdio_streams.o(.data) for __aeabi_stdin
    initio.o(.text) refers to stdio_streams.o(.data) for __aeabi_stdout
    initio.o(.text) refers to stdio_streams.o(.data) for __aeabi_stderr
    initio.o(.text) refers to retarget.o(.constdata) for __stdin_name
    initio_locked.o(.text) refers (Special) to libinit2.o(.ARM.Collect$$libinit$$00000024) for __rt_lib_init_stdio_2
    initio_locked.o(.text) refers (Special) to libshutdown2.o(.ARM.Collect$$libshutdown$$00000004) for __rt_lib_shutdown_stdio_2
    initio_locked.o(.text) refers to rt_memclr_w.o(.text) for __aeabi_memclr4
    initio_locked.o(.text) refers to fopen.o(.text) for freopen
    initio_locked.o(.text) refers to defsig_rtred_outer.o(.text) for __rt_SIGRTRED
    initio_locked.o(.text) refers to setvbuf.o(.text) for setvbuf
    initio_locked.o(.text) refers to fclose.o(.text) for _fclose_internal
    initio_locked.o(.text) refers to h1_free.o(.text) for free
    initio_locked.o(.text) refers to stdio_streams.o(.bss) for __stdin
    initio_locked.o(.text) refers to stdio_streams.o(.bss) for __stdout
    initio_locked.o(.text) refers to stdio_streams.o(.bss) for __stderr
    initio_locked.o(.text) refers to stdio_streams.o(.data) for __aeabi_stdin
    initio_locked.o(.text) refers to stdio_streams.o(.data) for __aeabi_stdout
    initio_locked.o(.text) refers to stdio_streams.o(.data) for __aeabi_stderr
    initio_locked.o(.text) refers to streamlock.o(.data) for _stream_list_lock
    initio_locked.o(.text) refers to retarget.o(.constdata) for __stdin_name
    abort.o(.text) refers to defsig_abrt_outer.o(.text) for __rt_SIGABRT
    abort.o(.text) refers to sys_exit.o(.text) for _sys_exit
    cxa_finalize.o(.text) refers (Special) to libshutdown2.o(.ARM.Collect$$libshutdown$$00000002) for __rt_lib_shutdown_cpp_2
    cxa_finalize.o(.text) refers to rt_ddtor_pointer_addr.o(.text) for __rt_ddtor_pointer_addr
    cxa_finalize.o(.text) refers to h1_free.o(.text) for free
    cxa_finalize.o(.ARM.exidx) refers (Special) to libshutdown2.o(.ARM.Collect$$libshutdown$$00000002) for __rt_lib_shutdown_cpp_2
    cxa_finalize.o(.ARM.exidx) refers to cxa_finalize.o(.text) for .text
    defsig_pvfn_outer.o(.text) refers to defsig_pvfn_inner.o(.text) for __rt_SIGPVFN_inner
    defsig_pvfn_outer.o(.text) refers to defsig_exit.o(.text) for __sig_exit
    defsig_pvfn_formal.o(.text) refers to rt_raise.o(.text) for __rt_raise
    assert_puts.o(.text) refers to sys_wrch.o(.text) for _ttywrch
    rt_memclr.o(.text) refers to rt_memclr_w.o(.text) for _memset_w
    _get_argv.o(.text) refers (Special) to hrguard.o(.text) for __heap_region$guard
    _get_argv.o(.text) refers to h1_alloc.o(.text) for malloc
    _get_argv.o(.text) refers to defsig_rtmem_outer.o(.text) for __rt_SIGRTMEM
    _get_argv.o(.text) refers to retarget.o(i._sys_command_string) for _sys_command_string
    libinit2.o(.ARM.Collect$$libinit$$00000001) refers to fpinit.o(x$fpl$fpinit) for _fp_init
    libinit2.o(.ARM.Collect$$libinit$$00000005) refers (Weak) to init_alloc.o(.text) for _init_alloc
    libinit2.o(.ARM.Collect$$libinit$$0000000F) refers (Weak) to rt_locale.o(.text) for __rt_locale
    libinit2.o(.ARM.Collect$$libinit$$00000010) refers to libinit2.o(.ARM.Collect$$libinit$$0000000F) for .ARM.Collect$$libinit$$0000000F
    libinit2.o(.ARM.Collect$$libinit$$00000012) refers to libinit2.o(.ARM.Collect$$libinit$$0000000F) for .ARM.Collect$$libinit$$0000000F
    libinit2.o(.ARM.Collect$$libinit$$00000012) refers (Weak) to lc_ctype_c.o(locale$$code) for _get_lc_ctype
    libinit2.o(.ARM.Collect$$libinit$$00000014) refers to libinit2.o(.ARM.Collect$$libinit$$0000000F) for .ARM.Collect$$libinit$$0000000F
    libinit2.o(.ARM.Collect$$libinit$$00000016) refers to libinit2.o(.ARM.Collect$$libinit$$0000000F) for .ARM.Collect$$libinit$$0000000F
    libinit2.o(.ARM.Collect$$libinit$$00000016) refers (Weak) to lc_numeric_c.o(locale$$code) for _get_lc_numeric
    libinit2.o(.ARM.Collect$$libinit$$00000018) refers to libinit2.o(.ARM.Collect$$libinit$$0000000F) for .ARM.Collect$$libinit$$0000000F
    libinit2.o(.ARM.Collect$$libinit$$00000024) refers (Weak) to initio.o(.text) for _initio
    libinit2.o(.ARM.Collect$$libinit$$00000026) refers to argv_veneer.o(.emb_text) for __ARM_argv_veneer
    libinit2.o(.ARM.Collect$$libinit$$00000027) refers to argv_veneer.o(.emb_text) for __ARM_argv_veneer
    libinit2.o(.ARM.Collect$$libinit$$00000031) refers (Weak) to init_aeabi.o(.text) for __cpp_initialize__aeabi_
    filbuf_fwide.o(.text) refers to filbuf.o(.text) for __filbuf
    flsbuf_fwide.o(.text) refers to flsbuf.o(.text) for __flsbuf
    arm_callunex_noexceptions.o(.ARM.exidx) refers to arm_callunex_noexceptions.o(.text) for .text
    arm_newhandler_noexceptions.o(.text) refers to arm_exceptions_terminate.o(.text) for std::terminate()
    arm_newhandler_noexceptions.o(.ARM.exidx) refers to arm_newhandler_noexceptions.o(.text) for .text
    bad_alloc_dtor.o(i._ZNSt9bad_allocD0Ev) refers to bad_alloc_dtor.o(i._ZNSt9bad_allocD1Ev) for std::bad_alloc::~bad_alloc()
    bad_alloc_dtor.o(i._ZNSt9bad_allocD0Ev) refers to delete.o(i._ZdlPv) for operator delete (void*)
    bad_alloc_dtor.o(.ARM.exidx) refers to bad_alloc_dtor.o(i._ZNSt9bad_allocD1Ev) for i._ZNSt9bad_allocD1Ev
    bad_alloc_dtor.o(.ARM.exidx) refers to bad_alloc_dtor.o(i._ZNSt9bad_allocD0Ev) for i._ZNSt9bad_allocD0Ev
    type_info_dtor.o(.ARM.exidx) refers to type_info_dtor.o(i._ZNSt9type_infoD1Ev) for i._ZNSt9type_infoD1Ev
    type_info_dtor.o(.ARM.exidx) refers to type_info_dtor.o(i._ZNSt9type_infoD0Ev) for i._ZNSt9type_infoD0Ev
    arm_exceptions_callterm.o(.text) refers to arm_exceptions_globs.o(.text) for __cxa_get_globals
    arm_exceptions_callterm.o(.text) refers to arm_exceptions_support.o(.text) for __ARM::is_foreign_exception(_Unwind_Control_Block*)
    arm_exceptions_callterm.o(.text) refers to arm_exceptions_terminate.o(.text) for std::terminate()
    arm_exceptions_callterm.o(.ARM.exidx) refers to arm_exceptions_callterm.o(.text) for .text
    unwind_pr0.o(.text) refers to unwind_prcommon.o(.text) for __ARM_unwind_cpp_prcommon
    unwind_pr0.o(.ARM.exidx) refers to unwind_pr0.o(.text) for .text
    basic.o(x$fpl$basic) refers (Special) to usenofp.o(x$fpl$usenofp) for __I$use$fp
    dcmpi.o(x$fpl$dcmpinf) refers (Special) to usenofp.o(x$fpl$usenofp) for __I$use$fp
    dnaninf.o(x$fpl$dnaninf) refers (Special) to usenofp.o(x$fpl$usenofp) for __I$use$fp
    dretinf.o(x$fpl$dretinf) refers (Special) to usenofp.o(x$fpl$usenofp) for __I$use$fp
    dsqrt_umaal.o(x$fpl$dsqrt) refers (Special) to usenofp.o(x$fpl$usenofp) for __I$use$fp
    dsqrt_umaal.o(x$fpl$dsqrt) refers to dnaninf.o(x$fpl$dnaninf) for __fpl_dnaninf
    fnaninf.o(x$fpl$fnaninf) refers (Special) to usenofp.o(x$fpl$usenofp) for __I$use$fp
    fretinf.o(x$fpl$fretinf) refers (Special) to usenofp.o(x$fpl$usenofp) for __I$use$fp
    printf1.o(x$fpl$printf1) refers to _printf_fp_dec.o(.text) for _printf_fp_dec_real
    printf2.o(x$fpl$printf2) refers to _printf_fp_hex.o(.text) for _printf_fp_hex_real
    printf2b.o(x$fpl$printf2) refers to _printf_fp_hex.o(.text) for _printf_fp_hex_real
    scanf1.o(x$fpl$scanf1) refers to scanf_fp.o(.text) for _scanf_really_real
    cos_i.o(i.__kernel_cos) refers (Special) to usenofp.o(x$fpl$usenofp) for __I$use$fp
    cos_i.o(i.__kernel_cos) refers to dfix.o(x$fpl$dfix) for __aeabi_d2iz
    cos_i.o(i.__kernel_cos) refers to dmul.o(x$fpl$dmul) for __aeabi_dmul
    cos_i.o(i.__kernel_cos) refers to poly.o(i.__kernel_poly) for __kernel_poly
    cos_i.o(i.__kernel_cos) refers to daddsub_clz.o(x$fpl$dsub) for __aeabi_dsub
    cos_i.o(i.__kernel_cos) refers to daddsub_clz.o(x$fpl$drsb) for __aeabi_drsub
    cos_i.o(i.__kernel_cos) refers to cos_i.o(.constdata) for .constdata
    cos_i.o(.constdata) refers (Special) to usenofp.o(x$fpl$usenofp) for __I$use$fp
    dunder.o(i.__mathlib_dbl_divzero) refers to ddiv.o(x$fpl$ddiv) for __aeabi_ddiv
    dunder.o(i.__mathlib_dbl_infnan) refers to daddsub_clz.o(x$fpl$dadd) for __aeabi_dadd
    dunder.o(i.__mathlib_dbl_infnan2) refers to daddsub_clz.o(x$fpl$dadd) for __aeabi_dadd
    dunder.o(i.__mathlib_dbl_invalid) refers to ddiv.o(x$fpl$ddiv) for __aeabi_ddiv
    dunder.o(i.__mathlib_dbl_overflow) refers to dmul.o(x$fpl$dmul) for __aeabi_dmul
    dunder.o(i.__mathlib_dbl_posinfnan) refers to dmul.o(x$fpl$dmul) for __aeabi_dmul
    dunder.o(i.__mathlib_dbl_underflow) refers to dmul.o(x$fpl$dmul) for __aeabi_dmul
    rred.o(i.__ieee754_rem_pio2) refers (Special) to usenofp.o(x$fpl$usenofp) for __I$use$fp
    rred.o(i.__ieee754_rem_pio2) refers to daddsub_clz.o(x$fpl$dsub) for __aeabi_dsub
    rred.o(i.__ieee754_rem_pio2) refers to daddsub_clz.o(x$fpl$dadd) for __aeabi_dadd
    rred.o(i.__ieee754_rem_pio2) refers to fabs.o(i.fabs) for fabs
    rred.o(i.__ieee754_rem_pio2) refers to dmul.o(x$fpl$dmul) for __aeabi_dmul
    rred.o(i.__ieee754_rem_pio2) refers to dfix.o(x$fpl$dfix) for __aeabi_d2iz
    rred.o(i.__ieee754_rem_pio2) refers to dflt_clz.o(x$fpl$dflt) for __aeabi_i2d
    rred.o(i.__ieee754_rem_pio2) refers to daddsub_clz.o(x$fpl$drsb) for __aeabi_drsub
    rred.o(i.__ieee754_rem_pio2) refers to basic.o(x$fpl$basic) for __aeabi_dneg
    rred.o(i.__ieee754_rem_pio2) refers to dflt_clz.o(x$fpl$dfltu) for __aeabi_ui2d
    rred.o(i.__ieee754_rem_pio2) refers to rred.o(.constdata) for .constdata
    rred.o(i.__use_accurate_range_reduction) refers (Special) to usenofp.o(x$fpl$usenofp) for __I$use$fp
    rred.o(.constdata) refers (Special) to usenofp.o(x$fpl$usenofp) for __I$use$fp
    sin_i.o(i.__kernel_sin) refers (Special) to usenofp.o(x$fpl$usenofp) for __I$use$fp
    sin_i.o(i.__kernel_sin) refers to fpclassify.o(i.__ARM_fpclassify) for __ARM_fpclassify
    sin_i.o(i.__kernel_sin) refers to dunder.o(i.__mathlib_dbl_underflow) for __mathlib_dbl_underflow
    sin_i.o(i.__kernel_sin) refers to dmul.o(x$fpl$dmul) for __aeabi_dmul
    sin_i.o(i.__kernel_sin) refers to poly.o(i.__kernel_poly) for __kernel_poly
    sin_i.o(i.__kernel_sin) refers to daddsub_clz.o(x$fpl$dsub) for __aeabi_dsub
    sin_i.o(i.__kernel_sin) refers to daddsub_clz.o(x$fpl$drsb) for __aeabi_drsub
    sin_i.o(i.__kernel_sin) refers to daddsub_clz.o(x$fpl$dadd) for __aeabi_dadd
    sin_i.o(i.__kernel_sin) refers to sin_i.o(.constdata) for .constdata
    sin_i.o(.constdata) refers (Special) to usenofp.o(x$fpl$usenofp) for __I$use$fp
    sin_i_x.o(i.____kernel_sin$lsc) refers (Special) to usenofp.o(x$fpl$usenofp) for __I$use$fp
    sin_i_x.o(i.____kernel_sin$lsc) refers to dmul.o(x$fpl$dmul) for __aeabi_dmul
    sin_i_x.o(i.____kernel_sin$lsc) refers to poly.o(i.__kernel_poly) for __kernel_poly
    sin_i_x.o(i.____kernel_sin$lsc) refers to daddsub_clz.o(x$fpl$dsub) for __aeabi_dsub
    sin_i_x.o(i.____kernel_sin$lsc) refers to daddsub_clz.o(x$fpl$drsb) for __aeabi_drsub
    sin_i_x.o(i.____kernel_sin$lsc) refers to daddsub_clz.o(x$fpl$dadd) for __aeabi_dadd
    sin_i_x.o(i.____kernel_sin$lsc) refers to sin_i_x.o(.constdata) for .constdata
    sin_i_x.o(.constdata) refers (Special) to usenofp.o(x$fpl$usenofp) for __I$use$fp
    sys_wrch.o(.text) refers (Special) to use_no_semi.o(.text) for __I$use$semihosting
    sys_wrch.o(.text) refers (Special) to indicate_semi.o(.text) for __semihosting_library_function
    sys_exit.o(.text) refers (Special) to use_no_semi.o(.text) for __I$use$semihosting
    sys_exit.o(.text) refers (Special) to indicate_semi.o(.text) for __semihosting_library_function
    libspace.o(.text) refers to libspace.o(.bss) for __libspace_start
    __rtentry2.o(.ARM.Collect$$rtentry$$00000008) refers to boardinit2.o(.text) for _platform_post_stackheap_init
    __rtentry2.o(.ARM.Collect$$rtentry$$0000000A) refers to libinit.o(.ARM.Collect$$libinit$$00000000) for __rt_lib_init
    __rtentry2.o(.ARM.Collect$$rtentry$$0000000B) refers to boardinit3.o(.text) for _platform_post_lib_init
    __rtentry2.o(.ARM.Collect$$rtentry$$0000000D) refers to retarget.o(i.$Sub$$main) for main
    __rtentry2.o(.ARM.Collect$$rtentry$$0000000D) refers to exit.o(i.exit) for exit
    __rtentry2.o(.ARM.exidx) refers to __rtentry2.o(.ARM.Collect$$rtentry$$00000001) for .ARM.Collect$$rtentry$$00000001
    __rtentry2.o(.ARM.exidx) refers to __rtentry2.o(.ARM.Collect$$rtentry$$00000008) for .ARM.Collect$$rtentry$$00000008
    __rtentry2.o(.ARM.exidx) refers to __rtentry2.o(.ARM.Collect$$rtentry$$0000000A) for .ARM.Collect$$rtentry$$0000000A
    __rtentry2.o(.ARM.exidx) refers to __rtentry2.o(.ARM.Collect$$rtentry$$0000000B) for .ARM.Collect$$rtentry$$0000000B
    __rtentry2.o(.ARM.exidx) refers to __rtentry2.o(.ARM.Collect$$rtentry$$0000000D) for .ARM.Collect$$rtentry$$0000000D
    __rtentry4.o(.ARM.Collect$$rtentry$$00000004) refers to sys.o(i.__user_setup_stackheap) for __user_setup_stackheap
    __rtentry4.o(.ARM.exidx) refers to __rtentry4.o(.ARM.Collect$$rtentry$$00000004) for .ARM.Collect$$rtentry$$00000004
    rt_raise.o(.text) refers to __raise.o(.text) for __raise
    rt_raise.o(.text) refers to sys_exit.o(.text) for _sys_exit
    rt_errno_addr.o(.text) refers to rt_errno_addr.o(.bss) for __aeabi_errno_addr_data
    rt_errno_addr_intlibspace.o(.text) refers to libspace.o(.bss) for __libspace_start
    maybetermalloc2.o(.emb_text) refers (Special) to term_alloc.o(.text) for _terminate_alloc
    h1_extend.o(.text) refers to h1_free.o(.text) for free
    h1_extend_mt.o(.text) refers to h1_free_mt.o(.text) for _free_internal
    isspace.o(.text) refers to rt_ctype_table.o(.text) for __rt_ctype_table
    _printf_fp_dec.o(.text) refers (Special) to usenofp.o(x$fpl$usenofp) for __I$use$fp
    _printf_fp_dec.o(.text) refers (Special) to lc_numeric_c.o(locale$$code) for _get_lc_numeric
    _printf_fp_dec.o(.text) refers to bigflt0.o(.text) for _btod_etento
    _printf_fp_dec.o(.text) refers to btod.o(CL$$btod_d2e) for _btod_d2e
    _printf_fp_dec.o(.text) refers to btod.o(CL$$btod_ediv) for _btod_ediv
    _printf_fp_dec.o(.text) refers to btod.o(CL$$btod_emul) for _btod_emul
    _printf_fp_dec.o(.text) refers to lludiv10.o(.text) for _ll_udiv10
    _printf_fp_dec.o(.text) refers to fpclassify.o(i.__ARM_fpclassify) for __ARM_fpclassify
    _printf_fp_dec.o(.text) refers to _printf_fp_infnan.o(.text) for _printf_fp_infnan
    _printf_fp_dec.o(.text) refers (Weak) to _printf_pad.o(.text) for _printf_pre_padding
    _printf_fp_dec.o(.text) refers (Weak) to _printf_pad.o(.text) for _printf_pre_padding
    _printf_fp_dec.o(.text) refers to rt_locale.o(.text) for __rt_locale
    _printf_fp_dec.o(.text) refers (Weak) to _printf_pad.o(.text) for _printf_post_padding
    _printf_fp_hex.o(.text) refers (Special) to usenofp.o(x$fpl$usenofp) for __I$use$fp
    _printf_fp_hex.o(.text) refers to fpclassify.o(i.__ARM_fpclassify) for __ARM_fpclassify
    _printf_fp_hex.o(.text) refers to _printf_fp_infnan.o(.text) for _printf_fp_infnan
    _printf_fp_hex.o(.text) refers (Weak) to _printf_pad.o(.text) for _printf_pre_padding
    _printf_fp_hex.o(.text) refers (Weak) to _printf_pad.o(.text) for _printf_pre_padding
    _printf_fp_hex.o(.text) refers (Weak) to _printf_pad.o(.text) for _printf_post_padding
    _printf_fp_hex.o(.text) refers to _printf_fp_hex.o(.constdata) for .constdata
    _printf_fp_hex.o(.constdata) refers (Special) to usenofp.o(x$fpl$usenofp) for __I$use$fp
    _printf_char_file_locked.o(.text) refers to _printf_char_common.o(.text) for _printf_char_common
    _printf_char_file_locked.o(.text) refers to fputc.o(i._fputc$unlocked) for _fputc$unlocked
    _printf_wchar.o(.text) refers (Weak) to _printf_wctomb.o(.text) for _printf_wctomb
    _scanf.o(.text) refers (Weak) to scanf1.o(x$fpl$scanf1) for _scanf_real
    _scanf.o(.text) refers (Weak) to _scanf_longlong.o(.text) for _scanf_longlong
    _scanf.o(.text) refers (Weak) to _scanf_int.o(.text) for _scanf_int
    _scanf.o(.text) refers (Weak) to _scanf_wstr.o(.text) for _scanf_wstring
    _scanf.o(.text) refers (Weak) to _scanf_mbtowc.o(.text) for _scanf_mbtowc
    _scanf.o(.text) refers (Weak) to _scanf_str.o(.text) for _scanf_string
    _scanf.o(.text) refers (Weak) to _scanf_wctomb.o(.text) for _scanf_wctomb
    scanf_fp.o(.text) refers (Special) to usenofp.o(x$fpl$usenofp) for __I$use$fp
    scanf_fp.o(.text) refers (Special) to lc_numeric_c.o(locale$$code) for _get_lc_numeric
    scanf_fp.o(.text) refers to rt_errno_addr.o(.text) for __aeabi_errno_addr
    scanf_fp.o(.text) refers to bigflt0.o(.text) for _btod_etento
    scanf_fp.o(.text) refers to btod.o(CL$$btod_emuld) for _btod_emuld
    scanf_fp.o(.text) refers to btod.o(CL$$btod_edivd) for _btod_edivd
    scanf_fp.o(.text) refers to rt_locale.o(.text) for __rt_locale
    scanf_fp.o(.text) refers to scanf2.o(x$fpl$scanf2) for _scanf_infnan
    scanf_fp.o(.text) refers to __printf_wp.o(i._is_digit) for _is_digit
    scanf_fp.o(.text) refers to narrow.o(i.__mathlib_narrow) for __mathlib_narrow
    scanf_fp.o(.text) refers to fpconst.o(c$$dinf) for __huge_val
    scanf_char_file_locked.o(.text) refers to scanf_char.o(.text) for __vfscanf_char
    scanf_char_file_locked.o(.text) refers to fgetc.o(i._fgetc$unlocked) for _fgetc$unlocked
    scanf_char_file_locked.o(.text) refers to backspace.o(.text) for ___backspace$unlocked
    backspace.o(.text) refers to ungetc.o(.text) for _ungetc_internal
    ftell.o(.text) refers to rt_errno_addr.o(.text) for __aeabi_errno_addr
    freadfast.o(.text) refers to filbuf.o(.text) for _readbuf
    freadfast.o(.text) refers to rt_memcpy_v6.o(.text) for __aeabi_memcpy
    fread_bytes_avail.o(.text) refers to filbuf.o(.text) for __filbuf_byte
    fread_bytes_avail.o(.text) refers to rt_memcpy_v6.o(.text) for __aeabi_memcpy
    fwritefast.o(.text) refers to stdio.o(.text) for _writebuf
    fwritefast.o(.text) refers to flsbuf.o(.text) for __flsbuf_byte
    fwritefast.o(.text) refers to rt_memcpy_v6.o(.text) for __aeabi_memcpy
    flushlinebuffered.o(.text) refers to fflush.o(.text) for _do_fflush
    flushlinebuffered.o(.text) refers to stdio_streams.o(.bss) for __stdin
    freadfast_locked.o(.text) refers to filbuf.o(.text) for _readbuf
    freadfast_locked.o(.text) refers to rt_memcpy_v6.o(.text) for __aeabi_memcpy
    fread_bytes_avail_locked.o(.text) refers to filbuf.o(.text) for __filbuf_byte
    fread_bytes_avail_locked.o(.text) refers to rt_memcpy_v6.o(.text) for __aeabi_memcpy
    fwritefast_locked.o(.text) refers to stdio.o(.text) for _writebuf
    fwritefast_locked.o(.text) refers to flsbuf.o(.text) for __flsbuf_byte
    fwritefast_locked.o(.text) refers to rt_memcpy_v6.o(.text) for __aeabi_memcpy
    flushlinebuffered_locked.o(.text) refers to fflush.o(.text) for _do_fflush
    flushlinebuffered_locked.o(.text) refers to streamlock.o(.data) for _stream_list_lock
    flushlinebuffered_locked.o(.text) refers to stdio_streams.o(.bss) for __stdin
    _mbrtowc.o(.text) refers to rt_ctype_table.o(.text) for __rt_ctype_table
    _wcrtomb.o(.text) refers to rt_ctype_table.o(.text) for __rt_ctype_table
    defsig_exit.o(.text) refers to sys_exit.o(.text) for _sys_exit
    defsig_abrt_outer.o(.text) refers to defsig_abrt_inner.o(.text) for __rt_SIGABRT_inner
    defsig_abrt_outer.o(.text) refers to defsig_exit.o(.text) for __sig_exit
    defsig_abrt_formal.o(.text) refers to rt_raise.o(.text) for __rt_raise
    defsig_rtred_outer.o(.text) refers to defsig_rtred_inner.o(.text) for __rt_SIGRTRED_inner
    defsig_rtred_outer.o(.text) refers to defsig_exit.o(.text) for __sig_exit
    defsig_rtred_formal.o(.text) refers to rt_raise.o(.text) for __rt_raise
    defsig_rtmem_outer.o(.text) refers to defsig_rtmem_inner.o(.text) for __rt_SIGRTMEM_inner
    defsig_rtmem_outer.o(.text) refers to defsig_exit.o(.text) for __sig_exit
    defsig_rtmem_formal.o(.text) refers to rt_raise.o(.text) for __rt_raise
    defsig_pvfn_inner.o(.text) refers to defsig_general.o(.text) for __default_signal_display
    assert_stdio.o(.text) refers to fputs.o(.text) for fputs
    assert_stdio.o(.text) refers to fflush.o(.text) for fflush
    assert_stdio.o(.text) refers to stdio_streams.o(.bss) for __stderr
    heapauxa.o(.text) refers to heapauxa.o(.data) for .data
    argv_veneer.o(.emb_text) refers to no_argv.o(.text) for __ARM_get_argv
    libshutdown2.o(.ARM.Collect$$libshutdown$$00000001) refers (Weak) to cxa_finalize.o(.text) for __cxa_finalize
    libshutdown2.o(.ARM.Collect$$libshutdown$$00000003) refers (Weak) to initio.o(.text) for _terminateio
    libshutdown2.o(.ARM.Collect$$libshutdown$$0000000D) refers (Weak) to term_alloc.o(.text) for _terminate_alloc
    arm_begincatch_noexceptions.o(.ARM.exidx) refers to arm_begincatch_noexceptions.o(.text) for .text
    bad_alloc_what.o(.ARM.exidx) refers to bad_alloc_what.o(i._ZNKSt9bad_alloc4whatEv) for i._ZNKSt9bad_alloc4whatEv
    exception_dtor.o(i._ZNSt9exceptionD0Ev) refers to delete.o(i._ZdlPv) for operator delete (void*)
    exception_dtor.o(.ARM.exidx) refers to exception_dtor.o(i._ZNSt9exceptionD1Ev) for i._ZNSt9exceptionD1Ev
    exception_dtor.o(.ARM.exidx) refers to exception_dtor.o(i._ZNSt9exceptionD0Ev) for i._ZNSt9exceptionD0Ev
    arm_exceptions_support.o(.text) refers to arm_exceptions_support.o(.constdata) for .constdata
    arm_exceptions_support.o(.ARM.exidx) refers to arm_exceptions_support.o(.text) for .text
    arm_exceptions_terminate.o(.text) refers to arm_exceptions_globs.o(.text) for __cxa_get_globals
    arm_exceptions_terminate.o(.text) refers to abort.o(.text) for abort
    arm_exceptions_terminate.o(.ARM.exidx) refers to arm_exceptions_terminate.o(.text) for .text
    arm_exceptions_globs.o(.text) refers to abort.o(.text) for abort
    arm_exceptions_globs.o(.text) refers to rt_eh_globals_addr.o(.text) for __rt_eh_globals_addr
    arm_exceptions_globs.o(.text) refers to h1_alloc.o(.text) for malloc
    arm_exceptions_globs.o(.text) refers to arm_exceptions_mem.o(.text) for __ARM_exceptions_buffer_init
    arm_exceptions_globs.o(.ARM.exidx) refers to arm_exceptions_globs.o(.text) for .text
    unwind_prcommon.o(.text) refers to unwinder.o(.text) for _Unwind_VRS_Get
    unwind_prcommon.o(.text) refers to unwind_activity.o(.emb_text) for _Unwind_Activity
    unwind_prcommon.o(.text) refers (Weak) to arm_callunex_noexceptions.o(.text) for __cxa_call_unexpected
    unwind_prcommon.o(.ARM.exidx) refers to unwind_prcommon.o(.text) for .text
    fabs.o(i.__hardfp_fabs) refers (Special) to usenofp.o(x$fpl$usenofp) for __I$use$fp
    fabs.o(i.__softfp_fabs) refers (Special) to usenofp.o(x$fpl$usenofp) for __I$use$fp
    fabs.o(i.fabs) refers (Special) to usenofp.o(x$fpl$usenofp) for __I$use$fp
    fpclassify.o(i.__ARM_fpclassify) refers (Special) to usenofp.o(x$fpl$usenofp) for __I$use$fp
    poly.o(i.__kernel_poly) refers (Special) to usenofp.o(x$fpl$usenofp) for __I$use$fp
    poly.o(i.__kernel_poly) refers to dmul.o(x$fpl$dmul) for __aeabi_dmul
    poly.o(i.__kernel_poly) refers to daddsub_clz.o(x$fpl$dadd) for __aeabi_dadd
    rt_ctype_table.o(.text) refers to rt_locale.o(.text) for __rt_locale
    rt_ctype_table.o(.text) refers to lc_ctype_c.o(locale$$code) for _get_lc_ctype
    rt_locale.o(.text) refers to rt_locale.o(.bss) for __rt_locale_data
    rt_locale_intlibspace.o(.text) refers to libspace.o(.bss) for __libspace_start
    rt_eh_globals_addr.o(.text) refers to rt_eh_globals_addr.o(.bss) for __rt_eh_globals_addr_data
    rt_eh_globals_addr_intlibspace.o(.text) refers to libspace.o(.bss) for __libspace_start
    term_alloc.o(.text) refers (Special) to libshutdown2.o(.ARM.Collect$$libshutdown$$0000000F) for __rt_lib_shutdown_heap_2
    term_alloc.o(.text) refers to rt_heap_descriptor.o(.text) for __rt_heap_descriptor
    term_alloc.o(.text) refers to h1_final.o(.text) for __Heap_Finalize
    _printf_fp_infnan.o(.text) refers (Weak) to _printf_pad.o(.text) for _printf_pre_padding
    _printf_fp_infnan.o(.text) refers (Weak) to _printf_pad.o(.text) for _printf_post_padding
    bigflt0.o(.text) refers (Special) to usenofp.o(x$fpl$usenofp) for __I$use$fp
    bigflt0.o(.text) refers to btod.o(CL$$btod_emul) for _btod_emul
    bigflt0.o(.text) refers to btod.o(CL$$btod_ediv) for _btod_ediv
    bigflt0.o(.text) refers to bigflt0.o(.constdata) for .constdata
    bigflt0.o(.constdata) refers (Special) to usenofp.o(x$fpl$usenofp) for __I$use$fp
    btod.o(CL$$btod_d2e) refers (Special) to usenofp.o(x$fpl$usenofp) for __I$use$fp
    btod.o(CL$$btod_d2e) refers to btod.o(CL$$btod_d2e_norm_op1) for _d2e_norm_op1
    btod.o(CL$$btod_d2e_norm_op1) refers (Special) to usenofp.o(x$fpl$usenofp) for __I$use$fp
    btod.o(CL$$btod_d2e_norm_op1) refers to btod.o(CL$$btod_d2e_denorm_low) for _d2e_denorm_low
    btod.o(CL$$btod_d2e_denorm_low) refers (Special) to usenofp.o(x$fpl$usenofp) for __I$use$fp
    btod.o(CL$$btod_emul) refers (Special) to usenofp.o(x$fpl$usenofp) for __I$use$fp
    btod.o(CL$$btod_emul) refers to btod.o(CL$$btod_mult_common) for __btod_mult_common
    btod.o(CL$$btod_emul) refers to btod.o(CL$$btod_e2e) for _e2e
    btod.o(CL$$btod_ediv) refers (Special) to usenofp.o(x$fpl$usenofp) for __I$use$fp
    btod.o(CL$$btod_ediv) refers to btod.o(CL$$btod_div_common) for __btod_div_common
    btod.o(CL$$btod_ediv) refers to btod.o(CL$$btod_e2e) for _e2e
    btod.o(CL$$btod_emuld) refers (Special) to usenofp.o(x$fpl$usenofp) for __I$use$fp
    btod.o(CL$$btod_emuld) refers to btod.o(CL$$btod_mult_common) for __btod_mult_common
    btod.o(CL$$btod_emuld) refers to btod.o(CL$$btod_e2d) for _e2d
    btod.o(CL$$btod_edivd) refers (Special) to usenofp.o(x$fpl$usenofp) for __I$use$fp
    btod.o(CL$$btod_edivd) refers to btod.o(CL$$btod_div_common) for __btod_div_common
    btod.o(CL$$btod_edivd) refers to btod.o(CL$$btod_e2d) for _e2d
    btod.o(CL$$btod_e2e) refers (Special) to usenofp.o(x$fpl$usenofp) for __I$use$fp
    btod.o(CL$$btod_e2d) refers (Special) to usenofp.o(x$fpl$usenofp) for __I$use$fp
    btod.o(CL$$btod_e2d) refers to btod.o(CL$$btod_e2e) for _e2e
    btod.o(CL$$btod_mult_common) refers (Special) to usenofp.o(x$fpl$usenofp) for __I$use$fp
    btod.o(CL$$btod_div_common) refers (Special) to usenofp.o(x$fpl$usenofp) for __I$use$fp
    lc_numeric_c.o(locale$$data) refers (Special) to libinit2.o(.ARM.Collect$$libinit$$00000016) for __rt_lib_init_lc_numeric_2
    lc_numeric_c.o(locale$$code) refers (Special) to libinit2.o(.ARM.Collect$$libinit$$00000016) for __rt_lib_init_lc_numeric_2
    lc_numeric_c.o(locale$$code) refers to strcmpv7m.o(.text) for strcmp
    lc_numeric_c.o(locale$$code) refers to lc_numeric_c.o(locale$$data) for __lcnum_c_name
    __raise.o(.text) refers to defsig.o(CL$$defsig) for __default_signal_handler
    defsig_general.o(.text) refers to sys_wrch.o(.text) for _ttywrch
    defsig_abrt_inner.o(.text) refers to defsig_general.o(.text) for __default_signal_display
    defsig_rtred_inner.o(.text) refers to defsig_general.o(.text) for __default_signal_display
    defsig_rtmem_inner.o(.text) refers to defsig_general.o(.text) for __default_signal_display
    rt_memcpy_v6.o(.text) refers to rt_memcpy_w.o(.text) for __aeabi_memcpy4
    _get_argv_nomalloc.o(.text) refers (Special) to hrguard.o(.text) for __heap_region$guard
    _get_argv_nomalloc.o(.text) refers to defsig_rtmem_outer.o(.text) for __rt_SIGRTMEM
    _get_argv_nomalloc.o(.text) refers to retarget.o(i._sys_command_string) for _sys_command_string
    libinit.o(.ARM.Collect$$libinit$$00000000) refers (Special) to libinit2.o(.ARM.Collect$$libinit$$0000002E) for __rt_lib_init_alloca_1
    libinit.o(.ARM.Collect$$libinit$$00000000) refers (Special) to libinit2.o(.ARM.Collect$$libinit$$0000002C) for __rt_lib_init_argv_1
    libinit.o(.ARM.Collect$$libinit$$00000000) refers (Special) to libinit2.o(.ARM.Collect$$libinit$$0000001B) for __rt_lib_init_atexit_1
    libinit.o(.ARM.Collect$$libinit$$00000000) refers (Special) to libinit2.o(.ARM.Collect$$libinit$$00000021) for __rt_lib_init_clock_1
    libinit.o(.ARM.Collect$$libinit$$00000000) refers (Special) to libinit2.o(.ARM.Collect$$libinit$$00000032) for __rt_lib_init_cpp_1
    libinit.o(.ARM.Collect$$libinit$$00000000) refers (Special) to libinit2.o(.ARM.Collect$$libinit$$00000030) for __rt_lib_init_exceptions_1
    libinit.o(.ARM.Collect$$libinit$$00000000) refers (Special) to libinit2.o(.ARM.Collect$$libinit$$00000001) for __rt_lib_init_fp_1
    libinit.o(.ARM.Collect$$libinit$$00000000) refers (Special) to libinit2.o(.ARM.Collect$$libinit$$0000001F) for __rt_lib_init_fp_trap_1
    libinit.o(.ARM.Collect$$libinit$$00000000) refers (Special) to libinit2.o(.ARM.Collect$$libinit$$00000023) for __rt_lib_init_getenv_1
    libinit.o(.ARM.Collect$$libinit$$00000000) refers (Special) to libinit2.o(.ARM.Collect$$libinit$$0000000A) for __rt_lib_init_heap_1
    libinit.o(.ARM.Collect$$libinit$$00000000) refers (Special) to libinit2.o(.ARM.Collect$$libinit$$00000011) for __rt_lib_init_lc_collate_1
    libinit.o(.ARM.Collect$$libinit$$00000000) refers (Special) to libinit2.o(.ARM.Collect$$libinit$$00000013) for __rt_lib_init_lc_ctype_1
    libinit.o(.ARM.Collect$$libinit$$00000000) refers (Special) to libinit2.o(.ARM.Collect$$libinit$$00000015) for __rt_lib_init_lc_monetary_1
    libinit.o(.ARM.Collect$$libinit$$00000000) refers (Special) to libinit2.o(.ARM.Collect$$libinit$$00000017) for __rt_lib_init_lc_numeric_1
    libinit.o(.ARM.Collect$$libinit$$00000000) refers (Special) to libinit2.o(.ARM.Collect$$libinit$$00000019) for __rt_lib_init_lc_time_1
    libinit.o(.ARM.Collect$$libinit$$00000000) refers (Special) to libinit2.o(.ARM.Collect$$libinit$$00000004) for __rt_lib_init_preinit_1
    libinit.o(.ARM.Collect$$libinit$$00000000) refers (Special) to libinit2.o(.ARM.Collect$$libinit$$0000000E) for __rt_lib_init_rand_1
    libinit.o(.ARM.Collect$$libinit$$00000000) refers (Special) to libinit2.o(.ARM.Collect$$libinit$$00000033) for __rt_lib_init_return
    libinit.o(.ARM.Collect$$libinit$$00000000) refers (Special) to libinit2.o(.ARM.Collect$$libinit$$0000001D) for __rt_lib_init_signal_1
    libinit.o(.ARM.Collect$$libinit$$00000000) refers (Special) to libinit2.o(.ARM.Collect$$libinit$$00000025) for __rt_lib_init_stdio_1
    libinit.o(.ARM.Collect$$libinit$$00000000) refers (Special) to libinit2.o(.ARM.Collect$$libinit$$0000000C) for __rt_lib_init_user_alloc_1
    exception_what.o(.ARM.exidx) refers to exception_what.o(i._ZNKSt9exception4whatEv) for i._ZNKSt9exception4whatEv
    arm_exceptions_mem.o(.text) refers to h1_alloc.o(.text) for malloc
    arm_exceptions_mem.o(.ARM.exidx) refers to arm_exceptions_mem.o(.text) for .text
    unwinder.o(.emb_text) refers to unwinder.o(.text) for __ARM_Unwind_RaiseException
    unwinder.o(.text) refers to bsearchnoex.o(.text) for bsearch
    unwinder.o(.text) refers to unwind_activity.o(.emb_text) for _Unwind_Activity
    unwinder.o(.text) refers to abort.o(.text) for abort
    unwinder.o(.text) refers to unwinder.o(.emb_text) for __ARM_Unwind_VRS_corerestore
    unwinder.o(.text) refers to h1_alloc.o(.text) for malloc
    unwinder.o(.text) refers to rt_memcpy_w.o(.text) for __aeabi_memcpy4
    unwinder.o(.text) refers to h1_free.o(.text) for free
    unwinder.o(.text) refers (Weak) to unwind_pr0.o(.text) for __aeabi_unwind_cpp_pr0
    unwinder.o(.ARM.exidx) refers to unwinder.o(.text) for .text
    fpconst.o(c$$dinf) refers (Special) to usenofp.o(x$fpl$usenofp) for __I$use$fp
    fpconst.o(c$$dnan) refers (Special) to usenofp.o(x$fpl$usenofp) for __I$use$fp
    fpconst.o(c$$finf) refers (Special) to usenofp.o(x$fpl$usenofp) for __I$use$fp
    istatus.o(x$fpl$ieeestatus) refers (Special) to usenofp.o(x$fpl$usenofp) for __I$use$fp
    scanf2.o(x$fpl$scanf2) refers to scanf_hexfp.o(.text) for _scanf_really_hex_real
    scanf2.o(x$fpl$scanf2) refers to scanf_infnan.o(.text) for _scanf_really_infnan
    scanf2b.o(x$fpl$scanf2) refers to scanf_hexfp.o(.text) for _scanf_really_hex_real
    scanf2b.o(x$fpl$scanf2) refers to scanf_infnan.o(.text) for _scanf_really_infnan
    narrow.o(i.__hardfp___mathlib_tofloat) refers (Special) to usenofp.o(x$fpl$usenofp) for __I$use$fp
    narrow.o(i.__hardfp___mathlib_tofloat) refers to frexp.o(i.frexp) for frexp
    narrow.o(i.__hardfp___mathlib_tofloat) refers to deqf.o(x$fpl$deqf) for __aeabi_cdcmpeq
    narrow.o(i.__hardfp___mathlib_tofloat) refers to d2f.o(x$fpl$d2f) for __aeabi_d2f
    narrow.o(i.__hardfp___mathlib_tofloat) refers to _rserrno.o(.text) for __set_errno
    narrow.o(i.__hardfp___mathlib_tofloat) refers to drleqf.o(x$fpl$drleqf) for __aeabi_cdrcmple
    narrow.o(i.__mathlib_narrow) refers (Special) to usenofp.o(x$fpl$usenofp) for __I$use$fp
    narrow.o(i.__mathlib_narrow) refers to frexp.o(i.frexp) for frexp
    narrow.o(i.__mathlib_narrow) refers to deqf.o(x$fpl$deqf) for __aeabi_cdcmpeq
    narrow.o(i.__mathlib_narrow) refers to d2f.o(x$fpl$d2f) for __aeabi_d2f
    narrow.o(i.__mathlib_narrow) refers to _rserrno.o(.text) for __set_errno
    narrow.o(i.__mathlib_narrow) refers to drleqf.o(x$fpl$drleqf) for __aeabi_cdrcmple
    narrow.o(i.__mathlib_tofloat) refers (Special) to usenofp.o(x$fpl$usenofp) for __I$use$fp
    narrow.o(i.__mathlib_tofloat) refers to frexp.o(i.frexp) for frexp
    narrow.o(i.__mathlib_tofloat) refers to deqf.o(x$fpl$deqf) for __aeabi_cdcmpeq
    narrow.o(i.__mathlib_tofloat) refers to d2f.o(x$fpl$d2f) for __aeabi_d2f
    narrow.o(i.__mathlib_tofloat) refers to _rserrno.o(.text) for __set_errno
    narrow.o(i.__mathlib_tofloat) refers to drleqf.o(x$fpl$drleqf) for __aeabi_cdrcmple
    narrow.o(i.__softfp___mathlib_tofloat) refers (Special) to usenofp.o(x$fpl$usenofp) for __I$use$fp
    narrow.o(i.__softfp___mathlib_tofloat) refers to frexp.o(i.frexp) for frexp
    narrow.o(i.__softfp___mathlib_tofloat) refers to deqf.o(x$fpl$deqf) for __aeabi_cdcmpeq
    narrow.o(i.__softfp___mathlib_tofloat) refers to d2f.o(x$fpl$d2f) for __aeabi_d2f
    narrow.o(i.__softfp___mathlib_tofloat) refers to _rserrno.o(.text) for __set_errno
    narrow.o(i.__softfp___mathlib_tofloat) refers to drleqf.o(x$fpl$drleqf) for __aeabi_cdrcmple
    scanf_hexfp.o(.text) refers to _chval.o(.text) for _chval
    scanf_hexfp.o(.text) refers to llshl.o(.text) for __aeabi_llsl
    scanf_hexfp.o(.text) refers to ldexp.o(i.__support_ldexp) for __support_ldexp
    scanf_hexfp.o(.text) refers to narrow.o(i.__mathlib_narrow) for __mathlib_narrow
    lc_ctype_c.o(locale$$data) refers (Special) to libinit2.o(.ARM.Collect$$libinit$$00000012) for __rt_lib_init_lc_ctype_2
    lc_ctype_c.o(locale$$code) refers (Special) to libinit2.o(.ARM.Collect$$libinit$$00000012) for __rt_lib_init_lc_ctype_2
    lc_ctype_c.o(locale$$code) refers to strcmpv7m.o(.text) for strcmp
    lc_ctype_c.o(locale$$code) refers to lc_ctype_c.o(locale$$data) for __lcctype_c_name
    defsig.o(CL$$defsig) refers to defsig_abrt_inner.o(.text) for __rt_SIGABRT_inner
    defsig.o(CL$$defsig) refers to defsig_rtred_inner.o(.text) for __rt_SIGRTRED_inner
    defsig.o(CL$$defsig) refers to defsig_rtmem_inner.o(.text) for __rt_SIGRTMEM_inner
    defsig.o(CL$$defsig) refers to defsig_pvfn_inner.o(.text) for __rt_SIGPVFN_inner
    deqf.o(x$fpl$deqf) refers (Special) to usenofp.o(x$fpl$usenofp) for __I$use$fp
    deqf.o(x$fpl$deqf) refers to dnaninf.o(x$fpl$dnaninf) for __fpl_dnaninf
    deqf.o(x$fpl$deqf) refers to dcmpi.o(x$fpl$dcmpinf) for __fpl_dcmp_Inf
    frexp.o(i.__hardfp_frexp) refers (Special) to usenofp.o(x$fpl$usenofp) for __I$use$fp
    frexp.o(i.__hardfp_frexp) refers to dmul.o(x$fpl$dmul) for __aeabi_dmul
    frexp.o(i.__softfp_frexp) refers (Special) to usenofp.o(x$fpl$usenofp) for __I$use$fp
    frexp.o(i.__softfp_frexp) refers to dmul.o(x$fpl$dmul) for __aeabi_dmul
    frexp.o(i.frexp) refers (Special) to usenofp.o(x$fpl$usenofp) for __I$use$fp
    frexp.o(i.frexp) refers to dmul.o(x$fpl$dmul) for __aeabi_dmul
    defsig_fpe_inner.o(.text) refers to defsig_general.o(.text) for __default_signal_display
    defsig_stak_inner.o(.text) refers to defsig_general.o(.text) for __default_signal_display
    defsig_cppl_inner.o(.text) refers to defsig_general.o(.text) for __default_signal_display
    defsig_segv_inner.o(.text) refers to defsig_general.o(.text) for __default_signal_display
    defsig_other.o(.text) refers to defsig_general.o(.text) for __default_signal_display
    ldexp.o(i.__hardfp_ldexp) refers (Special) to usenofp.o(x$fpl$usenofp) for __I$use$fp
    ldexp.o(i.__hardfp_ldexp) refers to deqf.o(x$fpl$deqf) for __aeabi_cdcmpeq
    ldexp.o(i.__hardfp_ldexp) refers to scalbn.o(x$fpl$scalbn) for __ARM_scalbn
    ldexp.o(i.__hardfp_ldexp) refers to _rserrno.o(.text) for __set_errno
    ldexp.o(i.__hardfp_ldexp) refers to dunder.o(i.__mathlib_dbl_underflow) for __mathlib_dbl_underflow
    ldexp.o(i.__hardfp_ldexp) refers to dunder.o(i.__mathlib_dbl_overflow) for __mathlib_dbl_overflow
    ldexp.o(i.__softfp_ldexp) refers (Special) to usenofp.o(x$fpl$usenofp) for __I$use$fp
    ldexp.o(i.__softfp_ldexp) refers to ldexp.o(i.__hardfp_ldexp) for __hardfp_ldexp
    ldexp.o(i.__support_ldexp) refers (Special) to usenofp.o(x$fpl$usenofp) for __I$use$fp
    ldexp.o(i.__support_ldexp) refers to ldexp.o(i.__hardfp_ldexp) for __hardfp_ldexp
    ldexp.o(i.ldexp) refers (Special) to usenofp.o(x$fpl$usenofp) for __I$use$fp
    ldexp.o(i.ldexp) refers to ldexp.o(i.__hardfp_ldexp) for __hardfp_ldexp
    ldexp_x.o(i.____hardfp_ldexp$lsc) refers (Special) to usenofp.o(x$fpl$usenofp) for __I$use$fp
    ldexp_x.o(i.____hardfp_ldexp$lsc) refers to deqf.o(x$fpl$deqf) for __aeabi_cdcmpeq
    ldexp_x.o(i.____hardfp_ldexp$lsc) refers to scalbn.o(x$fpl$scalbn) for __ARM_scalbn
    ldexp_x.o(i.____hardfp_ldexp$lsc) refers to _rserrno.o(.text) for __set_errno
    ldexp_x.o(i.____hardfp_ldexp$lsc) refers to qnan.o(.constdata) for __mathlib_zero
    ldexp_x.o(i.____softfp_ldexp$lsc) refers (Special) to usenofp.o(x$fpl$usenofp) for __I$use$fp
    ldexp_x.o(i.____softfp_ldexp$lsc) refers to ldexp_x.o(i.____hardfp_ldexp$lsc) for ____hardfp_ldexp$lsc
    ldexp_x.o(i.____support_ldexp$lsc) refers (Special) to usenofp.o(x$fpl$usenofp) for __I$use$fp
    ldexp_x.o(i.____support_ldexp$lsc) refers to ldexp_x.o(i.____hardfp_ldexp$lsc) for ____hardfp_ldexp$lsc
    ldexp_x.o(i.__ldexp$lsc) refers (Special) to usenofp.o(x$fpl$usenofp) for __I$use$fp
    ldexp_x.o(i.__ldexp$lsc) refers to ldexp_x.o(i.____hardfp_ldexp$lsc) for ____hardfp_ldexp$lsc
    scalbn.o(x$fpl$scalbn) refers (Special) to usenofp.o(x$fpl$usenofp) for __I$use$fp
    scalbn.o(x$fpl$scalbn) refers to dcheck1.o(x$fpl$dcheck1) for __fpl_dcheck_NaN1
    qnan.o(.constdata) refers (Special) to usenofp.o(x$fpl$usenofp) for __I$use$fp
    dcheck1.o(x$fpl$dcheck1) refers (Special) to usenofp.o(x$fpl$usenofp) for __I$use$fp
    dcheck1.o(x$fpl$dcheck1) refers to retnan.o(x$fpl$retnan) for __fpl_return_NaN
    retnan.o(x$fpl$retnan) refers (Special) to usenofp.o(x$fpl$usenofp) for __I$use$fp
    retnan.o(x$fpl$retnan) refers to trapv.o(x$fpl$trapveneer) for __fpl_cmpreturn
    trapv.o(x$fpl$trapveneer) refers (Special) to usenofp.o(x$fpl$usenofp) for __I$use$fp
    retarget.o(.constdata__ZTVN4mbed10FileHandleE) refers to retarget.o(.constdata__ZTIN4mbed10FileHandleE) for typeinfo for mbed::FileHandle
    retarget.o(.constdata__ZTVN4mbed10FileHandleE) refers to pure_virt.o(i.__cxa_pure_virtual) for __cxa_pure_virtual
    retarget.o(.constdata__ZTVN4mbed10FileHandleE) refers to retarget.o(i._ZN4mbed10FileHandle4flenEv) for mbed::FileHandle::flen()
    retarget.o(.constdata__ZTVN4mbed10FileHandleE) refers to retarget.o(i._ZN4mbed10FileHandleD2Ev) for mbed::FileHandle::~FileHandle__sub_object()
    retarget.o(.constdata__ZTVN4mbed10FileHandleE) refers to retarget.o(i._ZN4mbed10FileHandleD0Ev) for mbed::FileHandle::~FileHandle__deallocating()
    retarget.o(.ARM.exidx) refers to retarget.o(i._ZN4mbed10FileHandle4flenEv) for i._ZN4mbed10FileHandle4flenEv
    retarget.o(.constdata__ZTIN4mbed10FileHandleE) refers to lib_rtti_impl.o(.constdata__ZTVN10__cxxabiv117__class_type_infoE) for vtable for __cxxabiv1::__class_type_info
    retarget.o(.constdata__ZTIN4mbed10FileHandleE) refers to retarget.o(.constdata__ZTSN4mbed10FileHandleE) for typeinfo name for mbed::FileHandle
    mytouch.o(i._ZN4mbed10DigitalOut5writeEi) refers to assert.o(i.mbed_assert_internal) for mbed_assert_internal
    mytouch.o(i._ZN4mbed10DigitalOut5writeEi) refers to fsl_gpio_hal.o(i.gpio_hal_write_pin_output) for gpio_hal_write_pin_output
    mytouch.o(i._ZN4mbed10DigitalOut5writeEi) refers to mytouch.o(.conststring) for .conststring
    mytouch.o(.ARM.exidx) refers to mytouch.o(i._ZN4mbed10DigitalOut5writeEi) for i._ZN4mbed10DigitalOut5writeEi
    spi_stmpe610.o(i._ZN4mbed10DigitalOutaSEi) refers to assert.o(i.mbed_assert_internal) for mbed_assert_internal
    spi_stmpe610.o(i._ZN4mbed10DigitalOutaSEi) refers to fsl_gpio_hal.o(i.gpio_hal_write_pin_output) for gpio_hal_write_pin_output
    spi_stmpe610.o(i._ZN4mbed10DigitalOutaSEi) refers to spi_stmpe610.o(.conststring) for .conststring
    spi_stmpe610.o(.ARM.exidx) refers to spi_stmpe610.o(i._ZN4mbed10DigitalOutaSEi) for i._ZN4mbed10DigitalOutaSEi
    graphicsdisplay.o(.constdata__ZTV15GraphicsDisplay) refers to graphicsdisplay.o(.constdata__ZTI15GraphicsDisplay) for typeinfo for GraphicsDisplay
    graphicsdisplay.o(.constdata__ZTV15GraphicsDisplay) refers to Stream.o(i._ZN4mbed6Stream5writeEPKvj) for mbed::Stream::write(const void*, unsigned)
    graphicsdisplay.o(.constdata__ZTV15GraphicsDisplay) refers to Stream.o(i._ZN4mbed6Stream5closeEv) for mbed::Stream::close()
    graphicsdisplay.o(.constdata__ZTV15GraphicsDisplay) refers to Stream.o(i._ZN4mbed6Stream4readEPvj) for mbed::Stream::read(void*, unsigned)
    graphicsdisplay.o(.constdata__ZTV15GraphicsDisplay) refers to Stream.o(i._ZN4mbed6Stream6isattyEv) for mbed::Stream::isatty()
    graphicsdisplay.o(.constdata__ZTV15GraphicsDisplay) refers to Stream.o(i._ZN4mbed6Stream5lseekEli) for mbed::Stream::lseek(long, int)
    graphicsdisplay.o(.constdata__ZTV15GraphicsDisplay) refers to Stream.o(i._ZN4mbed6Stream5fsyncEv) for mbed::Stream::fsync()
    graphicsdisplay.o(.constdata__ZTV15GraphicsDisplay) refers to Stream.o(i._ZN4mbed6Stream4flenEv) for mbed::Stream::flen()
    graphicsdisplay.o(.constdata__ZTV15GraphicsDisplay) refers to graphicsdisplay.o(i._ZN15GraphicsDisplayD2Ev) for GraphicsDisplay::~GraphicsDisplay__sub_object()
    graphicsdisplay.o(.constdata__ZTV15GraphicsDisplay) refers to graphicsdisplay.o(i._ZN15GraphicsDisplayD0Ev) for GraphicsDisplay::~GraphicsDisplay__deallocating()
    graphicsdisplay.o(.constdata__ZTV15GraphicsDisplay) refers to textdisplay.o(i._ZN11TextDisplay5_putcEi) for TextDisplay::_putc(int)
    graphicsdisplay.o(.constdata__ZTV15GraphicsDisplay) refers to textdisplay.o(i._ZN11TextDisplay5_getcEv) for TextDisplay::_getc()
    graphicsdisplay.o(.constdata__ZTV15GraphicsDisplay) refers to graphicsdisplay.o(i._ZN15GraphicsDisplay9characterEiii) for GraphicsDisplay::character(int, int, int)
    graphicsdisplay.o(.constdata__ZTV15GraphicsDisplay) refers to graphicsdisplay.o(i._ZN15GraphicsDisplay4rowsEv) for GraphicsDisplay::rows()
    graphicsdisplay.o(.constdata__ZTV15GraphicsDisplay) refers to graphicsdisplay.o(i._ZN15GraphicsDisplay7columnsEv) for GraphicsDisplay::columns()
    graphicsdisplay.o(.constdata__ZTV15GraphicsDisplay) refers to textdisplay.o(i._ZN11TextDisplay5claimEPSt6__FILE) for TextDisplay::claim(std::__FILE*)
    graphicsdisplay.o(.constdata__ZTV15GraphicsDisplay) refers to graphicsdisplay.o(i._ZN15GraphicsDisplay3clsEv) for GraphicsDisplay::cls()
    graphicsdisplay.o(.constdata__ZTV15GraphicsDisplay) refers to textdisplay.o(i._ZN11TextDisplay6locateEii) for TextDisplay::locate(int, int)
    graphicsdisplay.o(.constdata__ZTV15GraphicsDisplay) refers to textdisplay.o(i._ZN11TextDisplay10foregroundEt) for TextDisplay::foreground(unsigned short)
    graphicsdisplay.o(.constdata__ZTV15GraphicsDisplay) refers to textdisplay.o(i._ZN11TextDisplay10backgroundEt) for TextDisplay::background(unsigned short)
    graphicsdisplay.o(.constdata__ZTV15GraphicsDisplay) refers to pure_virt.o(i.__cxa_pure_virtual) for __cxa_pure_virtual
    graphicsdisplay.o(.constdata__ZTV15GraphicsDisplay) refers to graphicsdisplay.o(i._ZN15GraphicsDisplay6windowEjjjj) for GraphicsDisplay::window(unsigned, unsigned, unsigned, unsigned)
    graphicsdisplay.o(.constdata__ZTV15GraphicsDisplay) refers to graphicsdisplay.o(i._ZN15GraphicsDisplay4putpEi) for GraphicsDisplay::putp(int)
    graphicsdisplay.o(.constdata__ZTV15GraphicsDisplay) refers to graphicsdisplay.o(i._ZN15GraphicsDisplay4fillEiiiii) for GraphicsDisplay::fill(int, int, int, int, int)
    graphicsdisplay.o(.constdata__ZTV15GraphicsDisplay) refers to graphicsdisplay.o(i._ZN15GraphicsDisplay4blitEiiiiPKi) for GraphicsDisplay::blit(int, int, int, int, const int*)
    graphicsdisplay.o(.constdata__ZTV15GraphicsDisplay) refers to graphicsdisplay.o(i._ZN15GraphicsDisplay7blitbitEiiiiPKc) for GraphicsDisplay::blitbit(int, int, int, int, const char*)
    graphicsdisplay.o(.constdata__ZTV15GraphicsDisplay) refers to graphicsdisplay.o(i._ZThn4_N15GraphicsDisplayD1Ev) for thunk{-4} to GraphicsDisplay::~GraphicsDisplay()
    graphicsdisplay.o(.constdata__ZTV15GraphicsDisplay) refers to graphicsdisplay.o(i._ZThn4_N15GraphicsDisplayD0Ev) for thunk{-4} to GraphicsDisplay::~GraphicsDisplay__deallocating()
    graphicsdisplay.o(i._ZN15GraphicsDisplayD2Ev) refers to Stream.o(i._ZN4mbed6StreamD2Ev) for mbed::Stream::~Stream__sub_object()
    graphicsdisplay.o(.ARM.exidx) refers to graphicsdisplay.o(i._ZN15GraphicsDisplayD2Ev) for i._ZN15GraphicsDisplayD2Ev
    graphicsdisplay.o(i._ZN15GraphicsDisplayD0Ev) refers to graphicsdisplay.o(i._ZN15GraphicsDisplayD2Ev) for GraphicsDisplay::~GraphicsDisplay__sub_object()
    graphicsdisplay.o(i._ZN15GraphicsDisplayD0Ev) refers to delete.o(i._ZdlPv) for operator delete (void*)
    graphicsdisplay.o(.ARM.exidx) refers to graphicsdisplay.o(i._ZN15GraphicsDisplayD0Ev) for i._ZN15GraphicsDisplayD0Ev
    graphicsdisplay.o(i._ZThn4_N15GraphicsDisplayD0Ev) refers to graphicsdisplay.o(i._ZN15GraphicsDisplayD0Ev) for GraphicsDisplay::~GraphicsDisplay__deallocating()
    graphicsdisplay.o(.ARM.exidx) refers to graphicsdisplay.o(i._ZThn4_N15GraphicsDisplayD0Ev) for i._ZThn4_N15GraphicsDisplayD0Ev
    graphicsdisplay.o(i._ZThn4_N15GraphicsDisplayD1Ev) refers to graphicsdisplay.o(i._ZN15GraphicsDisplayD2Ev) for GraphicsDisplay::~GraphicsDisplay__sub_object()
    graphicsdisplay.o(.ARM.exidx) refers to graphicsdisplay.o(i._ZThn4_N15GraphicsDisplayD1Ev) for i._ZThn4_N15GraphicsDisplayD1Ev
    graphicsdisplay.o(.constdata__ZTI15GraphicsDisplay) refers to lib_rtti_impl.o(.constdata__ZTVN10__cxxabiv120__si_class_type_infoE) for vtable for __cxxabiv1::__si_class_type_info
    graphicsdisplay.o(.constdata__ZTI15GraphicsDisplay) refers to graphicsdisplay.o(.constdata__ZTS15GraphicsDisplay) for typeinfo name for GraphicsDisplay
    graphicsdisplay.o(.constdata__ZTI15GraphicsDisplay) refers to textdisplay.o(.constdata__ZTI11TextDisplay) for typeinfo for TextDisplay
    spi_tft_ili9341.o(.constdata__ZTV15SPI_TFT_ILI9341) refers to spi_tft_ili9341.o(.constdata__ZTI15SPI_TFT_ILI9341) for typeinfo for SPI_TFT_ILI9341
    spi_tft_ili9341.o(.constdata__ZTV15SPI_TFT_ILI9341) refers to Stream.o(i._ZN4mbed6Stream5writeEPKvj) for mbed::Stream::write(const void*, unsigned)
    spi_tft_ili9341.o(.constdata__ZTV15SPI_TFT_ILI9341) refers to Stream.o(i._ZN4mbed6Stream5closeEv) for mbed::Stream::close()
    spi_tft_ili9341.o(.constdata__ZTV15SPI_TFT_ILI9341) refers to Stream.o(i._ZN4mbed6Stream4readEPvj) for mbed::Stream::read(void*, unsigned)
    spi_tft_ili9341.o(.constdata__ZTV15SPI_TFT_ILI9341) refers to Stream.o(i._ZN4mbed6Stream6isattyEv) for mbed::Stream::isatty()
    spi_tft_ili9341.o(.constdata__ZTV15SPI_TFT_ILI9341) refers to Stream.o(i._ZN4mbed6Stream5lseekEli) for mbed::Stream::lseek(long, int)
    spi_tft_ili9341.o(.constdata__ZTV15SPI_TFT_ILI9341) refers to Stream.o(i._ZN4mbed6Stream5fsyncEv) for mbed::Stream::fsync()
    spi_tft_ili9341.o(.constdata__ZTV15SPI_TFT_ILI9341) refers to Stream.o(i._ZN4mbed6Stream4flenEv) for mbed::Stream::flen()
    spi_tft_ili9341.o(.constdata__ZTV15SPI_TFT_ILI9341) refers to spi_tft_ili9341.o(i._ZN15SPI_TFT_ILI9341D1Ev) for SPI_TFT_ILI9341::~SPI_TFT_ILI9341()
    spi_tft_ili9341.o(.constdata__ZTV15SPI_TFT_ILI9341) refers to spi_tft_ili9341.o(i._ZN15SPI_TFT_ILI9341D0Ev) for SPI_TFT_ILI9341::~SPI_TFT_ILI9341__deallocating()
    spi_tft_ili9341.o(.constdata__ZTV15SPI_TFT_ILI9341) refers to spi_tft_ili9341.o(i._ZN15SPI_TFT_ILI93415_putcEi) for SPI_TFT_ILI9341::_putc(int)
    spi_tft_ili9341.o(.constdata__ZTV15SPI_TFT_ILI9341) refers to textdisplay.o(i._ZN11TextDisplay5_getcEv) for TextDisplay::_getc()
    spi_tft_ili9341.o(.constdata__ZTV15SPI_TFT_ILI9341) refers to spi_tft_ili9341.o(i._ZN15SPI_TFT_ILI93419characterEiii) for SPI_TFT_ILI9341::character(int, int, int)
    spi_tft_ili9341.o(.constdata__ZTV15SPI_TFT_ILI9341) refers to spi_tft_ili9341.o(i._ZN15SPI_TFT_ILI93414rowsEv) for SPI_TFT_ILI9341::rows()
    spi_tft_ili9341.o(.constdata__ZTV15SPI_TFT_ILI9341) refers to spi_tft_ili9341.o(i._ZN15SPI_TFT_ILI93417columnsEv) for SPI_TFT_ILI9341::columns()
    spi_tft_ili9341.o(.constdata__ZTV15SPI_TFT_ILI9341) refers to textdisplay.o(i._ZN11TextDisplay5claimEPSt6__FILE) for TextDisplay::claim(std::__FILE*)
    spi_tft_ili9341.o(.constdata__ZTV15SPI_TFT_ILI9341) refers to spi_tft_ili9341.o(i._ZN15SPI_TFT_ILI93413clsEv) for SPI_TFT_ILI9341::cls()
    spi_tft_ili9341.o(.constdata__ZTV15SPI_TFT_ILI9341) refers to spi_tft_ili9341.o(i._ZN15SPI_TFT_ILI93416locateEii) for SPI_TFT_ILI9341::locate(int, int)
    spi_tft_ili9341.o(.constdata__ZTV15SPI_TFT_ILI9341) refers to textdisplay.o(i._ZN11TextDisplay10foregroundEt) for TextDisplay::foreground(unsigned short)
    spi_tft_ili9341.o(.constdata__ZTV15SPI_TFT_ILI9341) refers to textdisplay.o(i._ZN11TextDisplay10backgroundEt) for TextDisplay::background(unsigned short)
    spi_tft_ili9341.o(.constdata__ZTV15SPI_TFT_ILI9341) refers to spi_tft_ili9341.o(i._ZN15SPI_TFT_ILI93415pixelEiii) for SPI_TFT_ILI9341::pixel(int, int, int)
    spi_tft_ili9341.o(.constdata__ZTV15SPI_TFT_ILI9341) refers to spi_tft_ili9341.o(i._ZN15SPI_TFT_ILI93415widthEv) for SPI_TFT_ILI9341::width()
    spi_tft_ili9341.o(.constdata__ZTV15SPI_TFT_ILI9341) refers to spi_tft_ili9341.o(i._ZN15SPI_TFT_ILI93416heightEv) for SPI_TFT_ILI9341::height()
    spi_tft_ili9341.o(.constdata__ZTV15SPI_TFT_ILI9341) refers to spi_tft_ili9341.o(i._ZN15SPI_TFT_ILI93416windowEjjjj) for SPI_TFT_ILI9341::window(unsigned, unsigned, unsigned, unsigned)
    spi_tft_ili9341.o(.constdata__ZTV15SPI_TFT_ILI9341) refers to graphicsdisplay.o(i._ZN15GraphicsDisplay4putpEi) for GraphicsDisplay::putp(int)
    spi_tft_ili9341.o(.constdata__ZTV15SPI_TFT_ILI9341) refers to graphicsdisplay.o(i._ZN15GraphicsDisplay4fillEiiiii) for GraphicsDisplay::fill(int, int, int, int, int)
    spi_tft_ili9341.o(.constdata__ZTV15SPI_TFT_ILI9341) refers to graphicsdisplay.o(i._ZN15GraphicsDisplay4blitEiiiiPKi) for GraphicsDisplay::blit(int, int, int, int, const int*)
    spi_tft_ili9341.o(.constdata__ZTV15SPI_TFT_ILI9341) refers to graphicsdisplay.o(i._ZN15GraphicsDisplay7blitbitEiiiiPKc) for GraphicsDisplay::blitbit(int, int, int, int, const char*)
    spi_tft_ili9341.o(.constdata__ZTV15SPI_TFT_ILI9341) refers to spi_tft_ili9341.o(i._ZThn4_N15SPI_TFT_ILI9341D1Ev) for thunk{-4} to SPI_TFT_ILI9341::~SPI_TFT_ILI9341()
    spi_tft_ili9341.o(.constdata__ZTV15SPI_TFT_ILI9341) refers to spi_tft_ili9341.o(i._ZThn4_N15SPI_TFT_ILI9341D0Ev) for thunk{-4} to SPI_TFT_ILI9341::~SPI_TFT_ILI9341__deallocating()
    spi_tft_ili9341.o(i._ZN15SPI_TFT_ILI9341D1Ev) refers to Stream.o(i._ZN4mbed6StreamD2Ev) for mbed::Stream::~Stream__sub_object()
    spi_tft_ili9341.o(i._ZN15SPI_TFT_ILI9341D1Ev) refers to spi_tft_ili9341.o(.constdata__ZTV15SPI_TFT_ILI9341) for vtable for SPI_TFT_ILI9341
    spi_tft_ili9341.o(.ARM.exidx) refers to spi_tft_ili9341.o(i._ZN15SPI_TFT_ILI9341D1Ev) for i._ZN15SPI_TFT_ILI9341D1Ev
    spi_tft_ili9341.o(i._ZN15SPI_TFT_ILI9341D0Ev) refers to spi_tft_ili9341.o(i._ZN15SPI_TFT_ILI9341D1Ev) for SPI_TFT_ILI9341::~SPI_TFT_ILI9341()
    spi_tft_ili9341.o(i._ZN15SPI_TFT_ILI9341D0Ev) refers to delete.o(i._ZdlPv) for operator delete (void*)
    spi_tft_ili9341.o(.ARM.exidx) refers to spi_tft_ili9341.o(i._ZN15SPI_TFT_ILI9341D0Ev) for i._ZN15SPI_TFT_ILI9341D0Ev
    spi_tft_ili9341.o(i._ZN4mbed10DigitalOutC1E7PinName) refers to gpio.o(i.gpio_init_out) for gpio_init_out
    spi_tft_ili9341.o(.ARM.exidx) refers to spi_tft_ili9341.o(i._ZN4mbed10DigitalOutC1E7PinName) for i._ZN4mbed10DigitalOutC1E7PinName
    spi_tft_ili9341.o(i._ZThn4_N15SPI_TFT_ILI9341D0Ev) refers to spi_tft_ili9341.o(i._ZN15SPI_TFT_ILI9341D0Ev) for SPI_TFT_ILI9341::~SPI_TFT_ILI9341__deallocating()
    spi_tft_ili9341.o(.ARM.exidx) refers to spi_tft_ili9341.o(i._ZThn4_N15SPI_TFT_ILI9341D0Ev) for i._ZThn4_N15SPI_TFT_ILI9341D0Ev
    spi_tft_ili9341.o(i._ZThn4_N15SPI_TFT_ILI9341D1Ev) refers to spi_tft_ili9341.o(i._ZN15SPI_TFT_ILI9341D1Ev) for SPI_TFT_ILI9341::~SPI_TFT_ILI9341()
    spi_tft_ili9341.o(.ARM.exidx) refers to spi_tft_ili9341.o(i._ZThn4_N15SPI_TFT_ILI9341D1Ev) for i._ZThn4_N15SPI_TFT_ILI9341D1Ev
    spi_tft_ili9341.o(.constdata__ZTI15SPI_TFT_ILI9341) refers to lib_rtti_impl.o(.constdata__ZTVN10__cxxabiv120__si_class_type_infoE) for vtable for __cxxabiv1::__si_class_type_info
    spi_tft_ili9341.o(.constdata__ZTI15SPI_TFT_ILI9341) refers to spi_tft_ili9341.o(.constdata__ZTS15SPI_TFT_ILI9341) for typeinfo name for SPI_TFT_ILI9341
    spi_tft_ili9341.o(.constdata__ZTI15SPI_TFT_ILI9341) refers to graphicsdisplay.o(.constdata__ZTI15GraphicsDisplay) for typeinfo for GraphicsDisplay
    textdisplay.o(.constdata__ZTV11TextDisplay) refers to textdisplay.o(.constdata__ZTI11TextDisplay) for typeinfo for TextDisplay
    textdisplay.o(.constdata__ZTV11TextDisplay) refers to Stream.o(i._ZN4mbed6Stream5writeEPKvj) for mbed::Stream::write(const void*, unsigned)
    textdisplay.o(.constdata__ZTV11TextDisplay) refers to Stream.o(i._ZN4mbed6Stream5closeEv) for mbed::Stream::close()
    textdisplay.o(.constdata__ZTV11TextDisplay) refers to Stream.o(i._ZN4mbed6Stream4readEPvj) for mbed::Stream::read(void*, unsigned)
    textdisplay.o(.constdata__ZTV11TextDisplay) refers to Stream.o(i._ZN4mbed6Stream6isattyEv) for mbed::Stream::isatty()
    textdisplay.o(.constdata__ZTV11TextDisplay) refers to Stream.o(i._ZN4mbed6Stream5lseekEli) for mbed::Stream::lseek(long, int)
    textdisplay.o(.constdata__ZTV11TextDisplay) refers to Stream.o(i._ZN4mbed6Stream5fsyncEv) for mbed::Stream::fsync()
    textdisplay.o(.constdata__ZTV11TextDisplay) refers to Stream.o(i._ZN4mbed6Stream4flenEv) for mbed::Stream::flen()
    textdisplay.o(.constdata__ZTV11TextDisplay) refers to textdisplay.o(i._ZN11TextDisplayD2Ev) for TextDisplay::~TextDisplay__sub_object()
    textdisplay.o(.constdata__ZTV11TextDisplay) refers to textdisplay.o(i._ZN11TextDisplayD0Ev) for TextDisplay::~TextDisplay__deallocating()
    textdisplay.o(.constdata__ZTV11TextDisplay) refers to textdisplay.o(i._ZN11TextDisplay5_putcEi) for TextDisplay::_putc(int)
    textdisplay.o(.constdata__ZTV11TextDisplay) refers to textdisplay.o(i._ZN11TextDisplay5_getcEv) for TextDisplay::_getc()
    textdisplay.o(.constdata__ZTV11TextDisplay) refers to pure_virt.o(i.__cxa_pure_virtual) for __cxa_pure_virtual
    textdisplay.o(.constdata__ZTV11TextDisplay) refers to textdisplay.o(i._ZN11TextDisplay5claimEPSt6__FILE) for TextDisplay::claim(std::__FILE*)
    textdisplay.o(.constdata__ZTV11TextDisplay) refers to textdisplay.o(i._ZN11TextDisplay3clsEv) for TextDisplay::cls()
    textdisplay.o(.constdata__ZTV11TextDisplay) refers to textdisplay.o(i._ZN11TextDisplay6locateEii) for TextDisplay::locate(int, int)
    textdisplay.o(.constdata__ZTV11TextDisplay) refers to textdisplay.o(i._ZN11TextDisplay10foregroundEt) for TextDisplay::foreground(unsigned short)
    textdisplay.o(.constdata__ZTV11TextDisplay) refers to textdisplay.o(i._ZN11TextDisplay10backgroundEt) for TextDisplay::background(unsigned short)
    textdisplay.o(.constdata__ZTV11TextDisplay) refers to textdisplay.o(i._ZThn4_N11TextDisplayD1Ev) for thunk{-4} to TextDisplay::~TextDisplay()
    textdisplay.o(.constdata__ZTV11TextDisplay) refers to textdisplay.o(i._ZThn4_N11TextDisplayD0Ev) for thunk{-4} to TextDisplay::~TextDisplay__deallocating()
    textdisplay.o(i._ZN11TextDisplayD2Ev) refers to Stream.o(i._ZN4mbed6StreamD2Ev) for mbed::Stream::~Stream__sub_object()
    textdisplay.o(.ARM.exidx) refers to textdisplay.o(i._ZN11TextDisplayD2Ev) for i._ZN11TextDisplayD2Ev
    textdisplay.o(i._ZN11TextDisplayD0Ev) refers to textdisplay.o(i._ZN11TextDisplayD2Ev) for TextDisplay::~TextDisplay__sub_object()
    textdisplay.o(i._ZN11TextDisplayD0Ev) refers to delete.o(i._ZdlPv) for operator delete (void*)
    textdisplay.o(.ARM.exidx) refers to textdisplay.o(i._ZN11TextDisplayD0Ev) for i._ZN11TextDisplayD0Ev
    textdisplay.o(i._ZThn4_N11TextDisplayD0Ev) refers to textdisplay.o(i._ZN11TextDisplayD0Ev) for TextDisplay::~TextDisplay__deallocating()
    textdisplay.o(.ARM.exidx) refers to textdisplay.o(i._ZThn4_N11TextDisplayD0Ev) for i._ZThn4_N11TextDisplayD0Ev
    textdisplay.o(i._ZThn4_N11TextDisplayD1Ev) refers to textdisplay.o(i._ZN11TextDisplayD2Ev) for TextDisplay::~TextDisplay__sub_object()
    textdisplay.o(.ARM.exidx) refers to textdisplay.o(i._ZThn4_N11TextDisplayD1Ev) for i._ZThn4_N11TextDisplayD1Ev
    textdisplay.o(.constdata__ZTI11TextDisplay) refers to lib_rtti_impl.o(.constdata__ZTVN10__cxxabiv120__si_class_type_infoE) for vtable for __cxxabiv1::__si_class_type_info
    textdisplay.o(.constdata__ZTI11TextDisplay) refers to textdisplay.o(.constdata__ZTS11TextDisplay) for typeinfo name for TextDisplay
    textdisplay.o(.constdata__ZTI11TextDisplay) refers to Stream.o(.constdata__ZTIN4mbed6StreamE) for typeinfo for mbed::Stream
    hx8340bs.o(.constdata__ZTV11HX8340S_LCD) refers to hx8340bs.o(.constdata__ZTI11HX8340S_LCD) for typeinfo for HX8340S_LCD
    hx8340bs.o(.constdata__ZTV11HX8340S_LCD) refers to hx8340bs.o(i._ZN11HX8340S_LCD10InitializeE16Orientation_enum15ColorDepth_enum) for HX8340S_LCD::Initialize(Orientation_enum, ColorDepth_enum)
    hx8340bs.o(.constdata__ZTV11HX8340S_LCD) refers to hx8340bs.o(i._ZN11HX8340S_LCD5SleepEv) for HX8340S_LCD::Sleep()
    hx8340bs.o(.constdata__ZTV11HX8340S_LCD) refers to hx8340bs.o(i._ZN11HX8340S_LCD6WakeUpEv) for HX8340S_LCD::WakeUp()
    hx8340bs.o(.constdata__ZTV11HX8340S_LCD) refers to lcd_base.o(i._ZN3LCD13SetForegroundEj) for LCD::SetForeground(unsigned)
    hx8340bs.o(.constdata__ZTV11HX8340S_LCD) refers to lcd_base.o(i._ZN3LCD13SetBackgroundEj) for LCD::SetBackground(unsigned)
    hx8340bs.o(.constdata__ZTV11HX8340S_LCD) refers to lcd_base.o(i._ZN3LCD7SetFontEPK18FontMetrics_struct) for LCD::SetFont(const FontMetrics_struct*)
    hx8340bs.o(.constdata__ZTV11HX8340S_LCD) refers to lcd_base.o(i._ZN3LCD10FillScreenEi) for LCD::FillScreen(int)
    hx8340bs.o(.constdata__ZTV11HX8340S_LCD) refers to lcd_base.o(i._ZN3LCD17SetBacklightLevelEf) for LCD::SetBacklightLevel(float)
    hx8340bs.o(.constdata__ZTV11HX8340S_LCD) refers to lcd_base.o(i._ZN3LCD11ClearScreenEv) for LCD::ClearScreen()
    hx8340bs.o(.constdata__ZTV11HX8340S_LCD) refers to lcd_base.o(i._ZN3LCD9DrawPixelEtti) for LCD::DrawPixel(unsigned short, unsigned short, int)
    hx8340bs.o(.constdata__ZTV11HX8340S_LCD) refers to lcd_base.o(i._ZN3LCD8DrawLineEtttti) for LCD::DrawLine(unsigned short, unsigned short, unsigned short, unsigned short, int)
    hx8340bs.o(.constdata__ZTV11HX8340S_LCD) refers to lcd_base.o(i._ZN3LCD8DrawRectEtttti) for LCD::DrawRect(unsigned short, unsigned short, unsigned short, unsigned short, int)
    hx8340bs.o(.constdata__ZTV11HX8340S_LCD) refers to lcd_base.o(i._ZN3LCD13DrawRoundRectEtttti) for LCD::DrawRoundRect(unsigned short, unsigned short, unsigned short, unsigned short, int)
    hx8340bs.o(.constdata__ZTV11HX8340S_LCD) refers to lcd_base.o(i._ZN3LCD8FillRectEtttti) for LCD::FillRect(unsigned short, unsigned short, unsigned short, unsigned short, int)
    hx8340bs.o(.constdata__ZTV11HX8340S_LCD) refers to lcd_base.o(i._ZN3LCD13FillRoundRectEtttti) for LCD::FillRoundRect(unsigned short, unsigned short, unsigned short, unsigned short, int)
    hx8340bs.o(.constdata__ZTV11HX8340S_LCD) refers to lcd_base.o(i._ZN3LCD10DrawCircleEttti) for LCD::DrawCircle(unsigned short, unsigned short, unsigned short, int)
    hx8340bs.o(.constdata__ZTV11HX8340S_LCD) refers to lcd_base.o(i._ZN3LCD10FillCircleEttti) for LCD::FillCircle(unsigned short, unsigned short, unsigned short, int)
    hx8340bs.o(.constdata__ZTV11HX8340S_LCD) refers to lcd_base.o(i._ZN3LCD5PrintEPKcttiit) for LCD::Print(const char*, unsigned short, unsigned short, int, int, unsigned short)
    hx8340bs.o(.constdata__ZTV11HX8340S_LCD) refers to lcd_base.o(i._ZN3LCD10DrawBitmapEttPK13Bitmap_structh) for LCD::DrawBitmap(unsigned short, unsigned short, const Bitmap_struct*, unsigned char)
    hx8340bs.o(.constdata__ZTV11HX8340S_LCD) refers to lcd_base.o(i._ZN3LCD10DrawBitmapEttPK13Bitmap_structttt) for LCD::DrawBitmap(unsigned short, unsigned short, const Bitmap_struct*, unsigned short, unsigned short, unsigned short)
    hx8340bs.o(.constdata__ZTV11HX8340S_LCD) refers to lcd_base.o(i._ZN3LCD8ActivateEv) for LCD::Activate()
    hx8340bs.o(.constdata__ZTV11HX8340S_LCD) refers to lcd_base.o(i._ZN3LCD10DeactivateEv) for LCD::Deactivate()
    hx8340bs.o(.constdata__ZTV11HX8340S_LCD) refers to hx8340bs.o(i._ZN11HX8340S_LCD8WriteCmdEt) for HX8340S_LCD::WriteCmd(unsigned short)
    hx8340bs.o(.constdata__ZTV11HX8340S_LCD) refers to hx8340bs.o(i._ZN11HX8340S_LCD9WriteDataEt) for HX8340S_LCD::WriteData(unsigned short)
    hx8340bs.o(.constdata__ZTV11HX8340S_LCD) refers to lcd_base.o(i._ZN3LCD12WriteCmdDataEtt) for LCD::WriteCmdData(unsigned short, unsigned short)
    hx8340bs.o(.constdata__ZTV11HX8340S_LCD) refers to hx8340bs.o(i._ZN11HX8340S_LCD5SetXYEtttt) for HX8340S_LCD::SetXY(unsigned short, unsigned short, unsigned short, unsigned short)
    hx8340bs.o(.constdata__ZTV11HX8340S_LCD) refers to lcd_base.o(i._ZN3LCD7ClearXYEv) for LCD::ClearXY()
    hx8340bs.o(.constdata__ZTV11HX8340S_LCD) refers to hx8340bs.o(i._ZN11HX8340S_LCD13SetPixelColorEj15ColorDepth_enum) for HX8340S_LCD::SetPixelColor(unsigned, ColorDepth_enum)
    hx8340bs.o(.constdata__ZTV11HX8340S_LCD) refers to lcd_base.o(i._ZN3LCD9DrawHLineEttti) for LCD::DrawHLine(unsigned short, unsigned short, unsigned short, int)
    hx8340bs.o(.constdata__ZTV11HX8340S_LCD) refers to lcd_base.o(i._ZN3LCD9DrawVLineEttti) for LCD::DrawVLine(unsigned short, unsigned short, unsigned short, int)
    hx8340bs.o(.constdata__ZTV11HX8340S_LCD) refers to lcd_base.o(i._ZN3LCD9PrintCharEcttii) for LCD::PrintChar(char, unsigned short, unsigned short, int, int)
    hx8340bs.o(.constdata__ZTV11HX8340S_LCD) refers to lcd_base.o(i._ZN3LCD10RotateCharEcttiiit) for LCD::RotateChar(char, unsigned short, unsigned short, int, int, int, unsigned short)
    hx8340bs.o(.constdata__ZTV11HX8340S_LCD) refers to hx8340bs.o(i._ZN11HX8340S_LCD13WriteByteDataEh) for HX8340S_LCD::WriteByteData(unsigned char)
    hx8340bs.o(.constdata__ZTI11HX8340S_LCD) refers to lib_rtti_impl.o(.constdata__ZTVN10__cxxabiv120__si_class_type_infoE) for vtable for __cxxabiv1::__si_class_type_info
    hx8340bs.o(.constdata__ZTI11HX8340S_LCD) refers to hx8340bs.o(.constdata__ZTS11HX8340S_LCD) for typeinfo name for HX8340S_LCD
    hx8340bs.o(.constdata__ZTI11HX8340S_LCD) refers to lcd_base.o(.constdata__ZTI3LCD) for typeinfo for LCD
    ili9328.o(.constdata__ZTV11ILI9328_LCD) refers to ili9328.o(.constdata__ZTI11ILI9328_LCD) for typeinfo for ILI9328_LCD
    ili9328.o(.constdata__ZTV11ILI9328_LCD) refers to ili9328.o(i._ZN11ILI9328_LCD10InitializeE16Orientation_enum15ColorDepth_enum) for ILI9328_LCD::Initialize(Orientation_enum, ColorDepth_enum)
    ili9328.o(.constdata__ZTV11ILI9328_LCD) refers to ili9328.o(i._ZN11ILI9328_LCD5SleepEv) for ILI9328_LCD::Sleep()
    ili9328.o(.constdata__ZTV11ILI9328_LCD) refers to ili9328.o(i._ZN11ILI9328_LCD6WakeUpEv) for ILI9328_LCD::WakeUp()
    ili9328.o(.constdata__ZTV11ILI9328_LCD) refers to lcd_base.o(i._ZN3LCD13SetForegroundEj) for LCD::SetForeground(unsigned)
    ili9328.o(.constdata__ZTV11ILI9328_LCD) refers to lcd_base.o(i._ZN3LCD13SetBackgroundEj) for LCD::SetBackground(unsigned)
    ili9328.o(.constdata__ZTV11ILI9328_LCD) refers to lcd_base.o(i._ZN3LCD7SetFontEPK18FontMetrics_struct) for LCD::SetFont(const FontMetrics_struct*)
    ili9328.o(.constdata__ZTV11ILI9328_LCD) refers to lcd_base.o(i._ZN3LCD10FillScreenEi) for LCD::FillScreen(int)
    ili9328.o(.constdata__ZTV11ILI9328_LCD) refers to lcd_base.o(i._ZN3LCD17SetBacklightLevelEf) for LCD::SetBacklightLevel(float)
    ili9328.o(.constdata__ZTV11ILI9328_LCD) refers to lcd_base.o(i._ZN3LCD11ClearScreenEv) for LCD::ClearScreen()
    ili9328.o(.constdata__ZTV11ILI9328_LCD) refers to lcd_base.o(i._ZN3LCD9DrawPixelEtti) for LCD::DrawPixel(unsigned short, unsigned short, int)
    ili9328.o(.constdata__ZTV11ILI9328_LCD) refers to lcd_base.o(i._ZN3LCD8DrawLineEtttti) for LCD::DrawLine(unsigned short, unsigned short, unsigned short, unsigned short, int)
    ili9328.o(.constdata__ZTV11ILI9328_LCD) refers to lcd_base.o(i._ZN3LCD8DrawRectEtttti) for LCD::DrawRect(unsigned short, unsigned short, unsigned short, unsigned short, int)
    ili9328.o(.constdata__ZTV11ILI9328_LCD) refers to lcd_base.o(i._ZN3LCD13DrawRoundRectEtttti) for LCD::DrawRoundRect(unsigned short, unsigned short, unsigned short, unsigned short, int)
    ili9328.o(.constdata__ZTV11ILI9328_LCD) refers to lcd_base.o(i._ZN3LCD8FillRectEtttti) for LCD::FillRect(unsigned short, unsigned short, unsigned short, unsigned short, int)
    ili9328.o(.constdata__ZTV11ILI9328_LCD) refers to lcd_base.o(i._ZN3LCD13FillRoundRectEtttti) for LCD::FillRoundRect(unsigned short, unsigned short, unsigned short, unsigned short, int)
    ili9328.o(.constdata__ZTV11ILI9328_LCD) refers to lcd_base.o(i._ZN3LCD10DrawCircleEttti) for LCD::DrawCircle(unsigned short, unsigned short, unsigned short, int)
    ili9328.o(.constdata__ZTV11ILI9328_LCD) refers to lcd_base.o(i._ZN3LCD10FillCircleEttti) for LCD::FillCircle(unsigned short, unsigned short, unsigned short, int)
    ili9328.o(.constdata__ZTV11ILI9328_LCD) refers to lcd_base.o(i._ZN3LCD5PrintEPKcttiit) for LCD::Print(const char*, unsigned short, unsigned short, int, int, unsigned short)
    ili9328.o(.constdata__ZTV11ILI9328_LCD) refers to lcd_base.o(i._ZN3LCD10DrawBitmapEttPK13Bitmap_structh) for LCD::DrawBitmap(unsigned short, unsigned short, const Bitmap_struct*, unsigned char)
    ili9328.o(.constdata__ZTV11ILI9328_LCD) refers to lcd_base.o(i._ZN3LCD10DrawBitmapEttPK13Bitmap_structttt) for LCD::DrawBitmap(unsigned short, unsigned short, const Bitmap_struct*, unsigned short, unsigned short, unsigned short)
    ili9328.o(.constdata__ZTV11ILI9328_LCD) refers to lcd_base.o(i._ZN3LCD8ActivateEv) for LCD::Activate()
    ili9328.o(.constdata__ZTV11ILI9328_LCD) refers to lcd_base.o(i._ZN3LCD10DeactivateEv) for LCD::Deactivate()
    ili9328.o(.constdata__ZTV11ILI9328_LCD) refers to ili9328.o(i._ZN11ILI9328_LCD8WriteCmdEt) for ILI9328_LCD::WriteCmd(unsigned short)
    ili9328.o(.constdata__ZTV11ILI9328_LCD) refers to ili9328.o(i._ZN11ILI9328_LCD9WriteDataEt) for ILI9328_LCD::WriteData(unsigned short)
    ili9328.o(.constdata__ZTV11ILI9328_LCD) refers to lcd_base.o(i._ZN3LCD12WriteCmdDataEtt) for LCD::WriteCmdData(unsigned short, unsigned short)
    ili9328.o(.constdata__ZTV11ILI9328_LCD) refers to ili9328.o(i._ZN11ILI9328_LCD5SetXYEtttt) for ILI9328_LCD::SetXY(unsigned short, unsigned short, unsigned short, unsigned short)
    ili9328.o(.constdata__ZTV11ILI9328_LCD) refers to lcd_base.o(i._ZN3LCD7ClearXYEv) for LCD::ClearXY()
    ili9328.o(.constdata__ZTV11ILI9328_LCD) refers to ili9328.o(i._ZN11ILI9328_LCD13SetPixelColorEj15ColorDepth_enum) for ILI9328_LCD::SetPixelColor(unsigned, ColorDepth_enum)
    ili9328.o(.constdata__ZTV11ILI9328_LCD) refers to lcd_base.o(i._ZN3LCD9DrawHLineEttti) for LCD::DrawHLine(unsigned short, unsigned short, unsigned short, int)
    ili9328.o(.constdata__ZTV11ILI9328_LCD) refers to lcd_base.o(i._ZN3LCD9DrawVLineEttti) for LCD::DrawVLine(unsigned short, unsigned short, unsigned short, int)
    ili9328.o(.constdata__ZTV11ILI9328_LCD) refers to lcd_base.o(i._ZN3LCD9PrintCharEcttii) for LCD::PrintChar(char, unsigned short, unsigned short, int, int)
    ili9328.o(.constdata__ZTV11ILI9328_LCD) refers to lcd_base.o(i._ZN3LCD10RotateCharEcttiiit) for LCD::RotateChar(char, unsigned short, unsigned short, int, int, int, unsigned short)
    ili9328.o(.constdata__ZTI11ILI9328_LCD) refers to lib_rtti_impl.o(.constdata__ZTVN10__cxxabiv120__si_class_type_infoE) for vtable for __cxxabiv1::__si_class_type_info
    ili9328.o(.constdata__ZTI11ILI9328_LCD) refers to ili9328.o(.constdata__ZTS11ILI9328_LCD) for typeinfo name for ILI9328_LCD
    ili9328.o(.constdata__ZTI11ILI9328_LCD) refers to lcd_base.o(.constdata__ZTI3LCD) for typeinfo for LCD
    lcd_base.o(.constdata__ZTV3LCD) refers to lcd_base.o(.constdata__ZTI3LCD) for typeinfo for LCD
    lcd_base.o(.constdata__ZTV3LCD) refers to pure_virt.o(i.__cxa_pure_virtual) for __cxa_pure_virtual
    lcd_base.o(.constdata__ZTV3LCD) refers to lcd_base.o(i._ZN3LCD5SleepEv) for LCD::Sleep()
    lcd_base.o(.constdata__ZTV3LCD) refers to lcd_base.o(i._ZN3LCD6WakeUpEv) for LCD::WakeUp()
    lcd_base.o(.constdata__ZTV3LCD) refers to lcd_base.o(i._ZN3LCD13SetForegroundEj) for LCD::SetForeground(unsigned)
    lcd_base.o(.constdata__ZTV3LCD) refers to lcd_base.o(i._ZN3LCD13SetBackgroundEj) for LCD::SetBackground(unsigned)
    lcd_base.o(.constdata__ZTV3LCD) refers to lcd_base.o(i._ZN3LCD7SetFontEPK18FontMetrics_struct) for LCD::SetFont(const FontMetrics_struct*)
    lcd_base.o(.constdata__ZTV3LCD) refers to lcd_base.o(i._ZN3LCD10FillScreenEi) for LCD::FillScreen(int)
    lcd_base.o(.constdata__ZTV3LCD) refers to lcd_base.o(i._ZN3LCD17SetBacklightLevelEf) for LCD::SetBacklightLevel(float)
    lcd_base.o(.constdata__ZTV3LCD) refers to lcd_base.o(i._ZN3LCD11ClearScreenEv) for LCD::ClearScreen()
    lcd_base.o(.constdata__ZTV3LCD) refers to lcd_base.o(i._ZN3LCD9DrawPixelEtti) for LCD::DrawPixel(unsigned short, unsigned short, int)
    lcd_base.o(.constdata__ZTV3LCD) refers to lcd_base.o(i._ZN3LCD8DrawLineEtttti) for LCD::DrawLine(unsigned short, unsigned short, unsigned short, unsigned short, int)
    lcd_base.o(.constdata__ZTV3LCD) refers to lcd_base.o(i._ZN3LCD8DrawRectEtttti) for LCD::DrawRect(unsigned short, unsigned short, unsigned short, unsigned short, int)
    lcd_base.o(.constdata__ZTV3LCD) refers to lcd_base.o(i._ZN3LCD13DrawRoundRectEtttti) for LCD::DrawRoundRect(unsigned short, unsigned short, unsigned short, unsigned short, int)
    lcd_base.o(.constdata__ZTV3LCD) refers to lcd_base.o(i._ZN3LCD8FillRectEtttti) for LCD::FillRect(unsigned short, unsigned short, unsigned short, unsigned short, int)
    lcd_base.o(.constdata__ZTV3LCD) refers to lcd_base.o(i._ZN3LCD13FillRoundRectEtttti) for LCD::FillRoundRect(unsigned short, unsigned short, unsigned short, unsigned short, int)
    lcd_base.o(.constdata__ZTV3LCD) refers to lcd_base.o(i._ZN3LCD10DrawCircleEttti) for LCD::DrawCircle(unsigned short, unsigned short, unsigned short, int)
    lcd_base.o(.constdata__ZTV3LCD) refers to lcd_base.o(i._ZN3LCD10FillCircleEttti) for LCD::FillCircle(unsigned short, unsigned short, unsigned short, int)
    lcd_base.o(.constdata__ZTV3LCD) refers to lcd_base.o(i._ZN3LCD5PrintEPKcttiit) for LCD::Print(const char*, unsigned short, unsigned short, int, int, unsigned short)
    lcd_base.o(.constdata__ZTV3LCD) refers to lcd_base.o(i._ZN3LCD10DrawBitmapEttPK13Bitmap_structh) for LCD::DrawBitmap(unsigned short, unsigned short, const Bitmap_struct*, unsigned char)
    lcd_base.o(.constdata__ZTV3LCD) refers to lcd_base.o(i._ZN3LCD10DrawBitmapEttPK13Bitmap_structttt) for LCD::DrawBitmap(unsigned short, unsigned short, const Bitmap_struct*, unsigned short, unsigned short, unsigned short)
    lcd_base.o(.constdata__ZTV3LCD) refers to lcd_base.o(i._ZN3LCD8ActivateEv) for LCD::Activate()
    lcd_base.o(.constdata__ZTV3LCD) refers to lcd_base.o(i._ZN3LCD10DeactivateEv) for LCD::Deactivate()
    lcd_base.o(.constdata__ZTV3LCD) refers to lcd_base.o(i._ZN3LCD12WriteCmdDataEtt) for LCD::WriteCmdData(unsigned short, unsigned short)
    lcd_base.o(.constdata__ZTV3LCD) refers to lcd_base.o(i._ZN3LCD7ClearXYEv) for LCD::ClearXY()
    lcd_base.o(.constdata__ZTV3LCD) refers to lcd_base.o(i._ZN3LCD9DrawHLineEttti) for LCD::DrawHLine(unsigned short, unsigned short, unsigned short, int)
    lcd_base.o(.constdata__ZTV3LCD) refers to lcd_base.o(i._ZN3LCD9DrawVLineEttti) for LCD::DrawVLine(unsigned short, unsigned short, unsigned short, int)
    lcd_base.o(.constdata__ZTV3LCD) refers to lcd_base.o(i._ZN3LCD9PrintCharEcttii) for LCD::PrintChar(char, unsigned short, unsigned short, int, int)
    lcd_base.o(.constdata__ZTV3LCD) refers to lcd_base.o(i._ZN3LCD10RotateCharEcttiiit) for LCD::RotateChar(char, unsigned short, unsigned short, int, int, int, unsigned short)
    lcd_base.o(.ARM.exidx) refers to lcd_base.o(i._ZN3LCD13SetForegroundEj) for i._ZN3LCD13SetForegroundEj
    lcd_base.o(.ARM.exidx) refers to lcd_base.o(i._ZN3LCD13SetBackgroundEj) for i._ZN3LCD13SetBackgroundEj
    lcd_base.o(i._ZN4mbed6PwmOutaSEf) refers to pwmout_api.o(i.pwmout_write) for pwmout_write
    lcd_base.o(.ARM.exidx) refers to lcd_base.o(i._ZN4mbed6PwmOutaSEf) for i._ZN4mbed6PwmOutaSEf
    lcd_base.o(.ARM.exidx) refers to lcd_base.o(i._ZN3LCD8GetWidthEv) for i._ZN3LCD8GetWidthEv
    lcd_base.o(.ARM.exidx) refers to lcd_base.o(i._ZN3LCD11ClearScreenEv) for i._ZN3LCD11ClearScreenEv
    lcd_base.o(i._ZN3LCD8ActivateEv) refers to spi_stmpe610.o(i._ZN4mbed10DigitalOutaSEi) for mbed::DigitalOut::operator =(int)
    lcd_base.o(.ARM.exidx) refers to lcd_base.o(i._ZN3LCD8ActivateEv) for i._ZN3LCD8ActivateEv
    lcd_base.o(i._ZN3LCD10DeactivateEv) refers to spi_stmpe610.o(i._ZN4mbed10DigitalOutaSEi) for mbed::DigitalOut::operator =(int)
    lcd_base.o(.ARM.exidx) refers to lcd_base.o(i._ZN3LCD10DeactivateEv) for i._ZN3LCD10DeactivateEv
    lcd_base.o(.ARM.exidx) refers to lcd_base.o(i._ZN3LCD12WriteCmdDataEtt) for i._ZN3LCD12WriteCmdDataEtt
    lcd_base.o(i._ZN3LCD7ClearXYEv) refers to lcd_base.o(i._ZN3LCD8GetWidthEv) for LCD::GetWidth()
    lcd_base.o(.ARM.exidx) refers to lcd_base.o(i._ZN3LCD7ClearXYEv) for i._ZN3LCD7ClearXYEv
    lcd_base.o(.constdata__ZTI3LCD) refers to lib_rtti_impl.o(.constdata__ZTVN10__cxxabiv117__class_type_infoE) for vtable for __cxxabiv1::__class_type_info
    lcd_base.o(.constdata__ZTI3LCD) refers to lcd_base.o(.constdata__ZTS3LCD) for typeinfo name for LCD
    ssd1289.o(.constdata__ZTV11SSD1289_LCD) refers to ssd1289.o(.constdata__ZTI11SSD1289_LCD) for typeinfo for SSD1289_LCD
    ssd1289.o(.constdata__ZTV11SSD1289_LCD) refers to ssd1289.o(i._ZN11SSD1289_LCD10InitializeE16Orientation_enum15ColorDepth_enum) for SSD1289_LCD::Initialize(Orientation_enum, ColorDepth_enum)
    ssd1289.o(.constdata__ZTV11SSD1289_LCD) refers to ssd1289.o(i._ZN11SSD1289_LCD5SleepEv) for SSD1289_LCD::Sleep()
    ssd1289.o(.constdata__ZTV11SSD1289_LCD) refers to ssd1289.o(i._ZN11SSD1289_LCD6WakeUpEv) for SSD1289_LCD::WakeUp()
    ssd1289.o(.constdata__ZTV11SSD1289_LCD) refers to lcd_base.o(i._ZN3LCD13SetForegroundEj) for LCD::SetForeground(unsigned)
    ssd1289.o(.constdata__ZTV11SSD1289_LCD) refers to lcd_base.o(i._ZN3LCD13SetBackgroundEj) for LCD::SetBackground(unsigned)
    ssd1289.o(.constdata__ZTV11SSD1289_LCD) refers to lcd_base.o(i._ZN3LCD7SetFontEPK18FontMetrics_struct) for LCD::SetFont(const FontMetrics_struct*)
    ssd1289.o(.constdata__ZTV11SSD1289_LCD) refers to lcd_base.o(i._ZN3LCD10FillScreenEi) for LCD::FillScreen(int)
    ssd1289.o(.constdata__ZTV11SSD1289_LCD) refers to lcd_base.o(i._ZN3LCD17SetBacklightLevelEf) for LCD::SetBacklightLevel(float)
    ssd1289.o(.constdata__ZTV11SSD1289_LCD) refers to lcd_base.o(i._ZN3LCD11ClearScreenEv) for LCD::ClearScreen()
    ssd1289.o(.constdata__ZTV11SSD1289_LCD) refers to lcd_base.o(i._ZN3LCD9DrawPixelEtti) for LCD::DrawPixel(unsigned short, unsigned short, int)
    ssd1289.o(.constdata__ZTV11SSD1289_LCD) refers to lcd_base.o(i._ZN3LCD8DrawLineEtttti) for LCD::DrawLine(unsigned short, unsigned short, unsigned short, unsigned short, int)
    ssd1289.o(.constdata__ZTV11SSD1289_LCD) refers to lcd_base.o(i._ZN3LCD8DrawRectEtttti) for LCD::DrawRect(unsigned short, unsigned short, unsigned short, unsigned short, int)
    ssd1289.o(.constdata__ZTV11SSD1289_LCD) refers to lcd_base.o(i._ZN3LCD13DrawRoundRectEtttti) for LCD::DrawRoundRect(unsigned short, unsigned short, unsigned short, unsigned short, int)
    ssd1289.o(.constdata__ZTV11SSD1289_LCD) refers to lcd_base.o(i._ZN3LCD8FillRectEtttti) for LCD::FillRect(unsigned short, unsigned short, unsigned short, unsigned short, int)
    ssd1289.o(.constdata__ZTV11SSD1289_LCD) refers to lcd_base.o(i._ZN3LCD13FillRoundRectEtttti) for LCD::FillRoundRect(unsigned short, unsigned short, unsigned short, unsigned short, int)
    ssd1289.o(.constdata__ZTV11SSD1289_LCD) refers to lcd_base.o(i._ZN3LCD10DrawCircleEttti) for LCD::DrawCircle(unsigned short, unsigned short, unsigned short, int)
    ssd1289.o(.constdata__ZTV11SSD1289_LCD) refers to lcd_base.o(i._ZN3LCD10FillCircleEttti) for LCD::FillCircle(unsigned short, unsigned short, unsigned short, int)
    ssd1289.o(.constdata__ZTV11SSD1289_LCD) refers to lcd_base.o(i._ZN3LCD5PrintEPKcttiit) for LCD::Print(const char*, unsigned short, unsigned short, int, int, unsigned short)
    ssd1289.o(.constdata__ZTV11SSD1289_LCD) refers to lcd_base.o(i._ZN3LCD10DrawBitmapEttPK13Bitmap_structh) for LCD::DrawBitmap(unsigned short, unsigned short, const Bitmap_struct*, unsigned char)
    ssd1289.o(.constdata__ZTV11SSD1289_LCD) refers to lcd_base.o(i._ZN3LCD10DrawBitmapEttPK13Bitmap_structttt) for LCD::DrawBitmap(unsigned short, unsigned short, const Bitmap_struct*, unsigned short, unsigned short, unsigned short)
    ssd1289.o(.constdata__ZTV11SSD1289_LCD) refers to lcd_base.o(i._ZN3LCD8ActivateEv) for LCD::Activate()
    ssd1289.o(.constdata__ZTV11SSD1289_LCD) refers to lcd_base.o(i._ZN3LCD10DeactivateEv) for LCD::Deactivate()
    ssd1289.o(.constdata__ZTV11SSD1289_LCD) refers to ssd1289.o(i._ZN11SSD1289_LCD8WriteCmdEt) for SSD1289_LCD::WriteCmd(unsigned short)
    ssd1289.o(.constdata__ZTV11SSD1289_LCD) refers to ssd1289.o(i._ZN11SSD1289_LCD9WriteDataEt) for SSD1289_LCD::WriteData(unsigned short)
    ssd1289.o(.constdata__ZTV11SSD1289_LCD) refers to lcd_base.o(i._ZN3LCD12WriteCmdDataEtt) for LCD::WriteCmdData(unsigned short, unsigned short)
    ssd1289.o(.constdata__ZTV11SSD1289_LCD) refers to ssd1289.o(i._ZN11SSD1289_LCD5SetXYEtttt) for SSD1289_LCD::SetXY(unsigned short, unsigned short, unsigned short, unsigned short)
    ssd1289.o(.constdata__ZTV11SSD1289_LCD) refers to lcd_base.o(i._ZN3LCD7ClearXYEv) for LCD::ClearXY()
    ssd1289.o(.constdata__ZTV11SSD1289_LCD) refers to ssd1289.o(i._ZN11SSD1289_LCD13SetPixelColorEj15ColorDepth_enum) for SSD1289_LCD::SetPixelColor(unsigned, ColorDepth_enum)
    ssd1289.o(.constdata__ZTV11SSD1289_LCD) refers to lcd_base.o(i._ZN3LCD9DrawHLineEttti) for LCD::DrawHLine(unsigned short, unsigned short, unsigned short, int)
    ssd1289.o(.constdata__ZTV11SSD1289_LCD) refers to lcd_base.o(i._ZN3LCD9DrawVLineEttti) for LCD::DrawVLine(unsigned short, unsigned short, unsigned short, int)
    ssd1289.o(.constdata__ZTV11SSD1289_LCD) refers to lcd_base.o(i._ZN3LCD9PrintCharEcttii) for LCD::PrintChar(char, unsigned short, unsigned short, int, int)
    ssd1289.o(.constdata__ZTV11SSD1289_LCD) refers to lcd_base.o(i._ZN3LCD10RotateCharEcttiiit) for LCD::RotateChar(char, unsigned short, unsigned short, int, int, int, unsigned short)
    ssd1289.o(.constdata__ZTI11SSD1289_LCD) refers to lib_rtti_impl.o(.constdata__ZTVN10__cxxabiv120__si_class_type_infoE) for vtable for __cxxabiv1::__si_class_type_info
    ssd1289.o(.constdata__ZTI11SSD1289_LCD) refers to ssd1289.o(.constdata__ZTS11SSD1289_LCD) for typeinfo name for SSD1289_LCD
    ssd1289.o(.constdata__ZTI11SSD1289_LCD) refers to lcd_base.o(.constdata__ZTI3LCD) for typeinfo for LCD
    st7735.o(.constdata__ZTV10ST7735_LCD) refers to st7735.o(.constdata__ZTI10ST7735_LCD) for typeinfo for ST7735_LCD
    st7735.o(.constdata__ZTV10ST7735_LCD) refers to st7735.o(i._ZN10ST7735_LCD10InitializeE16Orientation_enum15ColorDepth_enum) for ST7735_LCD::Initialize(Orientation_enum, ColorDepth_enum)
    st7735.o(.constdata__ZTV10ST7735_LCD) refers to st7735.o(i._ZN10ST7735_LCD5SleepEv) for ST7735_LCD::Sleep()
    st7735.o(.constdata__ZTV10ST7735_LCD) refers to st7735.o(i._ZN10ST7735_LCD6WakeUpEv) for ST7735_LCD::WakeUp()
    st7735.o(.constdata__ZTV10ST7735_LCD) refers to lcd_base.o(i._ZN3LCD13SetForegroundEj) for LCD::SetForeground(unsigned)
    st7735.o(.constdata__ZTV10ST7735_LCD) refers to lcd_base.o(i._ZN3LCD13SetBackgroundEj) for LCD::SetBackground(unsigned)
    st7735.o(.constdata__ZTV10ST7735_LCD) refers to lcd_base.o(i._ZN3LCD7SetFontEPK18FontMetrics_struct) for LCD::SetFont(const FontMetrics_struct*)
    st7735.o(.constdata__ZTV10ST7735_LCD) refers to lcd_base.o(i._ZN3LCD10FillScreenEi) for LCD::FillScreen(int)
    st7735.o(.constdata__ZTV10ST7735_LCD) refers to lcd_base.o(i._ZN3LCD17SetBacklightLevelEf) for LCD::SetBacklightLevel(float)
    st7735.o(.constdata__ZTV10ST7735_LCD) refers to lcd_base.o(i._ZN3LCD11ClearScreenEv) for LCD::ClearScreen()
    st7735.o(.constdata__ZTV10ST7735_LCD) refers to lcd_base.o(i._ZN3LCD9DrawPixelEtti) for LCD::DrawPixel(unsigned short, unsigned short, int)
    st7735.o(.constdata__ZTV10ST7735_LCD) refers to lcd_base.o(i._ZN3LCD8DrawLineEtttti) for LCD::DrawLine(unsigned short, unsigned short, unsigned short, unsigned short, int)
    st7735.o(.constdata__ZTV10ST7735_LCD) refers to lcd_base.o(i._ZN3LCD8DrawRectEtttti) for LCD::DrawRect(unsigned short, unsigned short, unsigned short, unsigned short, int)
    st7735.o(.constdata__ZTV10ST7735_LCD) refers to lcd_base.o(i._ZN3LCD13DrawRoundRectEtttti) for LCD::DrawRoundRect(unsigned short, unsigned short, unsigned short, unsigned short, int)
    st7735.o(.constdata__ZTV10ST7735_LCD) refers to lcd_base.o(i._ZN3LCD8FillRectEtttti) for LCD::FillRect(unsigned short, unsigned short, unsigned short, unsigned short, int)
    st7735.o(.constdata__ZTV10ST7735_LCD) refers to lcd_base.o(i._ZN3LCD13FillRoundRectEtttti) for LCD::FillRoundRect(unsigned short, unsigned short, unsigned short, unsigned short, int)
    st7735.o(.constdata__ZTV10ST7735_LCD) refers to lcd_base.o(i._ZN3LCD10DrawCircleEttti) for LCD::DrawCircle(unsigned short, unsigned short, unsigned short, int)
    st7735.o(.constdata__ZTV10ST7735_LCD) refers to lcd_base.o(i._ZN3LCD10FillCircleEttti) for LCD::FillCircle(unsigned short, unsigned short, unsigned short, int)
    st7735.o(.constdata__ZTV10ST7735_LCD) refers to lcd_base.o(i._ZN3LCD5PrintEPKcttiit) for LCD::Print(const char*, unsigned short, unsigned short, int, int, unsigned short)
    st7735.o(.constdata__ZTV10ST7735_LCD) refers to lcd_base.o(i._ZN3LCD10DrawBitmapEttPK13Bitmap_structh) for LCD::DrawBitmap(unsigned short, unsigned short, const Bitmap_struct*, unsigned char)
    st7735.o(.constdata__ZTV10ST7735_LCD) refers to lcd_base.o(i._ZN3LCD10DrawBitmapEttPK13Bitmap_structttt) for LCD::DrawBitmap(unsigned short, unsigned short, const Bitmap_struct*, unsigned short, unsigned short, unsigned short)
    st7735.o(.constdata__ZTV10ST7735_LCD) refers to lcd_base.o(i._ZN3LCD8ActivateEv) for LCD::Activate()
    st7735.o(.constdata__ZTV10ST7735_LCD) refers to lcd_base.o(i._ZN3LCD10DeactivateEv) for LCD::Deactivate()
    st7735.o(.constdata__ZTV10ST7735_LCD) refers to st7735.o(i._ZN10ST7735_LCD8WriteCmdEt) for ST7735_LCD::WriteCmd(unsigned short)
    st7735.o(.constdata__ZTV10ST7735_LCD) refers to st7735.o(i._ZN10ST7735_LCD9WriteDataEt) for ST7735_LCD::WriteData(unsigned short)
    st7735.o(.constdata__ZTV10ST7735_LCD) refers to lcd_base.o(i._ZN3LCD12WriteCmdDataEtt) for LCD::WriteCmdData(unsigned short, unsigned short)
    st7735.o(.constdata__ZTV10ST7735_LCD) refers to st7735.o(i._ZN10ST7735_LCD5SetXYEtttt) for ST7735_LCD::SetXY(unsigned short, unsigned short, unsigned short, unsigned short)
    st7735.o(.constdata__ZTV10ST7735_LCD) refers to lcd_base.o(i._ZN3LCD7ClearXYEv) for LCD::ClearXY()
    st7735.o(.constdata__ZTV10ST7735_LCD) refers to st7735.o(i._ZN10ST7735_LCD13SetPixelColorEj15ColorDepth_enum) for ST7735_LCD::SetPixelColor(unsigned, ColorDepth_enum)
    st7735.o(.constdata__ZTV10ST7735_LCD) refers to lcd_base.o(i._ZN3LCD9DrawHLineEttti) for LCD::DrawHLine(unsigned short, unsigned short, unsigned short, int)
    st7735.o(.constdata__ZTV10ST7735_LCD) refers to lcd_base.o(i._ZN3LCD9DrawVLineEttti) for LCD::DrawVLine(unsigned short, unsigned short, unsigned short, int)
    st7735.o(.constdata__ZTV10ST7735_LCD) refers to lcd_base.o(i._ZN3LCD9PrintCharEcttii) for LCD::PrintChar(char, unsigned short, unsigned short, int, int)
    st7735.o(.constdata__ZTV10ST7735_LCD) refers to lcd_base.o(i._ZN3LCD10RotateCharEcttiiit) for LCD::RotateChar(char, unsigned short, unsigned short, int, int, int, unsigned short)
    st7735.o(.constdata__ZTV10ST7735_LCD) refers to st7735.o(i._ZN10ST7735_LCD13WriteByteDataEh) for ST7735_LCD::WriteByteData(unsigned char)
    st7735.o(.constdata__ZTI10ST7735_LCD) refers to lib_rtti_impl.o(.constdata__ZTVN10__cxxabiv120__si_class_type_infoE) for vtable for __cxxabiv1::__si_class_type_info
    st7735.o(.constdata__ZTI10ST7735_LCD) refers to st7735.o(.constdata__ZTS10ST7735_LCD) for typeinfo name for ST7735_LCD
    st7735.o(.constdata__ZTI10ST7735_LCD) refers to lcd_base.o(.constdata__ZTI3LCD) for typeinfo for LCD
    mainmain.o(i._ZN7MYTOUCHD1Ev) refers to InterruptIn.o(i._ZN4mbed11InterruptInD1Ev) for mbed::InterruptIn::~InterruptIn()
    mainmain.o(.ARM.exidx) refers to mainmain.o(i._ZN7MYTOUCHD1Ev) for i._ZN7MYTOUCHD1Ev
    BusOut.o(.constdata__ZTVN4mbed6BusOutE) refers to BusOut.o(.constdata__ZTIN4mbed6BusOutE) for typeinfo for mbed::BusOut
    BusOut.o(.constdata__ZTVN4mbed6BusOutE) refers to BusOut.o(i._ZN4mbed6BusOutD1Ev) for mbed::BusOut::~BusOut()
    BusOut.o(.constdata__ZTVN4mbed6BusOutE) refers to BusOut.o(i._ZN4mbed6BusOutD0Ev) for mbed::BusOut::~BusOut__deallocating()
    BusOut.o(.constdata__ZTIN4mbed6BusOutE) refers to lib_rtti_impl.o(.constdata__ZTVN10__cxxabiv117__class_type_infoE) for vtable for __cxxabiv1::__class_type_info
    BusOut.o(.constdata__ZTIN4mbed6BusOutE) refers to BusOut.o(.constdata__ZTSN4mbed6BusOutE) for typeinfo name for mbed::BusOut
    FileSystemLike.o(.constdata__ZTVN4mbed14FileSystemLikeE) refers to FileSystemLike.o(.constdata__ZTIN4mbed14FileSystemLikeE) for typeinfo for mbed::FileSystemLike
    FileSystemLike.o(.constdata__ZTVN4mbed14FileSystemLikeE) refers to FileSystemLike.o(i._ZN4mbed14FileSystemLikeD2Ev) for mbed::FileSystemLike::~FileSystemLike__sub_object()
    FileSystemLike.o(.constdata__ZTVN4mbed14FileSystemLikeE) refers to FileSystemLike.o(i._ZN4mbed14FileSystemLikeD0Ev) for mbed::FileSystemLike::~FileSystemLike__deallocating()
    FileSystemLike.o(.constdata__ZTVN4mbed14FileSystemLikeE) refers to pure_virt.o(i.__cxa_pure_virtual) for __cxa_pure_virtual
    FileSystemLike.o(.constdata__ZTVN4mbed14FileSystemLikeE) refers to FileSystemLike.o(i._ZN4mbed14FileSystemLike6removeEPKc) for mbed::FileSystemLike::remove(const char*)
    FileSystemLike.o(.constdata__ZTVN4mbed14FileSystemLikeE) refers to FileSystemLike.o(i._ZN4mbed14FileSystemLike6renameEPKcS2_) for mbed::FileSystemLike::rename(const char*, const char*)
    FileSystemLike.o(.constdata__ZTVN4mbed14FileSystemLikeE) refers to FileSystemLike.o(i._ZN4mbed14FileSystemLike7opendirEPKc) for mbed::FileSystemLike::opendir(const char*)
    FileSystemLike.o(.constdata__ZTVN4mbed14FileSystemLikeE) refers to FileSystemLike.o(i._ZN4mbed14FileSystemLike5mkdirEPKci) for mbed::FileSystemLike::mkdir(const char*, int)
    FileSystemLike.o(.ARM.exidx) refers to FileSystemLike.o(i._ZN4mbed14FileSystemLike6removeEPKc) for i._ZN4mbed14FileSystemLike6removeEPKc
    FileSystemLike.o(.ARM.exidx) refers to FileSystemLike.o(i._ZN4mbed14FileSystemLike6renameEPKcS2_) for i._ZN4mbed14FileSystemLike6renameEPKcS2_
    FileSystemLike.o(.ARM.exidx) refers to FileSystemLike.o(i._ZN4mbed14FileSystemLike7opendirEPKc) for i._ZN4mbed14FileSystemLike7opendirEPKc
    FileSystemLike.o(.ARM.exidx) refers to FileSystemLike.o(i._ZN4mbed14FileSystemLike5mkdirEPKci) for i._ZN4mbed14FileSystemLike5mkdirEPKci
    FileSystemLike.o(.constdata__ZTVN4mbed13BaseDirHandleE) refers to FileSystemLike.o(.constdata__ZTIN4mbed13BaseDirHandleE) for typeinfo for mbed::BaseDirHandle
    FileSystemLike.o(.constdata__ZTVN4mbed13BaseDirHandleE) refers to FileSystemLike.o(i._ZN4mbed13BaseDirHandle8closedirEv) for mbed::BaseDirHandle::closedir()
    FileSystemLike.o(.constdata__ZTVN4mbed13BaseDirHandleE) refers to FileSystemLike.o(i._ZN4mbed13BaseDirHandle7readdirEv) for mbed::BaseDirHandle::readdir()
    FileSystemLike.o(.constdata__ZTVN4mbed13BaseDirHandleE) refers to FileSystemLike.o(i._ZN4mbed13BaseDirHandle9rewinddirEv) for mbed::BaseDirHandle::rewinddir()
    FileSystemLike.o(.constdata__ZTVN4mbed13BaseDirHandleE) refers to FileSystemLike.o(i._ZN4mbed13BaseDirHandle7telldirEv) for mbed::BaseDirHandle::telldir()
    FileSystemLike.o(.constdata__ZTVN4mbed13BaseDirHandleE) refers to FileSystemLike.o(i._ZN4mbed13BaseDirHandle7seekdirEl) for mbed::BaseDirHandle::seekdir(long)
    FileSystemLike.o(.constdata__ZTVN4mbed13BaseDirHandleE) refers to FileSystemLike.o(i._ZN4mbed13BaseDirHandleD1Ev) for mbed::BaseDirHandle::~BaseDirHandle()
    FileSystemLike.o(.constdata__ZTVN4mbed13BaseDirHandleE) refers to FileSystemLike.o(i._ZN4mbed13BaseDirHandleD0Ev) for mbed::BaseDirHandle::~BaseDirHandle__deallocating()
    FileSystemLike.o(.constdata__ZTIN4mbed14FileSystemLikeE) refers to lib_rtti_impl.o(.constdata__ZTVN10__cxxabiv120__si_class_type_infoE) for vtable for __cxxabiv1::__si_class_type_info
    FileSystemLike.o(.constdata__ZTIN4mbed14FileSystemLikeE) refers to FileSystemLike.o(.constdata__ZTSN4mbed14FileSystemLikeE) for typeinfo name for mbed::FileSystemLike
    FileSystemLike.o(.constdata__ZTIN4mbed14FileSystemLikeE) refers to FileBase.o(.constdata__ZTIN4mbed8FileBaseE) for typeinfo for mbed::FileBase
    FileSystemLike.o(.constdata__ZTIN4mbed13BaseDirHandleE) refers to lib_rtti_impl.o(.constdata__ZTVN10__cxxabiv120__si_class_type_infoE) for vtable for __cxxabiv1::__si_class_type_info
    FileSystemLike.o(.constdata__ZTIN4mbed13BaseDirHandleE) refers to FileSystemLike.o(.constdata__ZTSN4mbed13BaseDirHandleE) for typeinfo name for mbed::BaseDirHandle
    FileSystemLike.o(.constdata__ZTIN4mbed13BaseDirHandleE) refers to FileSystemLike.o(.constdata__ZTIN4mbed9DirHandleE) for typeinfo for mbed::DirHandle
    FileSystemLike.o(.constdata__ZTIN4mbed9DirHandleE) refers to lib_rtti_impl.o(.constdata__ZTVN10__cxxabiv117__class_type_infoE) for vtable for __cxxabiv1::__class_type_info
    FileSystemLike.o(.constdata__ZTIN4mbed9DirHandleE) refers to FileSystemLike.o(.constdata__ZTSN4mbed9DirHandleE) for typeinfo name for mbed::DirHandle
    FileSystemLike.o(.ARM.exidx) refers to FileSystemLike.o(i._ZN4mbed13BaseDirHandle8closedirEv) for i._ZN4mbed13BaseDirHandle8closedirEv
    FileSystemLike.o(i._ZN4mbed13BaseDirHandle7readdirEv) refers to FileBase.o(i._ZN4mbed8FileBase3getEi) for mbed::FileBase::get(int)
    FileSystemLike.o(i._ZN4mbed13BaseDirHandle7readdirEv) refers to FileBase.o(i._ZN4mbed8FileBase7getNameEv) for mbed::FileBase::getName()
    FileSystemLike.o(i._ZN4mbed13BaseDirHandle7readdirEv) refers to strncpy.o(.text) for strncpy
    FileSystemLike.o(.ARM.exidx) refers to FileSystemLike.o(i._ZN4mbed13BaseDirHandle7readdirEv) for i._ZN4mbed13BaseDirHandle7readdirEv
    FileSystemLike.o(.ARM.exidx) refers to FileSystemLike.o(i._ZN4mbed13BaseDirHandle7telldirEv) for i._ZN4mbed13BaseDirHandle7telldirEv
    FileSystemLike.o(.ARM.exidx) refers to FileSystemLike.o(i._ZN4mbed13BaseDirHandle7seekdirEl) for i._ZN4mbed13BaseDirHandle7seekdirEl
    FileSystemLike.o(.ARM.exidx) refers to FileSystemLike.o(i._ZN4mbed13BaseDirHandle9rewinddirEv) for i._ZN4mbed13BaseDirHandle9rewinddirEv
    FileSystemLike.o(.ARM.exidx) refers to FileSystemLike.o(i._ZN4mbed13BaseDirHandleD1Ev) for i._ZN4mbed13BaseDirHandleD1Ev
    FileSystemLike.o(i._ZN4mbed13BaseDirHandleD0Ev) refers to delete.o(i._ZdlPv) for operator delete (void*)
    FileSystemLike.o(.ARM.exidx) refers to FileSystemLike.o(i._ZN4mbed13BaseDirHandleD0Ev) for i._ZN4mbed13BaseDirHandleD0Ev
    InterruptIn.o(.constdata__ZTVN4mbed11InterruptInE) refers to InterruptIn.o(.constdata__ZTIN4mbed11InterruptInE) for typeinfo for mbed::InterruptIn
    InterruptIn.o(.constdata__ZTVN4mbed11InterruptInE) refers to InterruptIn.o(i._ZN4mbed11InterruptInD1Ev) for mbed::InterruptIn::~InterruptIn()
    InterruptIn.o(.constdata__ZTVN4mbed11InterruptInE) refers to InterruptIn.o(i._ZN4mbed11InterruptInD0Ev) for mbed::InterruptIn::~InterruptIn__deallocating()
    InterruptIn.o(.constdata__ZTIN4mbed11InterruptInE) refers to lib_rtti_impl.o(.constdata__ZTVN10__cxxabiv117__class_type_infoE) for vtable for __cxxabiv1::__class_type_info
    InterruptIn.o(.constdata__ZTIN4mbed11InterruptInE) refers to InterruptIn.o(.constdata__ZTSN4mbed11InterruptInE) for typeinfo name for mbed::InterruptIn
    SPI.o(.constdata__ZTVN4mbed3SPIE) refers to SPI.o(.constdata__ZTIN4mbed3SPIE) for typeinfo for mbed::SPI
    SPI.o(.constdata__ZTVN4mbed3SPIE) refers to SPI.o(i._ZN4mbed3SPI5writeEi) for mbed::SPI::write(int)
    SPI.o(.constdata__ZTVN4mbed3SPIE) refers to SPI.o(i._ZN4mbed3SPID1Ev) for mbed::SPI::~SPI()
    SPI.o(.constdata__ZTVN4mbed3SPIE) refers to SPI.o(i._ZN4mbed3SPID0Ev) for mbed::SPI::~SPI__deallocating()
    SPI.o(.ARM.exidx) refers to SPI.o(i._ZN4mbed3SPID1Ev) for i._ZN4mbed3SPID1Ev
    SPI.o(i._ZN4mbed3SPID0Ev) refers to delete.o(i._ZdlPv) for operator delete (void*)
    SPI.o(.ARM.exidx) refers to SPI.o(i._ZN4mbed3SPID0Ev) for i._ZN4mbed3SPID0Ev
    SPI.o(.constdata__ZTIN4mbed3SPIE) refers to lib_rtti_impl.o(.constdata__ZTVN10__cxxabiv117__class_type_infoE) for vtable for __cxxabiv1::__class_type_info
    SPI.o(.constdata__ZTIN4mbed3SPIE) refers to SPI.o(.constdata__ZTSN4mbed3SPIE) for typeinfo name for mbed::SPI
    Stream.o(.constdata__ZTVN4mbed6StreamE) refers to Stream.o(.constdata__ZTIN4mbed6StreamE) for typeinfo for mbed::Stream
    Stream.o(.constdata__ZTVN4mbed6StreamE) refers to Stream.o(i._ZN4mbed6Stream5writeEPKvj) for mbed::Stream::write(const void*, unsigned)
    Stream.o(.constdata__ZTVN4mbed6StreamE) refers to Stream.o(i._ZN4mbed6Stream5closeEv) for mbed::Stream::close()
    Stream.o(.constdata__ZTVN4mbed6StreamE) refers to Stream.o(i._ZN4mbed6Stream4readEPvj) for mbed::Stream::read(void*, unsigned)
    Stream.o(.constdata__ZTVN4mbed6StreamE) refers to Stream.o(i._ZN4mbed6Stream6isattyEv) for mbed::Stream::isatty()
    Stream.o(.constdata__ZTVN4mbed6StreamE) refers to Stream.o(i._ZN4mbed6Stream5lseekEli) for mbed::Stream::lseek(long, int)
    Stream.o(.constdata__ZTVN4mbed6StreamE) refers to Stream.o(i._ZN4mbed6Stream5fsyncEv) for mbed::Stream::fsync()
    Stream.o(.constdata__ZTVN4mbed6StreamE) refers to Stream.o(i._ZN4mbed6Stream4flenEv) for mbed::Stream::flen()
    Stream.o(.constdata__ZTVN4mbed6StreamE) refers to Stream.o(i._ZN4mbed6StreamD2Ev) for mbed::Stream::~Stream__sub_object()
    Stream.o(.constdata__ZTVN4mbed6StreamE) refers to Stream.o(i._ZN4mbed6StreamD0Ev) for mbed::Stream::~Stream__deallocating()
    Stream.o(.constdata__ZTVN4mbed6StreamE) refers to pure_virt.o(i.__cxa_pure_virtual) for __cxa_pure_virtual
    Stream.o(.constdata__ZTVN4mbed6StreamE) refers to Stream.o(i._ZThn4_N4mbed6StreamD1Ev) for thunk{-4} to mbed::Stream::~Stream()
    Stream.o(.constdata__ZTVN4mbed6StreamE) refers to Stream.o(i._ZThn4_N4mbed6StreamD0Ev) for thunk{-4} to mbed::Stream::~Stream__deallocating()
    Stream.o(.constdata__ZTIN4mbed6StreamE) refers to lib_rtti_impl.o(.constdata__ZTVN10__cxxabiv120__si_class_type_infoE) for vtable for __cxxabiv1::__si_class_type_info
    Stream.o(.constdata__ZTIN4mbed6StreamE) refers to Stream.o(.constdata__ZTSN4mbed6StreamE) for typeinfo name for mbed::Stream
    Stream.o(.constdata__ZTIN4mbed6StreamE) refers to FileLike.o(.constdata__ZTIN4mbed8FileLikeE) for typeinfo for mbed::FileLike
    FileBase.o(.constdata__ZTVN4mbed8FileBaseE) refers to FileBase.o(.constdata__ZTIN4mbed8FileBaseE) for typeinfo for mbed::FileBase
    FileBase.o(.constdata__ZTVN4mbed8FileBaseE) refers to FileBase.o(i._ZN4mbed8FileBaseD1Ev) for mbed::FileBase::~FileBase()
    FileBase.o(.constdata__ZTVN4mbed8FileBaseE) refers to FileBase.o(i._ZN4mbed8FileBaseD0Ev) for mbed::FileBase::~FileBase__deallocating()
    FileBase.o(.constdata__ZTIN4mbed8FileBaseE) refers to lib_rtti_impl.o(.constdata__ZTVN10__cxxabiv117__class_type_infoE) for vtable for __cxxabiv1::__class_type_info
    FileBase.o(.constdata__ZTIN4mbed8FileBaseE) refers to FileBase.o(.constdata__ZTSN4mbed8FileBaseE) for typeinfo name for mbed::FileBase
    FileLike.o(.constdata__ZTVN4mbed8FileLikeE) refers to FileLike.o(.constdata__ZTIN4mbed8FileLikeE) for typeinfo for mbed::FileLike
    FileLike.o(.constdata__ZTVN4mbed8FileLikeE) refers to pure_virt.o(i.__cxa_pure_virtual) for __cxa_pure_virtual
    FileLike.o(.constdata__ZTVN4mbed8FileLikeE) refers to retarget.o(i._ZN4mbed10FileHandle4flenEv) for mbed::FileHandle::flen()
    FileLike.o(.constdata__ZTVN4mbed8FileLikeE) refers to FileLike.o(i._ZN4mbed8FileLikeD2Ev) for mbed::FileLike::~FileLike__sub_object()
    FileLike.o(.constdata__ZTVN4mbed8FileLikeE) refers to FileLike.o(i._ZN4mbed8FileLikeD0Ev) for mbed::FileLike::~FileLike__deallocating()
    FileLike.o(.constdata__ZTVN4mbed8FileLikeE) refers to FileLike.o(i._ZThn4_N4mbed8FileLikeD1Ev) for thunk{-4} to mbed::FileLike::~FileLike()
    FileLike.o(.constdata__ZTVN4mbed8FileLikeE) refers to FileLike.o(i._ZThn4_N4mbed8FileLikeD0Ev) for thunk{-4} to mbed::FileLike::~FileLike__deallocating()
    FileLike.o(.constdata__ZTIN4mbed8FileLikeE) refers to lib_rtti_impl.o(.constdata__ZTVN10__cxxabiv121__vmi_class_type_infoE) for vtable for __cxxabiv1::__vmi_class_type_info
    FileLike.o(.constdata__ZTIN4mbed8FileLikeE) refers to FileLike.o(.constdata__ZTSN4mbed8FileLikeE) for typeinfo name for mbed::FileLike
    FileLike.o(.constdata__ZTIN4mbed8FileLikeE) refers to retarget.o(.constdata__ZTIN4mbed10FileHandleE) for typeinfo for mbed::FileHandle
    FileLike.o(.constdata__ZTIN4mbed8FileLikeE) refers to FileBase.o(.constdata__ZTIN4mbed8FileBaseE) for typeinfo for mbed::FileBase
    lib_rtti_impl.o(.constdata__ZTVN10__cxxabiv123__fundamental_type_infoE) refers to lib_rtti_impl.o(.constdata__ZTIN10__cxxabiv123__fundamental_type_infoE) for typeinfo for __cxxabiv1::__fundamental_type_info
    lib_rtti_impl.o(.constdata__ZTVN10__cxxabiv123__fundamental_type_infoE) refers to lib_rtti_impl.o(i._ZN10__cxxabiv123__fundamental_type_infoD1Ev) for __cxxabiv1::__fundamental_type_info::~__fundamental_type_info()
    lib_rtti_impl.o(.constdata__ZTVN10__cxxabiv123__fundamental_type_infoE) refers to lib_rtti_impl.o(i._ZN10__cxxabiv123__fundamental_type_infoD0Ev) for __cxxabiv1::__fundamental_type_info::~__fundamental_type_info__deallocating()
    lib_rtti_impl.o(.constdata__ZTVN10__cxxabiv117__array_type_infoE) refers to lib_rtti_impl.o(.constdata__ZTIN10__cxxabiv117__array_type_infoE) for typeinfo for __cxxabiv1::__array_type_info
    lib_rtti_impl.o(.constdata__ZTVN10__cxxabiv117__array_type_infoE) refers to lib_rtti_impl.o(i._ZN10__cxxabiv117__array_type_infoD1Ev) for __cxxabiv1::__array_type_info::~__array_type_info()
    lib_rtti_impl.o(.constdata__ZTVN10__cxxabiv117__array_type_infoE) refers to lib_rtti_impl.o(i._ZN10__cxxabiv117__array_type_infoD0Ev) for __cxxabiv1::__array_type_info::~__array_type_info__deallocating()
    lib_rtti_impl.o(.constdata__ZTVN10__cxxabiv120__function_type_infoE) refers to lib_rtti_impl.o(.constdata__ZTIN10__cxxabiv120__function_type_infoE) for typeinfo for __cxxabiv1::__function_type_info
    lib_rtti_impl.o(.constdata__ZTVN10__cxxabiv120__function_type_infoE) refers to lib_rtti_impl.o(i._ZN10__cxxabiv120__function_type_infoD1Ev) for __cxxabiv1::__function_type_info::~__function_type_info()
    lib_rtti_impl.o(.constdata__ZTVN10__cxxabiv120__function_type_infoE) refers to lib_rtti_impl.o(i._ZN10__cxxabiv120__function_type_infoD0Ev) for __cxxabiv1::__function_type_info::~__function_type_info__deallocating()
    lib_rtti_impl.o(.constdata__ZTVN10__cxxabiv116__enum_type_infoE) refers to lib_rtti_impl.o(.constdata__ZTIN10__cxxabiv116__enum_type_infoE) for typeinfo for __cxxabiv1::__enum_type_info
    lib_rtti_impl.o(.constdata__ZTVN10__cxxabiv116__enum_type_infoE) refers to lib_rtti_impl.o(i._ZN10__cxxabiv116__enum_type_infoD1Ev) for __cxxabiv1::__enum_type_info::~__enum_type_info()
    lib_rtti_impl.o(.constdata__ZTVN10__cxxabiv116__enum_type_infoE) refers to lib_rtti_impl.o(i._ZN10__cxxabiv116__enum_type_infoD0Ev) for __cxxabiv1::__enum_type_info::~__enum_type_info__deallocating()
    lib_rtti_impl.o(.constdata__ZTVN10__cxxabiv117__class_type_infoE) refers to lib_rtti_impl.o(.constdata__ZTIN10__cxxabiv117__class_type_infoE) for typeinfo for __cxxabiv1::__class_type_info
    lib_rtti_impl.o(.constdata__ZTVN10__cxxabiv117__class_type_infoE) refers to lib_rtti_impl.o(i._ZN10__cxxabiv117__class_type_infoD1Ev) for __cxxabiv1::__class_type_info::~__class_type_info()
    lib_rtti_impl.o(.constdata__ZTVN10__cxxabiv117__class_type_infoE) refers to lib_rtti_impl.o(i._ZN10__cxxabiv117__class_type_infoD0Ev) for __cxxabiv1::__class_type_info::~__class_type_info__deallocating()
    lib_rtti_impl.o(.constdata__ZTVN10__cxxabiv120__si_class_type_infoE) refers to lib_rtti_impl.o(.constdata__ZTIN10__cxxabiv120__si_class_type_infoE) for typeinfo for __cxxabiv1::__si_class_type_info
    lib_rtti_impl.o(.constdata__ZTVN10__cxxabiv120__si_class_type_infoE) refers to lib_rtti_impl.o(i._ZN10__cxxabiv120__si_class_type_infoD1Ev) for __cxxabiv1::__si_class_type_info::~__si_class_type_info()
    lib_rtti_impl.o(.constdata__ZTVN10__cxxabiv120__si_class_type_infoE) refers to lib_rtti_impl.o(i._ZN10__cxxabiv120__si_class_type_infoD0Ev) for __cxxabiv1::__si_class_type_info::~__si_class_type_info__deallocating()
    lib_rtti_impl.o(.constdata__ZTVN10__cxxabiv121__vmi_class_type_infoE) refers to lib_rtti_impl.o(.constdata__ZTIN10__cxxabiv121__vmi_class_type_infoE) for typeinfo for __cxxabiv1::__vmi_class_type_info
    lib_rtti_impl.o(.constdata__ZTVN10__cxxabiv121__vmi_class_type_infoE) refers to lib_rtti_impl.o(i._ZN10__cxxabiv121__vmi_class_type_infoD1Ev) for __cxxabiv1::__vmi_class_type_info::~__vmi_class_type_info()
    lib_rtti_impl.o(.constdata__ZTVN10__cxxabiv121__vmi_class_type_infoE) refers to lib_rtti_impl.o(i._ZN10__cxxabiv121__vmi_class_type_infoD0Ev) for __cxxabiv1::__vmi_class_type_info::~__vmi_class_type_info__deallocating()
    lib_rtti_impl.o(.constdata__ZTVN10__cxxabiv117__pbase_type_infoE) refers to lib_rtti_impl.o(.constdata__ZTIN10__cxxabiv117__pbase_type_infoE) for typeinfo for __cxxabiv1::__pbase_type_info
    lib_rtti_impl.o(.constdata__ZTVN10__cxxabiv117__pbase_type_infoE) refers to lib_rtti_impl.o(i._ZN10__cxxabiv117__pbase_type_infoD1Ev) for __cxxabiv1::__pbase_type_info::~__pbase_type_info()
    lib_rtti_impl.o(.constdata__ZTVN10__cxxabiv117__pbase_type_infoE) refers to lib_rtti_impl.o(i._ZN10__cxxabiv117__pbase_type_infoD0Ev) for __cxxabiv1::__pbase_type_info::~__pbase_type_info__deallocating()
    lib_rtti_impl.o(.constdata__ZTVN10__cxxabiv119__pointer_type_infoE) refers to lib_rtti_impl.o(.constdata__ZTIN10__cxxabiv119__pointer_type_infoE) for typeinfo for __cxxabiv1::__pointer_type_info
    lib_rtti_impl.o(.constdata__ZTVN10__cxxabiv119__pointer_type_infoE) refers to lib_rtti_impl.o(i._ZN10__cxxabiv119__pointer_type_infoD1Ev) for __cxxabiv1::__pointer_type_info::~__pointer_type_info()
    lib_rtti_impl.o(.constdata__ZTVN10__cxxabiv119__pointer_type_infoE) refers to lib_rtti_impl.o(i._ZN10__cxxabiv119__pointer_type_infoD0Ev) for __cxxabiv1::__pointer_type_info::~__pointer_type_info__deallocating()
    lib_rtti_impl.o(.constdata__ZTVN10__cxxabiv129__pointer_to_member_type_infoE) refers to lib_rtti_impl.o(.constdata__ZTIN10__cxxabiv129__pointer_to_member_type_infoE) for typeinfo for __cxxabiv1::__pointer_to_member_type_info
    lib_rtti_impl.o(.constdata__ZTVN10__cxxabiv129__pointer_to_member_type_infoE) refers to lib_rtti_impl.o(i._ZN10__cxxabiv129__pointer_to_member_type_infoD1Ev) for __cxxabiv1::__pointer_to_member_type_info::~__pointer_to_member_type_info()
    lib_rtti_impl.o(.constdata__ZTVN10__cxxabiv129__pointer_to_member_type_infoE) refers to lib_rtti_impl.o(i._ZN10__cxxabiv129__pointer_to_member_type_infoD0Ev) for __cxxabiv1::__pointer_to_member_type_info::~__pointer_to_member_type_info__deallocating()
    lib_rtti_impl.o(.ARM.exidx) refers to lib_rtti_impl.o(i._ZNSt9type_infodlEPv) for i._ZNSt9type_infodlEPv
    lib_rtti_impl.o(.constdata__ZTIN10__cxxabiv123__fundamental_type_infoE) refers to lib_rtti_impl.o(.constdata__ZTVN10__cxxabiv120__si_class_type_infoE) for vtable for __cxxabiv1::__si_class_type_info
    lib_rtti_impl.o(.constdata__ZTIN10__cxxabiv123__fundamental_type_infoE) refers to lib_rtti_impl.o(.constdata__ZTSN10__cxxabiv123__fundamental_type_infoE) for typeinfo name for __cxxabiv1::__fundamental_type_info
    lib_rtti_impl.o(.constdata__ZTIN10__cxxabiv123__fundamental_type_infoE) refers to type_info_dtor.o(.constdata__ZTISt9type_info) for typeinfo for std::type_info
    lib_rtti_impl.o(.constdata__ZTIN10__cxxabiv117__array_type_infoE) refers to lib_rtti_impl.o(.constdata__ZTVN10__cxxabiv120__si_class_type_infoE) for vtable for __cxxabiv1::__si_class_type_info
    lib_rtti_impl.o(.constdata__ZTIN10__cxxabiv117__array_type_infoE) refers to lib_rtti_impl.o(.constdata__ZTSN10__cxxabiv117__array_type_infoE) for typeinfo name for __cxxabiv1::__array_type_info
    lib_rtti_impl.o(.constdata__ZTIN10__cxxabiv117__array_type_infoE) refers to type_info_dtor.o(.constdata__ZTISt9type_info) for typeinfo for std::type_info
    lib_rtti_impl.o(.constdata__ZTIN10__cxxabiv120__function_type_infoE) refers to lib_rtti_impl.o(.constdata__ZTVN10__cxxabiv120__si_class_type_infoE) for vtable for __cxxabiv1::__si_class_type_info
    lib_rtti_impl.o(.constdata__ZTIN10__cxxabiv120__function_type_infoE) refers to lib_rtti_impl.o(.constdata__ZTSN10__cxxabiv120__function_type_infoE) for typeinfo name for __cxxabiv1::__function_type_info
    lib_rtti_impl.o(.constdata__ZTIN10__cxxabiv120__function_type_infoE) refers to type_info_dtor.o(.constdata__ZTISt9type_info) for typeinfo for std::type_info
    lib_rtti_impl.o(.constdata__ZTIN10__cxxabiv116__enum_type_infoE) refers to lib_rtti_impl.o(.constdata__ZTVN10__cxxabiv120__si_class_type_infoE) for vtable for __cxxabiv1::__si_class_type_info
    lib_rtti_impl.o(.constdata__ZTIN10__cxxabiv116__enum_type_infoE) refers to lib_rtti_impl.o(.constdata__ZTSN10__cxxabiv116__enum_type_infoE) for typeinfo name for __cxxabiv1::__enum_type_info
    lib_rtti_impl.o(.constdata__ZTIN10__cxxabiv116__enum_type_infoE) refers to type_info_dtor.o(.constdata__ZTISt9type_info) for typeinfo for std::type_info
    lib_rtti_impl.o(.constdata__ZTIN10__cxxabiv117__class_type_infoE) refers to lib_rtti_impl.o(.constdata__ZTVN10__cxxabiv120__si_class_type_infoE) for vtable for __cxxabiv1::__si_class_type_info
    lib_rtti_impl.o(.constdata__ZTIN10__cxxabiv117__class_type_infoE) refers to lib_rtti_impl.o(.constdata__ZTSN10__cxxabiv117__class_type_infoE) for typeinfo name for __cxxabiv1::__class_type_info
    lib_rtti_impl.o(.constdata__ZTIN10__cxxabiv117__class_type_infoE) refers to type_info_dtor.o(.constdata__ZTISt9type_info) for typeinfo for std::type_info
    lib_rtti_impl.o(.constdata__ZTIN10__cxxabiv120__si_class_type_infoE) refers to lib_rtti_impl.o(.constdata__ZTVN10__cxxabiv120__si_class_type_infoE) for vtable for __cxxabiv1::__si_class_type_info
    lib_rtti_impl.o(.constdata__ZTIN10__cxxabiv120__si_class_type_infoE) refers to lib_rtti_impl.o(.constdata__ZTSN10__cxxabiv120__si_class_type_infoE) for typeinfo name for __cxxabiv1::__si_class_type_info
    lib_rtti_impl.o(.constdata__ZTIN10__cxxabiv120__si_class_type_infoE) refers to lib_rtti_impl.o(.constdata__ZTIN10__cxxabiv117__class_type_infoE) for typeinfo for __cxxabiv1::__class_type_info
    lib_rtti_impl.o(.constdata__ZTIN10__cxxabiv121__vmi_class_type_infoE) refers to lib_rtti_impl.o(.constdata__ZTVN10__cxxabiv120__si_class_type_infoE) for vtable for __cxxabiv1::__si_class_type_info
    lib_rtti_impl.o(.constdata__ZTIN10__cxxabiv121__vmi_class_type_infoE) refers to lib_rtti_impl.o(.constdata__ZTSN10__cxxabiv121__vmi_class_type_infoE) for typeinfo name for __cxxabiv1::__vmi_class_type_info
    lib_rtti_impl.o(.constdata__ZTIN10__cxxabiv121__vmi_class_type_infoE) refers to lib_rtti_impl.o(.constdata__ZTIN10__cxxabiv117__class_type_infoE) for typeinfo for __cxxabiv1::__class_type_info
    lib_rtti_impl.o(.constdata__ZTIN10__cxxabiv117__pbase_type_infoE) refers to lib_rtti_impl.o(.constdata__ZTVN10__cxxabiv120__si_class_type_infoE) for vtable for __cxxabiv1::__si_class_type_info
    lib_rtti_impl.o(.constdata__ZTIN10__cxxabiv117__pbase_type_infoE) refers to lib_rtti_impl.o(.constdata__ZTSN10__cxxabiv117__pbase_type_infoE) for typeinfo name for __cxxabiv1::__pbase_type_info
    lib_rtti_impl.o(.constdata__ZTIN10__cxxabiv117__pbase_type_infoE) refers to type_info_dtor.o(.constdata__ZTISt9type_info) for typeinfo for std::type_info
    lib_rtti_impl.o(.constdata__ZTIN10__cxxabiv119__pointer_type_infoE) refers to lib_rtti_impl.o(.constdata__ZTVN10__cxxabiv120__si_class_type_infoE) for vtable for __cxxabiv1::__si_class_type_info
    lib_rtti_impl.o(.constdata__ZTIN10__cxxabiv119__pointer_type_infoE) refers to lib_rtti_impl.o(.constdata__ZTSN10__cxxabiv119__pointer_type_infoE) for typeinfo name for __cxxabiv1::__pointer_type_info
    lib_rtti_impl.o(.constdata__ZTIN10__cxxabiv119__pointer_type_infoE) refers to lib_rtti_impl.o(.constdata__ZTIN10__cxxabiv117__pbase_type_infoE) for typeinfo for __cxxabiv1::__pbase_type_info
    lib_rtti_impl.o(.constdata__ZTIN10__cxxabiv129__pointer_to_member_type_infoE) refers to lib_rtti_impl.o(.constdata__ZTVN10__cxxabiv120__si_class_type_infoE) for vtable for __cxxabiv1::__si_class_type_info
    lib_rtti_impl.o(.constdata__ZTIN10__cxxabiv129__pointer_to_member_type_infoE) refers to lib_rtti_impl.o(.constdata__ZTSN10__cxxabiv129__pointer_to_member_type_infoE) for typeinfo name for __cxxabiv1::__pointer_to_member_type_info
    lib_rtti_impl.o(.constdata__ZTIN10__cxxabiv129__pointer_to_member_type_infoE) refers to lib_rtti_impl.o(.constdata__ZTIN10__cxxabiv117__pbase_type_infoE) for typeinfo for __cxxabiv1::__pbase_type_info
    lib_rtti_impl.o(i.__ARM_common_noexcept_landing) refers to arm_exceptions_callterm.o(.text) for __cxa_call_terminate
    lib_rtti_impl.o(.ARM.exidx) refers to lib_rtti_impl.o(i.__ARM_common_noexcept_landing) for i.__ARM_common_noexcept_landing
    bad_alloc_dtor.o(.constdata__ZTVSt9bad_alloc) refers to bad_alloc_dtor.o(.constdata__ZTISt9bad_alloc) for typeinfo for std::bad_alloc
    bad_alloc_dtor.o(.constdata__ZTVSt9bad_alloc) refers to bad_alloc_dtor.o(i._ZNSt9bad_allocD1Ev) for std::bad_alloc::~bad_alloc()
    bad_alloc_dtor.o(.constdata__ZTVSt9bad_alloc) refers to bad_alloc_dtor.o(i._ZNSt9bad_allocD0Ev) for std::bad_alloc::~bad_alloc__deallocating()
    bad_alloc_dtor.o(.constdata__ZTVSt9bad_alloc) refers to bad_alloc_what.o(i._ZNKSt9bad_alloc4whatEv) for std::bad_alloc::what() const
    bad_alloc_dtor.o(.constdata__ZTISt9bad_alloc) refers to lib_rtti_impl.o(.constdata__ZTVN10__cxxabiv120__si_class_type_infoE) for vtable for __cxxabiv1::__si_class_type_info
    bad_alloc_dtor.o(.constdata__ZTISt9bad_alloc) refers to bad_alloc_dtor.o(.constdata__ZTSSt9bad_alloc) for typeinfo name for std::bad_alloc
    bad_alloc_dtor.o(.constdata__ZTISt9bad_alloc) refers to exception_dtor.o(.constdata__ZTISt9exception) for typeinfo for std::exception
    type_info_dtor.o(.constdata__ZTVSt9type_info) refers to type_info_dtor.o(.constdata__ZTISt9type_info) for typeinfo for std::type_info
    type_info_dtor.o(.constdata__ZTVSt9type_info) refers to type_info_dtor.o(i._ZNSt9type_infoD1Ev) for std::type_info::~type_info()
    type_info_dtor.o(.constdata__ZTVSt9type_info) refers to type_info_dtor.o(i._ZNSt9type_infoD0Ev) for std::type_info::~type_info__deallocating()
    type_info_dtor.o(.constdata__ZTISt9type_info) refers to lib_rtti_impl.o(.constdata__ZTVN10__cxxabiv117__class_type_infoE) for vtable for __cxxabiv1::__class_type_info
    type_info_dtor.o(.constdata__ZTISt9type_info) refers to type_info_dtor.o(.constdata__ZTSSt9type_info) for typeinfo name for std::type_info
    exception_dtor.o(.constdata__ZTVSt9exception) refers to exception_dtor.o(.constdata__ZTISt9exception) for typeinfo for std::exception
    exception_dtor.o(.constdata__ZTVSt9exception) refers to exception_dtor.o(i._ZNSt9exceptionD1Ev) for std::exception::~exception()
    exception_dtor.o(.constdata__ZTVSt9exception) refers to exception_dtor.o(i._ZNSt9exceptionD0Ev) for std::exception::~exception__deallocating()
    exception_dtor.o(.constdata__ZTVSt9exception) refers to exception_what.o(i._ZNKSt9exception4whatEv) for std::exception::what() const
    exception_dtor.o(.constdata__ZTISt9exception) refers to lib_rtti_impl.o(.constdata__ZTVN10__cxxabiv117__class_type_infoE) for vtable for __cxxabiv1::__class_type_info
    exception_dtor.o(.constdata__ZTISt9exception) refers to exception_dtor.o(.constdata__ZTSSt9exception) for typeinfo name for std::exception


==============================================================================

Removing Unused input sections from the image.

    Removing board.o(.rev16_text), (4 bytes).
    Removing board.o(.revsh_text), (4 bytes).
    Removing cmsis_nvic.o(.rev16_text), (4 bytes).
    Removing cmsis_nvic.o(.revsh_text), (4 bytes).
    Removing cmsis_nvic.o(i.NVIC_GetVector), (16 bytes).
    Removing mbed_overrides.o(.rev16_text), (4 bytes).
    Removing mbed_overrides.o(.revsh_text), (4 bytes).
    Removing retarget.o(.rev16_text), (4 bytes).
    Removing retarget.o(.revsh_text), (4 bytes).
    Removing retarget.o(i._ZN4mbed10FileHandleD0Ev), (48 bytes).
    Removing retarget.o(i._sys_command_string), (4 bytes).
    Removing retarget.o(i._sys_ensure), (40 bytes).
    Removing retarget.o(i._sys_read), (84 bytes).
    Removing retarget.o(i.closedir), (6 bytes).
    Removing retarget.o(i.mkdir), (56 bytes).
    Removing retarget.o(i.opendir), (68 bytes).
    Removing retarget.o(i.readdir), (6 bytes).
    Removing retarget.o(i.remove), (52 bytes).
    Removing retarget.o(i.rename), (80 bytes).
    Removing retarget.o(i.rewinddir), (6 bytes).
    Removing retarget.o(i.seekdir), (6 bytes).
    Removing retarget.o(i.telldir), (6 bytes).
    Removing retarget.o(i.tmpfile), (4 bytes).
    Removing retarget.o(i.tmpnam), (4 bytes).
    Removing retarget.o(.ARM.exidx), (8 bytes).
    Removing retarget.o(.ARM.exidx), (8 bytes).
    Removing retarget.o(.ARM.exidx), (8 bytes).
    Removing retarget.o(.ARM.exidx), (8 bytes).
    Removing retarget.o(.ARM.exidx), (8 bytes).
    Removing retarget.o(.ARM.exidx), (8 bytes).
    Removing retarget.o(.ARM.exidx), (8 bytes).
    Removing retarget.o(.ARM.exidx), (8 bytes).
    Removing retarget.o(.ARM.exidx), (8 bytes).
    Removing retarget.o(.ARM.exidx), (8 bytes).
    Removing retarget.o(.ARM.exidx), (8 bytes).
    Removing retarget.o(.ARM.exidx), (8 bytes).
    Removing retarget.o(.ARM.exidx), (8 bytes).
    Removing retarget.o(.ARM.exidx), (8 bytes).
    Removing retarget.o(.ARM.exidx), (8 bytes).
    Removing retarget.o(.ARM.exidx), (8 bytes).
    Removing retarget.o(.ARM.exidx), (8 bytes).
    Removing retarget.o(.ARM.exidx), (8 bytes).
    Removing retarget.o(.ARM.exidx), (8 bytes).
    Removing retarget.o(.ARM.exidx), (8 bytes).
    Removing retarget.o(.ARM.exidx), (8 bytes).
    Removing retarget.o(.ARM.exidx), (8 bytes).
    Removing retarget.o(.ARM.exidx), (8 bytes).
    Removing retarget.o(.ARM.exidx), (8 bytes).
    Removing retarget.o(.ARM.exidx), (8 bytes).
    Removing sys.o(.ARM.exidx), (8 bytes).
    Removing system_MK64F12.o(.rev16_text), (4 bytes).
    Removing system_MK64F12.o(.revsh_text), (4 bytes).
    Removing system_MK64F12.o(i.SystemCoreClockUpdate), (288 bytes).
    Removing system_MK64F12.o(.data), (4 bytes).
    Removing mma8451q.o(.rev16_text), (4 bytes).
    Removing mma8451q.o(.revsh_text), (4 bytes).
    Removing mma8451q.o(i._ZN8MMA8451Q13getAccAllAxisEPf), (38 bytes).
    Removing mma8451q.o(i._ZN8MMA8451Q7getAccZEv), (76 bytes).
    Removing mma8451q.o(i._ZN8MMA8451Q9getWhoAmIEv), (26 bytes).
    Removing mma8451q.o(i._ZN8MMA8451QD1Ev), (2 bytes).
    Removing mma8451q.o(.ARM.exidx), (8 bytes).
    Removing mma8451q.o(.ARM.exidx), (8 bytes).
    Removing mma8451q.o(.ARM.exidx), (8 bytes).
    Removing mma8451q.o(.ARM.exidx), (8 bytes).
    Removing mma8451q.o(.ARM.exidx), (8 bytes).
    Removing mma8451q.o(.ARM.exidx), (8 bytes).
    Removing mma8451q.o(.ARM.exidx), (8 bytes).
    Removing mma8451q.o(.ARM.exidx), (8 bytes).
    Removing mma8451q.o(.ARM.exidx), (8 bytes).
    Removing mma8451q.o(.ARM.exidx), (8 bytes).
    Removing mytouch.o(.rev16_text), (4 bytes).
    Removing mytouch.o(.revsh_text), (4 bytes).
    Removing mytouch.o(i._ZN7MYTOUCH6TP_GetEh), (108 bytes).
    Removing mytouch.o(.ARM.exidx), (8 bytes).
    Removing mytouch.o(.ARM.exidx), (8 bytes).
    Removing spi_stmpe610.o(.rev16_text), (4 bytes).
    Removing spi_stmpe610.o(.revsh_text), (4 bytes).
    Removing spi_stmpe610.o(i._ZN12SPI_STMPE61011getRAWPointEPtS0_S0_), (168 bytes).
    Removing spi_stmpe610.o(i._ZN12SPI_STMPE6105read8Ei), (24 bytes).
    Removing spi_stmpe610.o(i._ZN12SPI_STMPE6106read16Ei), (36 bytes).
    Removing spi_stmpe610.o(i._ZN12SPI_STMPE6106write8Eih), (30 bytes).
    Removing spi_stmpe610.o(i._ZN12SPI_STMPE6107write16Eit), (38 bytes).
    Removing spi_stmpe610.o(i._ZN12SPI_STMPE6108readRegsEiPhi), (80 bytes).
    Removing spi_stmpe610.o(i._ZN12SPI_STMPE6109writeRegsEPhi), (52 bytes).
    Removing spi_stmpe610.o(i._ZN12SPI_STMPE610C1E7PinNameS0_S0_S0_), (160 bytes).
    Removing spi_stmpe610.o(i._ZN12SPI_STMPE610D1Ev), (8 bytes).
    Removing spi_stmpe610.o(.ARM.exidx), (8 bytes).
    Removing spi_stmpe610.o(.ARM.exidx), (8 bytes).
    Removing spi_stmpe610.o(.ARM.exidx), (8 bytes).
    Removing spi_stmpe610.o(.ARM.exidx), (8 bytes).
    Removing spi_stmpe610.o(.ARM.exidx), (8 bytes).
    Removing spi_stmpe610.o(.ARM.exidx), (8 bytes).
    Removing spi_stmpe610.o(.ARM.exidx), (8 bytes).
    Removing spi_stmpe610.o(.ARM.exidx), (8 bytes).
    Removing spi_stmpe610.o(.ARM.exidx), (8 bytes).
    Removing graphicsdisplay.o(.rev16_text), (4 bytes).
    Removing graphicsdisplay.o(.revsh_text), (4 bytes).
    Removing graphicsdisplay.o(i._ZN15GraphicsDisplay3clsEv), (50 bytes).
    Removing graphicsdisplay.o(i._ZN15GraphicsDisplay4blitEiiiiPKi), (62 bytes).
    Removing graphicsdisplay.o(i._ZN15GraphicsDisplay4fillEiiiii), (60 bytes).
    Removing graphicsdisplay.o(.ARM.exidx), (8 bytes).
    Removing graphicsdisplay.o(.ARM.exidx), (8 bytes).
    Removing graphicsdisplay.o(.ARM.exidx), (8 bytes).
    Removing graphicsdisplay.o(.ARM.exidx), (8 bytes).
    Removing graphicsdisplay.o(.ARM.exidx), (8 bytes).
    Removing graphicsdisplay.o(.ARM.exidx), (8 bytes).
    Removing graphicsdisplay.o(.ARM.exidx), (8 bytes).
    Removing graphicsdisplay.o(.ARM.exidx), (8 bytes).
    Removing graphicsdisplay.o(.ARM.exidx), (8 bytes).
    Removing graphicsdisplay.o(.ARM.exidx), (8 bytes).
    Removing spi_tft_ili9341.o(.rev16_text), (4 bytes).
    Removing spi_tft_ili9341.o(.revsh_text), (4 bytes).
    Removing spi_tft_ili9341.o(i._ZN15SPI_TFT_ILI93414lineEiiiii), (348 bytes).
    Removing spi_tft_ili9341.o(i._ZN15SPI_TFT_ILI93414rectEiiiii), (156 bytes).
    Removing spi_tft_ili9341.o(i._ZN15SPI_TFT_ILI93415hlineEiiii), (118 bytes).
    Removing spi_tft_ili9341.o(i._ZN15SPI_TFT_ILI93416BitmapEjjjjPh), (168 bytes).
    Removing spi_tft_ili9341.o(i._ZN15SPI_TFT_ILI93416circleEiiii), (154 bytes).
    Removing spi_tft_ili9341.o(i._ZN15SPI_TFT_ILI93416wr_datEh), (18 bytes).
    Removing spi_tft_ili9341.o(.ARM.exidx), (8 bytes).
    Removing spi_tft_ili9341.o(.ARM.exidx), (8 bytes).
    Removing spi_tft_ili9341.o(.ARM.exidx), (8 bytes).
    Removing spi_tft_ili9341.o(.ARM.exidx), (8 bytes).
    Removing spi_tft_ili9341.o(.ARM.exidx), (8 bytes).
    Removing spi_tft_ili9341.o(.ARM.exidx), (8 bytes).
    Removing spi_tft_ili9341.o(.ARM.exidx), (8 bytes).
    Removing spi_tft_ili9341.o(.ARM.exidx), (8 bytes).
    Removing spi_tft_ili9341.o(.ARM.exidx), (8 bytes).
    Removing spi_tft_ili9341.o(.ARM.exidx), (8 bytes).
    Removing spi_tft_ili9341.o(.ARM.exidx), (8 bytes).
    Removing spi_tft_ili9341.o(.ARM.exidx), (8 bytes).
    Removing spi_tft_ili9341.o(.ARM.exidx), (8 bytes).
    Removing spi_tft_ili9341.o(.ARM.exidx), (8 bytes).
    Removing spi_tft_ili9341.o(.ARM.exidx), (8 bytes).
    Removing spi_tft_ili9341.o(.ARM.exidx), (8 bytes).
    Removing spi_tft_ili9341.o(.ARM.exidx), (8 bytes).
    Removing spi_tft_ili9341.o(.ARM.exidx), (8 bytes).
    Removing spi_tft_ili9341.o(.ARM.exidx), (8 bytes).
    Removing spi_tft_ili9341.o(.ARM.exidx), (8 bytes).
    Removing spi_tft_ili9341.o(.ARM.exidx), (8 bytes).
    Removing spi_tft_ili9341.o(.ARM.exidx), (8 bytes).
    Removing spi_tft_ili9341.o(.ARM.exidx), (8 bytes).
    Removing spi_tft_ili9341.o(.ARM.exidx), (8 bytes).
    Removing spi_tft_ili9341.o(.ARM.exidx), (8 bytes).
    Removing spi_tft_ili9341.o(.conststring), (82 bytes).
    Removing textdisplay.o(.rev16_text), (4 bytes).
    Removing textdisplay.o(.revsh_text), (4 bytes).
    Removing textdisplay.o(i._ZN11TextDisplay3clsEv), (56 bytes).
    Removing textdisplay.o(i._ZN11TextDisplay5_getcEv), (8 bytes).
    Removing textdisplay.o(i._ZN11TextDisplay5claimEPSt6__FILE), (84 bytes).
    Removing textdisplay.o(i._ZN11TextDisplay6locateEii), (6 bytes).
    Removing textdisplay.o(.ARM.exidx), (8 bytes).
    Removing textdisplay.o(.ARM.exidx), (8 bytes).
    Removing textdisplay.o(.ARM.exidx), (8 bytes).
    Removing textdisplay.o(.ARM.exidx), (8 bytes).
    Removing textdisplay.o(.ARM.exidx), (8 bytes).
    Removing textdisplay.o(.ARM.exidx), (8 bytes).
    Removing textdisplay.o(.ARM.exidx), (8 bytes).
    Removing textdisplay.o(.ARM.exidx), (8 bytes).
    Removing textdisplay.o(.conststring), (86 bytes).
    Removing hx8340bs.o(.rev16_text), (4 bytes).
    Removing hx8340bs.o(.revsh_text), (4 bytes).
    Removing hx8340bs.o(i._ZN11HX8340S_LCD10InitializeE16Orientation_enum15ColorDepth_enum), (894 bytes).
    Removing hx8340bs.o(i._ZN11HX8340S_LCD13SetPixelColorEj15ColorDepth_enum), (258 bytes).
    Removing hx8340bs.o(i._ZN11HX8340S_LCD13WriteByteDataEh), (46 bytes).
    Removing hx8340bs.o(i._ZN11HX8340S_LCD13serializeByteEh), (70 bytes).
    Removing hx8340bs.o(i._ZN11HX8340S_LCD5SetXYEtttt), (74 bytes).
    Removing hx8340bs.o(i._ZN11HX8340S_LCD5SleepEv), (60 bytes).
    Removing hx8340bs.o(i._ZN11HX8340S_LCD6WakeUpEv), (60 bytes).
    Removing hx8340bs.o(i._ZN11HX8340S_LCD8WriteCmdEt), (46 bytes).
    Removing hx8340bs.o(i._ZN11HX8340S_LCD9WriteDataEt), (84 bytes).
    Removing hx8340bs.o(i._ZN11HX8340S_LCDC1E7PinNameS0_S0_S0_S0_21BacklightPwmCtrl_enumf), (104 bytes).
    Removing hx8340bs.o(.ARM.exidx), (8 bytes).
    Removing hx8340bs.o(.ARM.exidx), (8 bytes).
    Removing hx8340bs.o(.ARM.exidx), (8 bytes).
    Removing hx8340bs.o(.ARM.exidx), (8 bytes).
    Removing hx8340bs.o(.ARM.exidx), (8 bytes).
    Removing hx8340bs.o(.ARM.exidx), (8 bytes).
    Removing hx8340bs.o(.ARM.exidx), (8 bytes).
    Removing hx8340bs.o(.ARM.exidx), (8 bytes).
    Removing hx8340bs.o(.ARM.exidx), (8 bytes).
    Removing hx8340bs.o(.ARM.exidx), (8 bytes).
    Removing hx8340bs.o(.conststring), (82 bytes).
    Removing ili9328.o(.rev16_text), (4 bytes).
    Removing ili9328.o(.revsh_text), (4 bytes).
    Removing ili9328.o(i._ZN11ILI9328_LCD10InitializeE16Orientation_enum15ColorDepth_enum), (948 bytes).
    Removing ili9328.o(i._ZN11ILI9328_LCD13SetPixelColorEj15ColorDepth_enum), (270 bytes).
    Removing ili9328.o(i._ZN11ILI9328_LCD5SetXYEtttt), (204 bytes).
    Removing ili9328.o(i._ZN11ILI9328_LCD5SleepEv), (48 bytes).
    Removing ili9328.o(i._ZN11ILI9328_LCD6WakeUpEv), (48 bytes).
    Removing ili9328.o(i._ZN11ILI9328_LCD8WriteCmdEt), (46 bytes).
    Removing ili9328.o(i._ZN11ILI9328_LCD9WriteDataEt), (46 bytes).
    Removing ili9328.o(i._ZN11ILI9328_LCDC1E7PinNameS0_S0_S0_PN4mbed6BusOutES0_S0_21BacklightPwmCtrl_enumf), (128 bytes).
    Removing ili9328.o(.ARM.exidx), (8 bytes).
    Removing ili9328.o(.ARM.exidx), (8 bytes).
    Removing ili9328.o(.ARM.exidx), (8 bytes).
    Removing ili9328.o(.ARM.exidx), (8 bytes).
    Removing ili9328.o(.ARM.exidx), (8 bytes).
    Removing ili9328.o(.ARM.exidx), (8 bytes).
    Removing ili9328.o(.ARM.exidx), (8 bytes).
    Removing ili9328.o(.ARM.exidx), (8 bytes).
    Removing ili9328.o(.conststring), (82 bytes).
    Removing lcd_base.o(.rev16_text), (4 bytes).
    Removing lcd_base.o(.revsh_text), (4 bytes).
    Removing lcd_base.o(i._ZN3LCD10DrawBitmapEttPK13Bitmap_structh), (438 bytes).
    Removing lcd_base.o(i._ZN3LCD10DrawBitmapEttPK13Bitmap_structttt), (816 bytes).
    Removing lcd_base.o(i._ZN3LCD10DrawCircleEttti), (628 bytes).
    Removing lcd_base.o(i._ZN3LCD10FillCircleEttti), (144 bytes).
    Removing lcd_base.o(i._ZN3LCD10FillScreenEi), (84 bytes).
    Removing lcd_base.o(i._ZN3LCD10RotateCharEcttiiit), (620 bytes).
    Removing lcd_base.o(i._ZN3LCD13DrawRoundRectEtttti), (250 bytes).
    Removing lcd_base.o(i._ZN3LCD13FillRoundRectEtttti), (276 bytes).
    Removing lcd_base.o(i._ZN3LCD17SetBacklightLevelEf), (62 bytes).
    Removing lcd_base.o(i._ZN3LCD5PrintEPKcttiit), (160 bytes).
    Removing lcd_base.o(i._ZN3LCD5SleepEv), (40 bytes).
    Removing lcd_base.o(i._ZN3LCD6WakeUpEv), (38 bytes).
    Removing lcd_base.o(i._ZN3LCD7SetFontEPK18FontMetrics_struct), (4 bytes).
    Removing lcd_base.o(i._ZN3LCD8DrawLineEtttti), (836 bytes).
    Removing lcd_base.o(i._ZN3LCD8DrawRectEtttti), (136 bytes).
    Removing lcd_base.o(i._ZN3LCD8FillRectEtttti), (126 bytes).
    Removing lcd_base.o(i._ZN3LCD9DrawHLineEttti), (108 bytes).
    Removing lcd_base.o(i._ZN3LCD9DrawPixelEtti), (76 bytes).
    Removing lcd_base.o(i._ZN3LCD9DrawVLineEttti), (108 bytes).
    Removing lcd_base.o(i._ZN3LCD9PrintCharEcttii), (262 bytes).
    Removing lcd_base.o(i._ZN3LCDC2Ett7PinNameS0_S0_S0_21BacklightPwmCtrl_enumf), (304 bytes).
    Removing lcd_base.o(.ARM.exidx), (8 bytes).
    Removing lcd_base.o(.ARM.exidx), (8 bytes).
    Removing lcd_base.o(.ARM.exidx), (8 bytes).
    Removing lcd_base.o(.ARM.exidx), (8 bytes).
    Removing lcd_base.o(.ARM.exidx), (8 bytes).
    Removing lcd_base.o(.ARM.exidx), (8 bytes).
    Removing lcd_base.o(.ARM.exidx), (8 bytes).
    Removing lcd_base.o(.ARM.exidx), (8 bytes).
    Removing lcd_base.o(.ARM.exidx), (8 bytes).
    Removing lcd_base.o(.ARM.exidx), (8 bytes).
    Removing lcd_base.o(.ARM.exidx), (8 bytes).
    Removing lcd_base.o(.ARM.exidx), (8 bytes).
    Removing lcd_base.o(.ARM.exidx), (8 bytes).
    Removing lcd_base.o(.ARM.exidx), (8 bytes).
    Removing lcd_base.o(.ARM.exidx), (8 bytes).
    Removing lcd_base.o(.ARM.exidx), (8 bytes).
    Removing lcd_base.o(.ARM.exidx), (8 bytes).
    Removing lcd_base.o(.ARM.exidx), (8 bytes).
    Removing lcd_base.o(.ARM.exidx), (8 bytes).
    Removing lcd_base.o(.ARM.exidx), (8 bytes).
    Removing lcd_base.o(.ARM.exidx), (8 bytes).
    Removing lcd_base.o(.conststring), (82 bytes).
    Removing ssd1289.o(.rev16_text), (4 bytes).
    Removing ssd1289.o(.revsh_text), (4 bytes).
    Removing ssd1289.o(i._ZN11SSD1289_LCD10InitializeE16Orientation_enum15ColorDepth_enum), (1270 bytes).
    Removing ssd1289.o(i._ZN11SSD1289_LCD13SetPixelColorEj15ColorDepth_enum), (296 bytes).
    Removing ssd1289.o(i._ZN11SSD1289_LCD5SetXYEtttt), (170 bytes).
    Removing ssd1289.o(i._ZN11SSD1289_LCD5SleepEv), (24 bytes).
    Removing ssd1289.o(i._ZN11SSD1289_LCD6WakeUpEv), (24 bytes).
    Removing ssd1289.o(i._ZN11SSD1289_LCD8WriteCmdEt), (46 bytes).
    Removing ssd1289.o(i._ZN11SSD1289_LCD9WriteDataEt), (46 bytes).
    Removing ssd1289.o(i._ZN11SSD1289_LCDC1E7PinNameS0_S0_S0_PN4mbed6BusOutES0_S0_21BacklightPwmCtrl_enumf), (128 bytes).
    Removing ssd1289.o(.ARM.exidx), (8 bytes).
    Removing ssd1289.o(.ARM.exidx), (8 bytes).
    Removing ssd1289.o(.ARM.exidx), (8 bytes).
    Removing ssd1289.o(.ARM.exidx), (8 bytes).
    Removing ssd1289.o(.ARM.exidx), (8 bytes).
    Removing ssd1289.o(.ARM.exidx), (8 bytes).
    Removing ssd1289.o(.ARM.exidx), (8 bytes).
    Removing ssd1289.o(.ARM.exidx), (8 bytes).
    Removing ssd1289.o(.conststring), (82 bytes).
    Removing st7735.o(.rev16_text), (4 bytes).
    Removing st7735.o(.revsh_text), (4 bytes).
    Removing st7735.o(i._ZN10ST7735_LCD10InitializeE16Orientation_enum15ColorDepth_enum), (1882 bytes).
    Removing st7735.o(i._ZN10ST7735_LCD13SetPixelColorEj15ColorDepth_enum), (258 bytes).
    Removing st7735.o(i._ZN10ST7735_LCD13WriteByteDataEh), (26 bytes).
    Removing st7735.o(i._ZN10ST7735_LCD13serializeByteEh), (70 bytes).
    Removing st7735.o(i._ZN10ST7735_LCD5SetXYEtttt), (74 bytes).
    Removing st7735.o(i._ZN10ST7735_LCD5SleepEv), (60 bytes).
    Removing st7735.o(i._ZN10ST7735_LCD6WakeUpEv), (60 bytes).
    Removing st7735.o(i._ZN10ST7735_LCD8WriteCmdEt), (26 bytes).
    Removing st7735.o(i._ZN10ST7735_LCD9WriteDataEt), (34 bytes).
    Removing st7735.o(i._ZN10ST7735_LCDC1E7PinNameS0_S0_S0_S0_S0_21BacklightPwmCtrl_enumf), (104 bytes).
    Removing st7735.o(.ARM.exidx), (8 bytes).
    Removing st7735.o(.ARM.exidx), (8 bytes).
    Removing st7735.o(.ARM.exidx), (8 bytes).
    Removing st7735.o(.ARM.exidx), (8 bytes).
    Removing st7735.o(.ARM.exidx), (8 bytes).
    Removing st7735.o(.ARM.exidx), (8 bytes).
    Removing st7735.o(.ARM.exidx), (8 bytes).
    Removing st7735.o(.ARM.exidx), (8 bytes).
    Removing st7735.o(.ARM.exidx), (8 bytes).
    Removing st7735.o(.ARM.exidx), (8 bytes).
    Removing st7735.o(.conststring), (82 bytes).
    Removing terminus.o(.rev16_text), (4 bytes).
    Removing terminus.o(.revsh_text), (4 bytes).
    Removing terminus.o(.constdata), (14104 bytes).
    Removing mainmain.o(.rev16_text), (4 bytes).
    Removing mainmain.o(.revsh_text), (4 bytes).
    Removing mainmain.o(.ARM.exidx), (8 bytes).
    Removing mainmain.o(.ARM.exidx), (8 bytes).
    Removing mainmain.o(.ARM.exidx), (8 bytes).
    Removing mainmain.o(.ARM.exidx), (8 bytes).
    Removing mainmain.o(.ARM.exidx), (8 bytes).
    Removing mainmain.o(.ARM.exidx), (8 bytes).
    Removing mainmain.o(.ARM.exidx), (8 bytes).
    Removing mainmain.o(.ARM.exidx), (8 bytes).
    Removing mainmain.o(.ARM.exidx), (8 bytes).
    Removing mainmain.o(.ARM.exidx), (8 bytes).
    Removing mainmain.o(.ARM.exidx), (8 bytes).
    Removing mainmain.o(.ARM.exidx), (8 bytes).
    Removing mainmain.o(.ARM.exidx), (8 bytes).
    Removing mainmain.o(.ARM.exidx), (8 bytes).
    Removing mainmain.o(.ARM.exidx), (8 bytes).
    Removing mainmain.o(.ARM.exidx), (8 bytes).
    Removing mainmain.o(.conststring), (82 bytes).
    Removing fsl_gpio_hal.o(.rev16_text), (4 bytes).
    Removing fsl_gpio_hal.o(.revsh_text), (4 bytes).
    Removing pwmout_api.o(.rev16_text), (4 bytes).
    Removing pwmout_api.o(.revsh_text), (4 bytes).
    Removing pwmout_api.o(i.pwmout_free), (2 bytes).
    Removing pwmout_api.o(i.pwmout_init), (344 bytes).
    Removing pwmout_api.o(i.pwmout_period), (24 bytes).
    Removing pwmout_api.o(i.pwmout_period_ms), (10 bytes).
    Removing pwmout_api.o(i.pwmout_period_us), (216 bytes).
    Removing pwmout_api.o(i.pwmout_pulsewidth), (100 bytes).
    Removing pwmout_api.o(i.pwmout_pulsewidth_ms), (96 bytes).
    Removing pwmout_api.o(i.pwmout_pulsewidth_us), (88 bytes).
    Removing pwmout_api.o(i.pwmout_read), (116 bytes).
    Removing pwmout_api.o(i.pwmout_write), (188 bytes).
    Removing pwmout_api.o(.constdata), (359 bytes).
    Removing pwmout_api.o(.data), (4 bytes).
    Removing serial_api.o(.rev16_text), (4 bytes).
    Removing serial_api.o(.revsh_text), (4 bytes).
    Removing serial_api.o(i.serial_baud), (40 bytes).
    Removing serial_api.o(i.serial_break_clear), (8 bytes).
    Removing serial_api.o(i.serial_break_set), (8 bytes).
    Removing serial_api.o(i.serial_clear), (2 bytes).
    Removing serial_api.o(i.serial_format), (36 bytes).
    Removing serial_api.o(i.serial_free), (16 bytes).
    Removing serial_api.o(i.serial_getc), (44 bytes).
    Removing serial_api.o(i.serial_irq_handler), (24 bytes).
    Removing serial_api.o(i.serial_irq_set), (204 bytes).
    Removing serial_api.o(i.serial_pinout_tx), (12 bytes).
    Removing serial_api.o(i.serial_readable), (30 bytes).
    Removing serial_api.o(i.serial_writable), (30 bytes).
    Removing serial_api.o(i.uart0_irq), (80 bytes).
    Removing serial_api.o(i.uart1_irq), (72 bytes).
    Removing serial_api.o(i.uart2_irq), (72 bytes).
    Removing serial_api.o(i.uart3_irq), (72 bytes).
    Removing serial_api.o(i.uart4_irq), (72 bytes).
    Removing serial_api.o(.bss), (16 bytes).
    Removing BusOut.o(.rev16_text), (4 bytes).
    Removing BusOut.o(.revsh_text), (4 bytes).
    Removing BusOut.o(i._ZN4mbed6BusOut4readEv), (124 bytes).
    Removing BusOut.o(i._ZN4mbed6BusOut5writeEi), (72 bytes).
    Removing BusOut.o(i._ZN4mbed6BusOutC1E7PinNameS1_S1_S1_S1_S1_S1_S1_S1_S1_S1_S1_S1_S1_S1_S1_), (144 bytes).
    Removing BusOut.o(i._ZN4mbed6BusOutC1EP7PinName), (72 bytes).
    Removing BusOut.o(i._ZN4mbed6BusOutD0Ev), (48 bytes).
    Removing BusOut.o(i._ZN4mbed6BusOutD1Ev), (40 bytes).
    Removing BusOut.o(i._ZN4mbed6BusOutaSERS0_), (80 bytes).
    Removing BusOut.o(i._ZN4mbed6BusOutaSEi), (84 bytes).
    Removing BusOut.o(i._ZN4mbed6BusOutcviEv), (4 bytes).
    Removing BusOut.o(.ARM.exidx), (8 bytes).
    Removing BusOut.o(.ARM.exidx), (8 bytes).
    Removing BusOut.o(.ARM.exidx), (8 bytes).
    Removing BusOut.o(.ARM.exidx), (8 bytes).
    Removing BusOut.o(.ARM.exidx), (8 bytes).
    Removing BusOut.o(.ARM.exidx), (8 bytes).
    Removing BusOut.o(.ARM.exidx), (8 bytes).
    Removing BusOut.o(.ARM.exidx), (8 bytes).
    Removing BusOut.o(.ARM.exidx), (8 bytes).
    Removing BusOut.o(.constdata), (313 bytes).
    Removing FilePath.o(.rev16_text), (4 bytes).
    Removing FilePath.o(.revsh_text), (4 bytes).
    Removing FilePath.o(i._ZN4mbed8FilePath12isFileSystemEv), (22 bytes).
    Removing FilePath.o(.ARM.exidx), (8 bytes).
    Removing FilePath.o(.ARM.exidx), (8 bytes).
    Removing FilePath.o(.ARM.exidx), (8 bytes).
    Removing FilePath.o(.ARM.exidx), (8 bytes).
    Removing FilePath.o(.ARM.exidx), (8 bytes).
    Removing FilePath.o(.ARM.exidx), (8 bytes).
    Removing FilePath.o(.ARM.exidx), (8 bytes).
    Removing FileSystemLike.o(.rev16_text), (4 bytes).
    Removing FileSystemLike.o(.revsh_text), (4 bytes).
    Removing FileSystemLike.o(i._ZN4mbed14FileSystemLike7opendirEv), (40 bytes).
    Removing FileSystemLike.o(i._ZN4mbed14FileSystemLikeC2EPKc), (20 bytes).
    Removing FileSystemLike.o(i._ZN4mbed14FileSystemLikeD0Ev), (14 bytes).
    Removing FileSystemLike.o(i._ZN4mbed14FileSystemLikeD2Ev), (4 bytes).
    Removing FileSystemLike.o(.ARM.exidx), (8 bytes).
    Removing FileSystemLike.o(.ARM.exidx), (8 bytes).
    Removing FileSystemLike.o(.ARM.exidx), (8 bytes).
    Removing FileSystemLike.o(.ARM.exidx), (8 bytes).
    Removing I2C.o(.rev16_text), (4 bytes).
    Removing I2C.o(.revsh_text), (4 bytes).
    Removing I2C.o(i._ZN4mbed3I2C4readEi), (14 bytes).
    Removing I2C.o(i._ZN4mbed3I2C4stopEv), (4 bytes).
    Removing I2C.o(i._ZN4mbed3I2C5startEv), (4 bytes).
    Removing I2C.o(i._ZN4mbed3I2C5writeEi), (4 bytes).
    Removing I2C.o(i._ZN4mbed3I2C6aquireEv), (32 bytes).
    Removing I2C.o(i._ZN4mbed3I2C9frequencyEi), (20 bytes).
    Removing I2C.o(.ARM.exidx), (8 bytes).
    Removing I2C.o(.ARM.exidx), (8 bytes).
    Removing I2C.o(.ARM.exidx), (8 bytes).
    Removing I2C.o(.ARM.exidx), (8 bytes).
    Removing I2C.o(.ARM.exidx), (8 bytes).
    Removing I2C.o(.ARM.exidx), (8 bytes).
    Removing I2C.o(.ARM.exidx), (8 bytes).
    Removing I2C.o(.ARM.exidx), (8 bytes).
    Removing I2C.o(.ARM.exidx), (8 bytes).
    Removing InterruptIn.o(.rev16_text), (4 bytes).
    Removing InterruptIn.o(.revsh_text), (4 bytes).
    Removing InterruptIn.o(i._ZN4mbed11InterruptIn10enable_irqEv), (6 bytes).
    Removing InterruptIn.o(i._ZN4mbed11InterruptIn11disable_irqEv), (6 bytes).
    Removing InterruptIn.o(i._ZN4mbed11InterruptIn4modeE7PinMode), (6 bytes).
    Removing InterruptIn.o(i._ZN4mbed11InterruptIn4readEv), (96 bytes).
    Removing InterruptIn.o(i._ZN4mbed11InterruptIn4riseEPFvvE), (44 bytes).
    Removing InterruptIn.o(i._ZN4mbed11InterruptInD0Ev), (32 bytes).
    Removing InterruptIn.o(i._ZN4mbed11InterruptIncviEv), (96 bytes).
    Removing InterruptIn.o(.ARM.exidx), (8 bytes).
    Removing InterruptIn.o(.ARM.exidx), (8 bytes).
    Removing InterruptIn.o(.ARM.exidx), (8 bytes).
    Removing InterruptIn.o(.ARM.exidx), (8 bytes).
    Removing InterruptIn.o(.ARM.exidx), (8 bytes).
    Removing InterruptIn.o(.ARM.exidx), (8 bytes).
    Removing InterruptIn.o(.ARM.exidx), (8 bytes).
    Removing InterruptIn.o(.ARM.exidx), (8 bytes).
    Removing InterruptIn.o(.ARM.exidx), (8 bytes).
    Removing InterruptIn.o(.ARM.exidx), (8 bytes).
    Removing InterruptIn.o(.ARM.exidx), (8 bytes).
    Removing InterruptIn.o(.constdata), (313 bytes).
    Removing SPI.o(.rev16_text), (4 bytes).
    Removing SPI.o(.revsh_text), (4 bytes).
    Removing SPI.o(i._ZN4mbed3SPI6aquireEv), (44 bytes).
    Removing SPI.o(.ARM.exidx), (8 bytes).
    Removing SPI.o(.ARM.exidx), (8 bytes).
    Removing SPI.o(.ARM.exidx), (8 bytes).
    Removing SPI.o(.ARM.exidx), (8 bytes).
    Removing SPI.o(.ARM.exidx), (8 bytes).
    Removing Stream.o(.rev16_text), (4 bytes).
    Removing Stream.o(.revsh_text), (4 bytes).
    Removing Stream.o(i._ZN4mbed6Stream4getcEv), (20 bytes).
    Removing Stream.o(i._ZN4mbed6Stream4getsEPci), (28 bytes).
    Removing Stream.o(i._ZN4mbed6Stream4putcEi), (24 bytes).
    Removing Stream.o(i._ZN4mbed6Stream4putsEPKc), (24 bytes).
    Removing Stream.o(i._ZN4mbed6Stream4readEPvj), (42 bytes).
    Removing Stream.o(i._ZN4mbed6Stream5fsyncEv), (4 bytes).
    Removing Stream.o(i._ZN4mbed6Stream5scanfEPKcz), (30 bytes).
    Removing Stream.o(i._ZN4mbed6StreamD0Ev), (36 bytes).
    Removing Stream.o(i._ZThn4_N4mbed6StreamD0Ev), (36 bytes).
    Removing Stream.o(i._ZThn4_N4mbed6StreamD1Ev), (32 bytes).
    Removing Stream.o(.ARM.exidx), (8 bytes).
    Removing Stream.o(.ARM.exidx), (8 bytes).
    Removing Stream.o(.ARM.exidx), (8 bytes).
    Removing Stream.o(.ARM.exidx), (8 bytes).
    Removing Stream.o(.ARM.exidx), (8 bytes).
    Removing Stream.o(.ARM.exidx), (8 bytes).
    Removing Stream.o(.ARM.exidx), (8 bytes).
    Removing Stream.o(.ARM.exidx), (8 bytes).
    Removing Stream.o(.ARM.exidx), (8 bytes).
    Removing Stream.o(.ARM.exidx), (8 bytes).
    Removing Stream.o(.ARM.exidx), (8 bytes).
    Removing Stream.o(.ARM.exidx), (8 bytes).
    Removing Stream.o(.ARM.exidx), (8 bytes).
    Removing Stream.o(.ARM.exidx), (8 bytes).
    Removing Stream.o(.ARM.exidx), (8 bytes).
    Removing Stream.o(.ARM.exidx), (8 bytes).
    Removing Stream.o(.ARM.exidx), (8 bytes).
    Removing Stream.o(.ARM.exidx), (8 bytes).
    Removing assert.o(.rev16_text), (4 bytes).
    Removing assert.o(.revsh_text), (4 bytes).
    Removing gpio.o(.rev16_text), (4 bytes).
    Removing gpio.o(.revsh_text), (4 bytes).
    Removing gpio.o(i.gpio_init_in_ex), (38 bytes).
    Removing gpio.o(i.gpio_init_inout), (144 bytes).
    Removing gpio.o(i.gpio_init_out_ex), (80 bytes).
    Removing fsl_clock_manager.o(.rev16_text), (4 bytes).
    Removing fsl_clock_manager.o(.revsh_text), (4 bytes).
    Removing fsl_clock_manager.o(i.clock_manager_get_frequency_by_source), (424 bytes).
    Removing fsl_clock_manager.o(i.clock_manager_get_gate), (24 bytes).
    Removing fsl_clock_manager.o(.constdata), (138 bytes).
    Removing fsl_ftm_hal.o(.rev16_text), (4 bytes).
    Removing fsl_ftm_hal.o(.revsh_text), (4 bytes).
    Removing fsl_ftm_hal.o(i.ftm_hal_disable_pwm_mode), (188 bytes).
    Removing fsl_ftm_hal.o(i.ftm_hal_enable_channel_trigger), (108 bytes).
    Removing fsl_ftm_hal.o(i.ftm_hal_enable_dual_channel_combine), (156 bytes).
    Removing fsl_ftm_hal.o(i.ftm_hal_enable_pwm_mode), (332 bytes).
    Removing fsl_ftm_hal.o(i.ftm_hal_init), (48 bytes).
    Removing fsl_ftm_hal.o(i.ftm_hal_reset), (328 bytes).
    Removing fsl_ftm_hal.o(i.ftm_hal_set_channel_input_capture_filter), (168 bytes).
    Removing fsl_ftm_hal.o(i.ftm_hal_set_hardware_trigger), (140 bytes).
    Removing fsl_ftm_hal.o(.constdata), (524 bytes).
    Removing fsl_uart_hal_common_configurations.o(.rev16_text), (4 bytes).
    Removing fsl_uart_hal_common_configurations.o(.revsh_text), (4 bytes).
    Removing fsl_uart_hal_common_configurations.o(i.uart_hal_configure_bit_count_per_char), (84 bytes).
    Removing fsl_uart_hal_common_configurations.o(i.uart_hal_configure_parity_mode), (84 bytes).
    Removing fsl_uart_hal_common_configurations.o(i.uart_hal_configure_stop_bit_count), (36 bytes).
    Removing fsl_uart_hal_common_configurations.o(i.uart_hal_configure_tx_rx_inversion), (60 bytes).
    Removing fsl_uart_hal_common_configurations.o(i.uart_hal_disable_receiver), (44 bytes).
    Removing fsl_uart_hal_common_configurations.o(i.uart_hal_disable_transmitter), (44 bytes).
    Removing fsl_uart_hal_common_configurations.o(i.uart_hal_enable_receiver), (44 bytes).
    Removing fsl_uart_hal_common_configurations.o(i.uart_hal_enable_transmitter), (48 bytes).
    Removing fsl_uart_hal_common_configurations.o(i.uart_hal_is_receiver_enabled), (76 bytes).
    Removing fsl_uart_hal_common_configurations.o(i.uart_hal_is_transmitter_enabled), (76 bytes).
    Removing fsl_uart_hal_common_configurations.o(i.uart_hal_set_baud_rate), (104 bytes).
    Removing fsl_uart_hal_common_configurations.o(i.uart_hal_set_baud_rate_divisor), (112 bytes).
    Removing fsl_uart_hal_common_configurations.o(i.uart_hal_set_baud_rate_fine_adjust), (88 bytes).
    Removing fsl_uart_hal_special_feature_configurations.o(.rev16_text), (4 bytes).
    Removing fsl_uart_hal_special_feature_configurations.o(.revsh_text), (4 bytes).
    Removing fsl_uart_hal_special_feature_configurations.o(i.uart_hal_configure_idle_line_detect), (108 bytes).
    Removing fsl_uart_hal_special_feature_configurations.o(i.uart_hal_configure_infrared_operation), (96 bytes).
    Removing fsl_uart_hal_special_feature_configurations.o(i.uart_hal_configure_loopback_mode), (92 bytes).
    Removing fsl_uart_hal_special_feature_configurations.o(i.uart_hal_configure_match_address_operation), (112 bytes).
    Removing fsl_uart_hal_special_feature_configurations.o(i.uart_hal_configure_receive_resync_disable_operation), (64 bytes).
    Removing fsl_uart_hal_special_feature_configurations.o(i.uart_hal_configure_send_msb_first_operation), (84 bytes).
    Removing fsl_uart_hal_special_feature_configurations.o(i.uart_hal_configure_singlewire_mode), (92 bytes).
    Removing fsl_uart_hal_special_feature_configurations.o(i.uart_hal_configure_transmitter_rts_polarity), (84 bytes).
    Removing fsl_uart_hal_special_feature_configurations.o(i.uart_hal_configure_txdir_in_singlewire_mode), (80 bytes).
    Removing fsl_uart_hal_special_feature_configurations.o(i.uart_hal_configure_wait_mode_operation), (80 bytes).
    Removing fsl_uart_hal_special_feature_configurations.o(i.uart_hal_disable_receiver_rts), (80 bytes).
    Removing fsl_uart_hal_special_feature_configurations.o(i.uart_hal_disable_transmitter_cts), (80 bytes).
    Removing fsl_uart_hal_special_feature_configurations.o(i.uart_hal_disable_transmitter_rts), (80 bytes).
    Removing fsl_uart_hal_special_feature_configurations.o(i.uart_hal_enable_receiver_rts), (80 bytes).
    Removing fsl_uart_hal_special_feature_configurations.o(i.uart_hal_enable_transmitter_cts), (80 bytes).
    Removing fsl_uart_hal_special_feature_configurations.o(i.uart_hal_enable_transmitter_rts), (80 bytes).
    Removing fsl_uart_hal_special_feature_configurations.o(i.uart_hal_get_receiver_wakeup_method), (48 bytes).
    Removing fsl_uart_hal_special_feature_configurations.o(i.uart_hal_get_wait_mode_operation_config), (80 bytes).
    Removing fsl_uart_hal_special_feature_configurations.o(i.uart_hal_is_receiver_in_standby), (76 bytes).
    Removing fsl_uart_hal_special_feature_configurations.o(i.uart_hal_put_receiver_in_normal_mode), (80 bytes).
    Removing fsl_uart_hal_special_feature_configurations.o(i.uart_hal_put_receiver_in_standby_mode), (112 bytes).
    Removing fsl_uart_hal_special_feature_configurations.o(i.uart_hal_queue_break_char_to_send), (84 bytes).
    Removing fsl_uart_hal_special_feature_configurations.o(i.uart_hal_select_receiver_wakeup_method), (84 bytes).
    Removing fsl_uart_hal_special_feature_configurations.o(i.uart_hal_set_break_char_detect_length), (84 bytes).
    Removing fsl_uart_hal_special_feature_configurations.o(i.uart_hal_set_break_char_transmit_length), (84 bytes).
    Removing fsl_uart_hal_special_feature_configurations.o(.constdata), (216 bytes).
    Removing fsl_uart_hal_status_flags.o(.rev16_text), (4 bytes).
    Removing fsl_uart_hal_status_flags.o(.revsh_text), (4 bytes).
    Removing fsl_uart_hal_status_flags.o(i.uart_hal_clear_all_non_autoclear_status_flags), (136 bytes).
    Removing fsl_uart_hal_status_flags.o(i.uart_hal_get_all_status_flag), (356 bytes).
    Removing fsl_uart_hal_status_flags.o(i.uart_hal_is_frame_error_detected), (76 bytes).
    Removing fsl_uart_hal_status_flags.o(i.uart_hal_is_idle_line_detected), (76 bytes).
    Removing fsl_uart_hal_status_flags.o(i.uart_hal_is_line_break_detected), (76 bytes).
    Removing fsl_uart_hal_status_flags.o(i.uart_hal_is_noise_detected), (76 bytes).
    Removing fsl_uart_hal_status_flags.o(i.uart_hal_is_parity_error_detected), (76 bytes).
    Removing fsl_uart_hal_status_flags.o(i.uart_hal_is_receive_active_edge_detected), (76 bytes).
    Removing fsl_uart_hal_status_flags.o(i.uart_hal_is_receive_data_register_full), (76 bytes).
    Removing fsl_uart_hal_status_flags.o(i.uart_hal_is_receiver_active), (76 bytes).
    Removing fsl_uart_hal_status_flags.o(i.uart_hal_is_transmission_complete), (76 bytes).
    Removing fsl_uart_hal_interrupts_and_dma.o(.rev16_text), (4 bytes).
    Removing fsl_uart_hal_interrupts_and_dma.o(.revsh_text), (4 bytes).
    Removing fsl_uart_hal_interrupts_and_dma.o(i.uart_hal_configure_dma), (188 bytes).
    Removing fsl_uart_hal_interrupts_and_dma.o(i.uart_hal_configure_interrupts), (220 bytes).
    Removing fsl_uart_hal_interrupts_and_dma.o(i.uart_hal_disable_break_detect_interrupt), (76 bytes).
    Removing fsl_uart_hal_interrupts_and_dma.o(i.uart_hal_disable_framing_error_interrupt), (80 bytes).
    Removing fsl_uart_hal_interrupts_and_dma.o(i.uart_hal_disable_idle_line_interrupt), (80 bytes).
    Removing fsl_uart_hal_interrupts_and_dma.o(i.uart_hal_disable_noise_error_interrupt), (80 bytes).
    Removing fsl_uart_hal_interrupts_and_dma.o(i.uart_hal_disable_parity_error_interrupt), (80 bytes).
    Removing fsl_uart_hal_interrupts_and_dma.o(i.uart_hal_disable_rx_active_edge_interrupt), (76 bytes).
    Removing fsl_uart_hal_interrupts_and_dma.o(i.uart_hal_disable_rx_data_register_full_interrupt), (80 bytes).
    Removing fsl_uart_hal_interrupts_and_dma.o(i.uart_hal_disable_rx_overrun_interrupt), (80 bytes).
    Removing fsl_uart_hal_interrupts_and_dma.o(i.uart_hal_disable_transmission_complete_interrupt), (80 bytes).
    Removing fsl_uart_hal_interrupts_and_dma.o(i.uart_hal_disable_tx_data_register_empty_interrupt), (80 bytes).
    Removing fsl_uart_hal_interrupts_and_dma.o(i.uart_hal_enable_break_detect_interrupt), (76 bytes).
    Removing fsl_uart_hal_interrupts_and_dma.o(i.uart_hal_enable_framing_error_interrupt), (80 bytes).
    Removing fsl_uart_hal_interrupts_and_dma.o(i.uart_hal_enable_idle_line_interrupt), (80 bytes).
    Removing fsl_uart_hal_interrupts_and_dma.o(i.uart_hal_enable_noise_error_interrupt), (80 bytes).
    Removing fsl_uart_hal_interrupts_and_dma.o(i.uart_hal_enable_parity_error_interrupt), (80 bytes).
    Removing fsl_uart_hal_interrupts_and_dma.o(i.uart_hal_enable_rx_active_edge_interrupt), (76 bytes).
    Removing fsl_uart_hal_interrupts_and_dma.o(i.uart_hal_enable_rx_data_register_full_interrupt), (80 bytes).
    Removing fsl_uart_hal_interrupts_and_dma.o(i.uart_hal_enable_rx_overrun_interrupt), (80 bytes).
    Removing fsl_uart_hal_interrupts_and_dma.o(i.uart_hal_enable_transmission_complete_interrupt), (80 bytes).
    Removing fsl_uart_hal_interrupts_and_dma.o(i.uart_hal_enable_tx_data_register_empty_interrupt), (80 bytes).
    Removing fsl_uart_hal_interrupts_and_dma.o(i.uart_hal_is_break_detect_interrupt_enabled), (72 bytes).
    Removing fsl_uart_hal_interrupts_and_dma.o(i.uart_hal_is_framing_error_interrupt_enabled), (76 bytes).
    Removing fsl_uart_hal_interrupts_and_dma.o(i.uart_hal_is_idle_line_interrupt_enabled), (76 bytes).
    Removing fsl_uart_hal_interrupts_and_dma.o(i.uart_hal_is_noise_error_interrupt_enabled), (76 bytes).
    Removing fsl_uart_hal_interrupts_and_dma.o(i.uart_hal_is_parity_error_interrupt_enabled), (76 bytes).
    Removing fsl_uart_hal_interrupts_and_dma.o(i.uart_hal_is_receive_data_full_interrupt_enabled), (76 bytes).
    Removing fsl_uart_hal_interrupts_and_dma.o(i.uart_hal_is_rx_active_edge_interrupt_enabled), (76 bytes).
    Removing fsl_uart_hal_interrupts_and_dma.o(i.uart_hal_is_rx_overrun_interrupt_enabled), (76 bytes).
    Removing fsl_uart_hal_interrupts_and_dma.o(i.uart_hal_is_rxdma_enabled), (92 bytes).
    Removing fsl_uart_hal_interrupts_and_dma.o(i.uart_hal_is_transmission_complete_interrupt_enabled), (76 bytes).
    Removing fsl_uart_hal_interrupts_and_dma.o(i.uart_hal_is_tx_data_register_empty_interrupt_enabled), (76 bytes).
    Removing fsl_uart_hal_interrupts_and_dma.o(i.uart_hal_is_txdma_enabled), (104 bytes).
    Removing fsl_uart_hal_interrupts_and_dma.o(.constdata), (168 bytes).
    Removing fsl_uart_hal_transfer_functions.o(.rev16_text), (4 bytes).
    Removing fsl_uart_hal_transfer_functions.o(.revsh_text), (4 bytes).
    Removing fsl_uart_hal_transfer_functions.o(i.uart_hal_configure_bit10_as_paritybit_operation), (84 bytes).
    Removing fsl_uart_hal_transfer_functions.o(i.uart_hal_getchar), (76 bytes).
    Removing fsl_uart_hal_transfer_functions.o(i.uart_hal_getchar10), (64 bytes).
    Removing fsl_uart_hal_transfer_functions.o(i.uart_hal_getchar9), (96 bytes).
    Removing fsl_uart_hal_transfer_functions.o(i.uart_hal_is_bit10_set_as_paritybit), (76 bytes).
    Removing fsl_uart_hal_transfer_functions.o(i.uart_hal_is_current_dataword_received_with_noise), (76 bytes).
    Removing fsl_uart_hal_transfer_functions.o(i.uart_hal_is_current_dataword_received_with_parityerror), (76 bytes).
    Removing fsl_uart_hal_transfer_functions.o(i.uart_hal_putchar10), (60 bytes).
    Removing fsl_uart_hal_transfer_functions.o(i.uart_hal_putchar9), (92 bytes).
    Removing PeripheralPins.o(.rev16_text), (4 bytes).
    Removing PeripheralPins.o(.revsh_text), (4 bytes).
    Removing PeripheralPins.o(.constdata), (12 bytes).
    Removing PeripheralPins.o(.constdata), (216 bytes).
    Removing PeripheralPins.o(.constdata), (24 bytes).
    Removing PeripheralPins.o(.constdata), (468 bytes).
    Removing gpio_api.o(.rev16_text), (4 bytes).
    Removing gpio_api.o(.revsh_text), (4 bytes).
    Removing gpio_api.o(i.gpio_set), (56 bytes).
    Removing gpio_irq_api.o(.rev16_text), (4 bytes).
    Removing gpio_irq_api.o(.revsh_text), (4 bytes).
    Removing gpio_irq_api.o(i.gpio_irq_disable), (64 bytes).
    Removing gpio_irq_api.o(i.gpio_irq_enable), (64 bytes).
    Removing pinmap.o(.rev16_text), (4 bytes).
    Removing pinmap.o(.revsh_text), (4 bytes).
    Removing i2c_api.o(.rev16_text), (4 bytes).
    Removing i2c_api.o(.revsh_text), (4 bytes).
    Removing i2c_api.o(i.i2c_byte_read), (188 bytes).
    Removing i2c_api.o(i.i2c_byte_write), (68 bytes).
    Removing i2c_api.o(i.i2c_reset), (4 bytes).
    Removing i2c_api.o(i.i2c_slave_address), (160 bytes).
    Removing i2c_api.o(i.i2c_slave_mode), (112 bytes).
    Removing i2c_api.o(i.i2c_slave_read), (324 bytes).
    Removing i2c_api.o(i.i2c_slave_receive), (32 bytes).
    Removing i2c_api.o(i.i2c_slave_write), (156 bytes).
    Removing i2c_api.o(i.i2c_start), (12 bytes).
    Removing spi_api.o(.rev16_text), (4 bytes).
    Removing spi_api.o(.revsh_text), (4 bytes).
    Removing spi_api.o(i.spi_free), (2 bytes).
    Removing spi_api.o(i.spi_slave_read), (72 bytes).
    Removing spi_api.o(i.spi_slave_receive), (44 bytes).
    Removing spi_api.o(i.spi_slave_write), (56 bytes).
    Removing us_ticker.o(.rev16_text), (4 bytes).
    Removing us_ticker.o(.revsh_text), (4 bytes).
    Removing us_ticker.o(.constdata), (158 bytes).
    Removing FileBase.o(.rev16_text), (4 bytes).
    Removing FileBase.o(.revsh_text), (4 bytes).
    Removing FileBase.o(i._ZN4mbed8FileBase3getEi), (32 bytes).
    Removing FileBase.o(i._ZN4mbed8FileBase7getNameEv), (4 bytes).
    Removing FileBase.o(i._ZN4mbed8FileBaseD0Ev), (52 bytes).
    Removing FileBase.o(.ARM.exidx), (8 bytes).
    Removing FileBase.o(.ARM.exidx), (8 bytes).
    Removing FileBase.o(.ARM.exidx), (8 bytes).
    Removing FileBase.o(.ARM.exidx), (8 bytes).
    Removing FileBase.o(.ARM.exidx), (8 bytes).
    Removing FileBase.o(.ARM.exidx), (8 bytes).
    Removing FileBase.o(.ARM.exidx), (8 bytes).
    Removing FileLike.o(.rev16_text), (4 bytes).
    Removing FileLike.o(.revsh_text), (4 bytes).
    Removing FileLike.o(i._ZN4mbed8FileLikeD0Ev), (22 bytes).
    Removing FileLike.o(i._ZThn4_N4mbed8FileLikeD0Ev), (20 bytes).
    Removing FileLike.o(i._ZThn4_N4mbed8FileLikeD1Ev), (16 bytes).
    Removing FileLike.o(.ARM.exidx), (8 bytes).
    Removing FileLike.o(.ARM.exidx), (8 bytes).
    Removing FileLike.o(.ARM.exidx), (8 bytes).
    Removing FileLike.o(.ARM.exidx), (8 bytes).
    Removing FileLike.o(.ARM.exidx), (8 bytes).
    Removing FunctionPointer.o(.ARM.exidx), (8 bytes).
    Removing FunctionPointer.o(.ARM.exidx), (8 bytes).
    Removing FunctionPointer.o(.ARM.exidx), (8 bytes).
    Removing pinmap_common.o(.rev16_text), (4 bytes).
    Removing pinmap_common.o(.revsh_text), (4 bytes).
    Removing pinmap_common.o(i.pinmap_find_peripheral), (30 bytes).
    Removing fsl_i2c_hal.o(.rev16_text), (4 bytes).
    Removing fsl_i2c_hal.o(.revsh_text), (4 bytes).
    Removing fsl_i2c_hal.o(i.i2c_hal_get_max_baud), (68 bytes).
    Removing fsl_i2c_hal.o(i.i2c_hal_init), (564 bytes).
    Removing fsl_i2c_hal.o(i.i2c_hal_reset), (144 bytes).
    Removing fsl_i2c_hal.o(i.i2c_hal_set_slave_address_10bit), (76 bytes).
    Removing fsl_i2c_hal.o(i.i2c_hal_set_slave_address_7bit), (52 bytes).
    Removing fsl_dspi_hal.o(.rev16_text), (4 bytes).
    Removing fsl_dspi_hal.o(.revsh_text), (4 bytes).
    Removing fsl_dspi_hal.o(i.dspi_hal_configure_dma), (100 bytes).
    Removing fsl_dspi_hal.o(i.dspi_hal_configure_fifos), (100 bytes).
    Removing fsl_dspi_hal.o(i.dspi_hal_configure_interrupt), (92 bytes).
    Removing fsl_dspi_hal.o(i.dspi_hal_configure_pcs_polarity), (60 bytes).
    Removing fsl_dspi_hal.o(i.dspi_hal_flush_fifos), (56 bytes).
    Removing fsl_dspi_hal.o(i.dspi_hal_get_fifo_data), (92 bytes).
    Removing fsl_dspi_hal.o(i.dspi_hal_master_init), (252 bytes).
    Removing fsl_dspi_hal.o(i.dspi_hal_reset), (156 bytes).
    Removing fsl_dspi_hal.o(i.dspi_hal_set_baud_divisors), (132 bytes).
    Removing fsl_dspi_hal.o(i.dspi_hal_slave_init), (144 bytes).
    Removing fsl_mcg_hal.o(.rev16_text), (4 bytes).
    Removing fsl_mcg_hal.o(.revsh_text), (4 bytes).
    Removing fsl_mcg_hal.o(i.get_mcgffclk), (96 bytes).
    Removing fsl_sim_clock_module_names_K64F12.o(.rev16_text), (4 bytes).
    Removing fsl_sim_clock_module_names_K64F12.o(.revsh_text), (4 bytes).
    Removing fsl_sim_clock_module_names_K64F12.o(.constdata), (16 bytes).
    Removing fsl_sim_clock_module_names_K64F12.o(.constdata), (16 bytes).
    Removing fsl_sim_clock_module_names_K64F12.o(.constdata), (16 bytes).
    Removing fsl_sim_clock_module_names_K64F12.o(.constdata), (8 bytes).
    Removing fsl_sim_clock_module_names_K64F12.o(.constdata), (8 bytes).
    Removing fsl_sim_clock_module_names_K64F12.o(.constdata), (8 bytes).
    Removing fsl_sim_clock_module_names_K64F12.o(.constdata), (8 bytes).
    Removing fsl_sim_clock_module_names_K64F12.o(.constdata), (28 bytes).
    Removing fsl_sim_clock_module_names_K64F12.o(.constdata), (8 bytes).
    Removing fsl_sim_clock_module_names_K64F12.o(.data), (76 bytes).
    Removing fsl_sim_hal.o(.rev16_text), (4 bytes).
    Removing fsl_sim_hal.o(.revsh_text), (4 bytes).
    Removing fsl_sim_hal.o(i.clock_hal_get_clock_source), (192 bytes).
    Removing fsl_sim_hal.o(i.clock_hal_get_gate), (148 bytes).
    Removing fsl_sim_hal.o(i.clock_hal_set_clock_divider), (164 bytes).
    Removing fsl_sim_hal.o(i.clock_hal_set_clock_out_dividers), (44 bytes).
    Removing fsl_sim_hal.o(i.clock_hal_set_clock_source), (188 bytes).
    Removing fsl_sim_hal.o(i.clock_manager_find_module), (80 bytes).
    Removing fsl_sim_hal.o(i.sim_get_alttrgen), (100 bytes).
    Removing fsl_sim_hal.o(i.sim_get_ftm_ch_src), (100 bytes).
    Removing fsl_sim_hal.o(i.sim_get_ftm_clk_sel), (112 bytes).
    Removing fsl_sim_hal.o(i.sim_get_ftm_flt_sel), (136 bytes).
    Removing fsl_sim_hal.o(i.sim_get_ftm_trg_src), (184 bytes).
    Removing fsl_sim_hal.o(i.sim_get_pretrgsel), (92 bytes).
    Removing fsl_sim_hal.o(i.sim_get_trgsel), (92 bytes).
    Removing fsl_sim_hal.o(i.sim_get_uart_rxsrc), (100 bytes).
    Removing fsl_sim_hal.o(i.sim_get_uart_txsrc), (100 bytes).
    Removing fsl_sim_hal.o(i.sim_set_alttrgen), (84 bytes).
    Removing fsl_sim_hal.o(i.sim_set_ftm_ch_src), (100 bytes).
    Removing fsl_sim_hal.o(i.sim_set_ftm_clk_sel), (104 bytes).
    Removing fsl_sim_hal.o(i.sim_set_ftm_flt_sel), (128 bytes).
    Removing fsl_sim_hal.o(i.sim_set_ftm_trg_src), (176 bytes).
    Removing fsl_sim_hal.o(i.sim_set_pretrgsel), (84 bytes).
    Removing fsl_sim_hal.o(i.sim_set_trgsel), (92 bytes).
    Removing fsl_sim_hal.o(i.sim_set_uart_rxsrc), (100 bytes).
    Removing fsl_sim_hal.o(i.sim_set_uart_txsrc), (100 bytes).
    Removing error.o(.rev16_text), (4 bytes).
    Removing error.o(.revsh_text), (4 bytes).
    Removing us_ticker_api.o(.rev16_text), (4 bytes).
    Removing us_ticker_api.o(.revsh_text), (4 bytes).
    Removing us_ticker_api.o(i.us_ticker_insert_event), (76 bytes).
    Removing us_ticker_api.o(i.us_ticker_remove_event), (60 bytes).
    Removing us_ticker_api.o(i.us_ticker_set_handler), (20 bytes).
    Removing exit.o(.rev16_text), (4 bytes).
    Removing exit.o(.revsh_text), (4 bytes).
    Removing retarget.o(.ARM.exidx), (8 bytes).
    Removing retarget.o(.constdata__ZTIN4mbed10FileHandleE), (8 bytes).
    Removing retarget.o(.constdata__ZTSN4mbed10FileHandleE), (20 bytes).
    Removing mytouch.o(.ARM.exidx), (8 bytes).
    Removing spi_stmpe610.o(.ARM.exidx), (8 bytes).
    Removing graphicsdisplay.o(i._ZN15GraphicsDisplayD2Ev), (16 bytes).
    Removing graphicsdisplay.o(.ARM.exidx), (8 bytes).
    Removing graphicsdisplay.o(i._ZN15GraphicsDisplayD0Ev), (18 bytes).
    Removing graphicsdisplay.o(.ARM.exidx), (8 bytes).
    Removing graphicsdisplay.o(i._ZThn4_N15GraphicsDisplayD0Ev), (14 bytes).
    Removing graphicsdisplay.o(.ARM.exidx), (8 bytes).
    Removing graphicsdisplay.o(i._ZThn4_N15GraphicsDisplayD1Ev), (14 bytes).
    Removing graphicsdisplay.o(.ARM.exidx), (8 bytes).
    Removing graphicsdisplay.o(.constdata__ZTI15GraphicsDisplay), (12 bytes).
    Removing graphicsdisplay.o(.constdata__ZTS15GraphicsDisplay), (18 bytes).
    Removing spi_tft_ili9341.o(.ARM.exidx), (8 bytes).
    Removing spi_tft_ili9341.o(i._ZN15SPI_TFT_ILI9341D0Ev), (18 bytes).
    Removing spi_tft_ili9341.o(.ARM.exidx), (8 bytes).
    Removing spi_tft_ili9341.o(.ARM.exidx), (8 bytes).
    Removing spi_tft_ili9341.o(i._ZThn4_N15SPI_TFT_ILI9341D0Ev), (14 bytes).
    Removing spi_tft_ili9341.o(.ARM.exidx), (8 bytes).
    Removing spi_tft_ili9341.o(i._ZThn4_N15SPI_TFT_ILI9341D1Ev), (14 bytes).
    Removing spi_tft_ili9341.o(.ARM.exidx), (8 bytes).
    Removing spi_tft_ili9341.o(.constdata__ZTI15SPI_TFT_ILI9341), (12 bytes).
    Removing spi_tft_ili9341.o(.constdata__ZTS15SPI_TFT_ILI9341), (18 bytes).
    Removing textdisplay.o(i._ZN11TextDisplayD2Ev), (14 bytes).
    Removing textdisplay.o(.ARM.exidx), (8 bytes).
    Removing textdisplay.o(i._ZN11TextDisplayD0Ev), (18 bytes).
    Removing textdisplay.o(.ARM.exidx), (8 bytes).
    Removing textdisplay.o(i._ZThn4_N11TextDisplayD0Ev), (14 bytes).
    Removing textdisplay.o(.ARM.exidx), (8 bytes).
    Removing textdisplay.o(i._ZThn4_N11TextDisplayD1Ev), (14 bytes).
    Removing textdisplay.o(.ARM.exidx), (8 bytes).
    Removing textdisplay.o(.constdata__ZTI11TextDisplay), (12 bytes).
    Removing textdisplay.o(.constdata__ZTS11TextDisplay), (14 bytes).
    Removing hx8340bs.o(.constdata__ZTV11HX8340S_LCD), (140 bytes).
    Removing hx8340bs.o(.constdata__ZTI11HX8340S_LCD), (12 bytes).
    Removing hx8340bs.o(.constdata__ZTS11HX8340S_LCD), (14 bytes).
    Removing ili9328.o(.constdata__ZTV11ILI9328_LCD), (136 bytes).
    Removing ili9328.o(.constdata__ZTI11ILI9328_LCD), (12 bytes).
    Removing ili9328.o(.constdata__ZTS11ILI9328_LCD), (14 bytes).
    Removing lcd_base.o(.constdata__ZTV3LCD), (136 bytes).
    Removing lcd_base.o(i._ZN3LCD13SetForegroundEj), (4 bytes).
    Removing lcd_base.o(.ARM.exidx), (8 bytes).
    Removing lcd_base.o(i._ZN3LCD13SetBackgroundEj), (4 bytes).
    Removing lcd_base.o(.ARM.exidx), (8 bytes).
    Removing lcd_base.o(i._ZN4mbed6PwmOutaSEf), (34 bytes).
    Removing lcd_base.o(.ARM.exidx), (8 bytes).
    Removing lcd_base.o(i._ZN3LCD8GetWidthEv), (22 bytes).
    Removing lcd_base.o(.ARM.exidx), (8 bytes).
    Removing lcd_base.o(i._ZN3LCD11ClearScreenEv), (18 bytes).
    Removing lcd_base.o(.ARM.exidx), (8 bytes).
    Removing lcd_base.o(i._ZN3LCD8ActivateEv), (16 bytes).
    Removing lcd_base.o(.ARM.exidx), (8 bytes).
    Removing lcd_base.o(i._ZN3LCD10DeactivateEv), (16 bytes).
    Removing lcd_base.o(.ARM.exidx), (8 bytes).
    Removing lcd_base.o(i._ZN3LCD12WriteCmdDataEtt), (30 bytes).
    Removing lcd_base.o(.ARM.exidx), (8 bytes).
    Removing lcd_base.o(i._ZN3LCD7ClearXYEv), (56 bytes).
    Removing lcd_base.o(.ARM.exidx), (8 bytes).
    Removing lcd_base.o(.constdata__ZTI3LCD), (8 bytes).
    Removing lcd_base.o(.constdata__ZTS3LCD), (5 bytes).
    Removing ssd1289.o(.constdata__ZTV11SSD1289_LCD), (136 bytes).
    Removing ssd1289.o(.constdata__ZTI11SSD1289_LCD), (12 bytes).
    Removing ssd1289.o(.constdata__ZTS11SSD1289_LCD), (14 bytes).
    Removing st7735.o(.constdata__ZTV10ST7735_LCD), (140 bytes).
    Removing st7735.o(.constdata__ZTI10ST7735_LCD), (12 bytes).
    Removing st7735.o(.constdata__ZTS10ST7735_LCD), (13 bytes).
    Removing mainmain.o(.ARM.exidx), (8 bytes).
    Removing BusOut.o(.constdata__ZTVN4mbed6BusOutE), (16 bytes).
    Removing BusOut.o(.constdata__ZTIN4mbed6BusOutE), (8 bytes).
    Removing BusOut.o(.constdata__ZTSN4mbed6BusOutE), (15 bytes).
    Removing FileSystemLike.o(.constdata__ZTVN4mbed14FileSystemLikeE), (36 bytes).
    Removing FileSystemLike.o(i._ZN4mbed14FileSystemLike6removeEPKc), (6 bytes).
    Removing FileSystemLike.o(.ARM.exidx), (8 bytes).
    Removing FileSystemLike.o(i._ZN4mbed14FileSystemLike6renameEPKcS2_), (6 bytes).
    Removing FileSystemLike.o(.ARM.exidx), (8 bytes).
    Removing FileSystemLike.o(i._ZN4mbed14FileSystemLike7opendirEPKc), (4 bytes).
    Removing FileSystemLike.o(.ARM.exidx), (8 bytes).
    Removing FileSystemLike.o(i._ZN4mbed14FileSystemLike5mkdirEPKci), (6 bytes).
    Removing FileSystemLike.o(.ARM.exidx), (8 bytes).
    Removing FileSystemLike.o(.constdata__ZTVN4mbed13BaseDirHandleE), (36 bytes).
    Removing FileSystemLike.o(.constdata__ZTIN4mbed14FileSystemLikeE), (12 bytes).
    Removing FileSystemLike.o(.constdata__ZTIN4mbed13BaseDirHandleE), (12 bytes).
    Removing FileSystemLike.o(.constdata__ZTSN4mbed14FileSystemLikeE), (24 bytes).
    Removing FileSystemLike.o(.constdata__ZTIN4mbed9DirHandleE), (8 bytes).
    Removing FileSystemLike.o(.constdata__ZTSN4mbed13BaseDirHandleE), (23 bytes).
    Removing FileSystemLike.o(.constdata__ZTSN4mbed9DirHandleE), (18 bytes).
    Removing FileSystemLike.o(i._ZN4mbed13BaseDirHandle8closedirEv), (12 bytes).
    Removing FileSystemLike.o(.ARM.exidx), (8 bytes).
    Removing FileSystemLike.o(i._ZN4mbed13BaseDirHandle7readdirEv), (44 bytes).
    Removing FileSystemLike.o(.ARM.exidx), (8 bytes).
    Removing FileSystemLike.o(i._ZN4mbed13BaseDirHandle7telldirEv), (4 bytes).
    Removing FileSystemLike.o(.ARM.exidx), (8 bytes).
    Removing FileSystemLike.o(i._ZN4mbed13BaseDirHandle7seekdirEl), (4 bytes).
    Removing FileSystemLike.o(.ARM.exidx), (8 bytes).
    Removing FileSystemLike.o(i._ZN4mbed13BaseDirHandle9rewinddirEv), (6 bytes).
    Removing FileSystemLike.o(.ARM.exidx), (8 bytes).
    Removing FileSystemLike.o(i._ZN4mbed13BaseDirHandleD1Ev), (2 bytes).
    Removing FileSystemLike.o(.ARM.exidx), (8 bytes).
    Removing FileSystemLike.o(i._ZN4mbed13BaseDirHandleD0Ev), (4 bytes).
    Removing FileSystemLike.o(.ARM.exidx), (8 bytes).
    Removing InterruptIn.o(.constdata__ZTIN4mbed11InterruptInE), (8 bytes).
    Removing InterruptIn.o(.constdata__ZTSN4mbed11InterruptInE), (21 bytes).
    Removing SPI.o(i._ZN4mbed3SPID1Ev), (2 bytes).
    Removing SPI.o(.ARM.exidx), (8 bytes).
    Removing SPI.o(i._ZN4mbed3SPID0Ev), (4 bytes).
    Removing SPI.o(.ARM.exidx), (8 bytes).
    Removing SPI.o(.constdata__ZTIN4mbed3SPIE), (8 bytes).
    Removing SPI.o(.constdata__ZTSN4mbed3SPIE), (12 bytes).
    Removing Stream.o(.constdata__ZTIN4mbed6StreamE), (12 bytes).
    Removing Stream.o(.constdata__ZTSN4mbed6StreamE), (15 bytes).
    Removing FileBase.o(.constdata__ZTIN4mbed8FileBaseE), (8 bytes).
    Removing FileBase.o(.constdata__ZTSN4mbed8FileBaseE), (17 bytes).
    Removing FileLike.o(.constdata__ZTIN4mbed8FileLikeE), (32 bytes).
    Removing FileLike.o(.constdata__ZTSN4mbed8FileLikeE), (17 bytes).

838 unused section(s) (total 58963 bytes) removed from the image.

==============================================================================

Image Symbol Table

    Local Symbols

    Symbol Name                              Value     Ov Type        Size  Object(Section)

    RESET                                    0x00000000   Section     1024  startup_MK64F12.o(RESET)
    ../../../clib/unwind_pr.c                0x00000000   Number         0  unwind_pr0.o ABSOLUTE
    ../../../clib/unwind_pr.c                0x00000000   Number         0  unwind_prcommon.o ABSOLUTE
    ../../../clib/unwinder.c                 0x00000000   Number         0  unwinder.o ABSOLUTE
    ../../../clib/unwinder.c                 0x00000000   Number         0  unwind_activity.o ABSOLUTE
    ../../../clib/unwinder.c                 0x00000000   Number         0  unwinder.o ABSOLUTE
    ../../../clib/unwinder.c                 0x00000000   Number         0  unwind_activity.o ABSOLUTE
    ../../../edgfe/lib_src/arm_exceptions.c  0x00000000   Number         0  arm_exceptions_support.o ABSOLUTE
    ../../../edgfe/lib_src/arm_exceptions.c  0x00000000   Number         0  arm_exceptions_callterm.o ABSOLUTE
    ../../../edgfe/lib_src/arm_exceptions.c  0x00000000   Number         0  arm_exceptions_mem.o ABSOLUTE
    ../../../edgfe/lib_src/arm_exceptions.c  0x00000000   Number         0  arm_exceptions_terminate.o ABSOLUTE
    ../../../edgfe/lib_src/arm_exceptions.c  0x00000000   Number         0  arm_exceptions_globs.o ABSOLUTE
    ../../../edgfe/lib_src/arm_noexceptions.c 0x00000000   Number         0  arm_begincatch_noexceptions.o ABSOLUTE
    ../../../edgfe/lib_src/arm_noexceptions.c 0x00000000   Number         0  arm_newhandler_noexceptions.o ABSOLUTE
    ../../../edgfe/lib_src/arm_noexceptions.c 0x00000000   Number         0  arm_callunex_noexceptions.o ABSOLUTE
    ../../../edgfe/lib_src/array_new.c       0x00000000   Number         0  array_new.o ABSOLUTE
    ../../../edgfe/lib_src/bad_alloc.c       0x00000000   Number         0  bad_alloc_dtor.o ABSOLUTE
    ../../../edgfe/lib_src/bad_alloc.c       0x00000000   Number         0  bad_alloc_what.o ABSOLUTE
    ../../../edgfe/lib_src/delete.c          0x00000000   Number         0  delete.o ABSOLUTE
    ../../../edgfe/lib_src/exception.c       0x00000000   Number         0  exception_dtor.o ABSOLUTE
    ../../../edgfe/lib_src/exception.c       0x00000000   Number         0  exception_what.o ABSOLUTE
    ../../../edgfe/lib_src/new.c             0x00000000   Number         0  new.o ABSOLUTE
    ../../../edgfe/lib_src/pure_virt.c       0x00000000   Number         0  pure_virt.o ABSOLUTE
    ../../../edgfe/lib_src/typeinfo.c        0x00000000   Number         0  lib_rtti_impl.o ABSOLUTE
    ../../../edgfe/lib_src/typeinfo.c        0x00000000   Number         0  type_info_dtor.o ABSOLUTE
    ../clib/angel/boardlib.s                 0x00000000   Number         0  boardinit1.o ABSOLUTE
    ../clib/angel/boardlib.s                 0x00000000   Number         0  boardinit2.o ABSOLUTE
    ../clib/angel/boardlib.s                 0x00000000   Number         0  boardinit3.o ABSOLUTE
    ../clib/angel/handlers.s                 0x00000000   Number         0  __scatter_copy.o ABSOLUTE
    ../clib/angel/handlers.s                 0x00000000   Number         0  __scatter_zi.o ABSOLUTE
    ../clib/angel/kernel.s                   0x00000000   Number         0  __rtentry.o ABSOLUTE
    ../clib/angel/kernel.s                   0x00000000   Number         0  __rtentry2.o ABSOLUTE
    ../clib/angel/kernel.s                   0x00000000   Number         0  __rtentry4.o ABSOLUTE
    ../clib/angel/rt.s                       0x00000000   Number         0  rt_ddtor_pointer_addr_intlibspace.o ABSOLUTE
    ../clib/angel/rt.s                       0x00000000   Number         0  rt_ddtor_pointer_addr.o ABSOLUTE
    ../clib/angel/rt.s                       0x00000000   Number         0  rt_eh_globals_addr_intlibspace.o ABSOLUTE
    ../clib/angel/rt.s                       0x00000000   Number         0  rt_eh_globals_addr.o ABSOLUTE
    ../clib/angel/rt.s                       0x00000000   Number         0  rt_new_handler_addr_intlibspace.o ABSOLUTE
    ../clib/angel/rt.s                       0x00000000   Number         0  rt_locale_intlibspace.o ABSOLUTE
    ../clib/angel/rt.s                       0x00000000   Number         0  rt_locale.o ABSOLUTE
    ../clib/angel/rt.s                       0x00000000   Number         0  rt_ctype_table.o ABSOLUTE
    ../clib/angel/rt.s                       0x00000000   Number         0  rt_new_handler_addr.o ABSOLUTE
    ../clib/angel/rt.s                       0x00000000   Number         0  rt_heap_descriptor.o ABSOLUTE
    ../clib/angel/rt.s                       0x00000000   Number         0  rt_raise.o ABSOLUTE
    ../clib/angel/rt.s                       0x00000000   Number         0  rt_errno_addr_intlibspace.o ABSOLUTE
    ../clib/angel/rt.s                       0x00000000   Number         0  rt_errno_addr.o ABSOLUTE
    ../clib/angel/rt.s                       0x00000000   Number         0  rt_heap_descriptor_intlibspace.o ABSOLUTE
    ../clib/angel/scatter.s                  0x00000000   Number         0  __scatter.o ABSOLUTE
    ../clib/angel/startup.s                  0x00000000   Number         0  __main.o ABSOLUTE
    ../clib/angel/sys.s                      0x00000000   Number         0  indicate_semi.o ABSOLUTE
    ../clib/angel/sys.s                      0x00000000   Number         0  mutex_dummy.o ABSOLUTE
    ../clib/angel/sys.s                      0x00000000   Number         0  use_no_semi.o ABSOLUTE
    ../clib/angel/sys.s                      0x00000000   Number         0  libspace.o ABSOLUTE
    ../clib/angel/sysapp.c                   0x00000000   Number         0  sys_exit.o ABSOLUTE
    ../clib/angel/sysapp.c                   0x00000000   Number         0  sys_wrch.o ABSOLUTE
    ../clib/arm_runtime.c                    0x00000000   Number         0  init_aeabi.o ABSOLUTE
    ../clib/arm_runtime.c                    0x00000000   Number         0  init_aeabi.o ABSOLUTE
    ../clib/armsys.c                         0x00000000   Number         0  argv_veneer.o ABSOLUTE
    ../clib/armsys.c                         0x00000000   Number         0  no_argv.o ABSOLUTE
    ../clib/armsys.c                         0x00000000   Number         0  argv_veneer.o ABSOLUTE
    ../clib/armsys.c                         0x00000000   Number         0  _get_argv.o ABSOLUTE
    ../clib/armsys.c                         0x00000000   Number         0  _get_argv_nomalloc.o ABSOLUTE
    ../clib/assert.c                         0x00000000   Number         0  assert_puts.o ABSOLUTE
    ../clib/assert.c                         0x00000000   Number         0  assert_stdio.o ABSOLUTE
    ../clib/assert.c                         0x00000000   Number         0  assert.o ABSOLUTE
    ../clib/bigflt.c                         0x00000000   Number         0  bigflt0.o ABSOLUTE
    ../clib/btod.s                           0x00000000   Number         0  btod.o ABSOLUTE
    ../clib/ctype.c                          0x00000000   Number         0  isspace.o ABSOLUTE
    ../clib/fenv.c                           0x00000000   Number         0  _rserrno.o ABSOLUTE
    ../clib/heap1.c                          0x00000000   Number         0  h1_init_mt.o ABSOLUTE
    ../clib/heap1.c                          0x00000000   Number         0  h1_extend_mt.o ABSOLUTE
    ../clib/heap1.c                          0x00000000   Number         0  h1_free_mt.o ABSOLUTE
    ../clib/heap1.c                          0x00000000   Number         0  h1_alloc_mt.o ABSOLUTE
    ../clib/heap1.c                          0x00000000   Number         0  h1_free.o ABSOLUTE
    ../clib/heap1.c                          0x00000000   Number         0  h1_alloc.o ABSOLUTE
    ../clib/heap1.c                          0x00000000   Number         0  h1_init.o ABSOLUTE
    ../clib/heap1.c                          0x00000000   Number         0  h1_final_mt.o ABSOLUTE
    ../clib/heap1.c                          0x00000000   Number         0  h1_final.o ABSOLUTE
    ../clib/heap1.c                          0x00000000   Number         0  h1_extend.o ABSOLUTE
    ../clib/heap2.c                          0x00000000   Number         0  heap2.o ABSOLUTE
    ../clib/heap2.c                          0x00000000   Number         0  heap2mt.o ABSOLUTE
    ../clib/heap2.c                          0x00000000   Number         0  fdtree.o ABSOLUTE
    ../clib/heapalloc.c                      0x00000000   Number         0  maybetermalloc2.o ABSOLUTE
    ../clib/heapalloc.c                      0x00000000   Number         0  term_alloc.o ABSOLUTE
    ../clib/heapalloc.c                      0x00000000   Number         0  maybetermalloc2.o ABSOLUTE
    ../clib/heapalloc.c                      0x00000000   Number         0  hrguard.o ABSOLUTE
    ../clib/heapalloc.c                      0x00000000   Number         0  malloc.o ABSOLUTE
    ../clib/heapalloc.c                      0x00000000   Number         0  free.o ABSOLUTE
    ../clib/heapalloc.c                      0x00000000   Number         0  init_alloc.o ABSOLUTE
    ../clib/heapalloc.c                      0x00000000   Number         0  hguard.o ABSOLUTE
    ../clib/heapalloc.c                      0x00000000   Number         0  heapstubs.o ABSOLUTE
    ../clib/heapalloc.c                      0x00000000   Number         0  maybetermalloc1.o ABSOLUTE
    ../clib/heapalloc.c                      0x00000000   Number         0  maybetermalloc1.o ABSOLUTE
    ../clib/heapaux.c                        0x00000000   Number         0  heapauxi.o ABSOLUTE
    ../clib/heapaux.c                        0x00000000   Number         0  heapauxa.o ABSOLUTE
    ../clib/libinit.s                        0x00000000   Number         0  libinit2.o ABSOLUTE
    ../clib/libinit.s                        0x00000000   Number         0  libinit.o ABSOLUTE
    ../clib/libinit.s                        0x00000000   Number         0  libshutdown2.o ABSOLUTE
    ../clib/locale.c                         0x00000000   Number         0  _wcrtomb.o ABSOLUTE
    ../clib/locale.c                         0x00000000   Number         0  _mbrtowc.o ABSOLUTE
    ../clib/locale.s                         0x00000000   Number         0  lc_numeric_c.o ABSOLUTE
    ../clib/locale.s                         0x00000000   Number         0  lc_ctype_c.o ABSOLUTE
    ../clib/longlong.s                       0x00000000   Number         0  lludiv10.o ABSOLUTE
    ../clib/longlong.s                       0x00000000   Number         0  llshl.o ABSOLUTE
    ../clib/memcpset.s                       0x00000000   Number         0  rt_memcpy_w.o ABSOLUTE
    ../clib/memcpset.s                       0x00000000   Number         0  strncpy.o ABSOLUTE
    ../clib/memcpset.s                       0x00000000   Number         0  rt_memmove_w.o ABSOLUTE
    ../clib/memcpset.s                       0x00000000   Number         0  rt_memclr_w.o ABSOLUTE
    ../clib/memcpset.s                       0x00000000   Number         0  rt_memclr.o ABSOLUTE
    ../clib/memcpset.s                       0x00000000   Number         0  rt_memcpy_v6.o ABSOLUTE
    ../clib/memcpset.s                       0x00000000   Number         0  strcmpv7m.o ABSOLUTE
    ../clib/misc.s                           0x00000000   Number         0  printf_stubs.o ABSOLUTE
    ../clib/printf.c                         0x00000000   Number         0  _printf_char.o ABSOLUTE
    ../clib/printf.c                         0x00000000   Number         0  _printf_char_file.o ABSOLUTE
    ../clib/printf.c                         0x00000000   Number         0  _printf_wctomb.o ABSOLUTE
    ../clib/printf.c                         0x00000000   Number         0  _printf_longlong_dec.o ABSOLUTE
    ../clib/printf.c                         0x00000000   Number         0  _printf_oct_int.o ABSOLUTE
    ../clib/printf.c                         0x00000000   Number         0  _printf_oct_int_ll.o ABSOLUTE
    ../clib/printf.c                         0x00000000   Number         0  _printf_fp_infnan.o ABSOLUTE
    ../clib/printf.c                         0x00000000   Number         0  _printf_wchar.o ABSOLUTE
    ../clib/printf.c                         0x00000000   Number         0  _printf_char_file_locked.o ABSOLUTE
    ../clib/printf.c                         0x00000000   Number         0  __printf_nopercent.o ABSOLUTE
    ../clib/printf.c                         0x00000000   Number         0  vfprintf.o ABSOLUTE
    ../clib/printf.c                         0x00000000   Number         0  _printf_fp_hex.o ABSOLUTE
    ../clib/printf.c                         0x00000000   Number         0  c89vfprintf.o ABSOLUTE
    ../clib/printf.c                         0x00000000   Number         0  _printf_fp_dec.o ABSOLUTE
    ../clib/printf.c                         0x00000000   Number         0  __2fprintf.o ABSOLUTE
    ../clib/printf.c                         0x00000000   Number         0  _printf_oct_ll.o ABSOLUTE
    ../clib/printf.c                         0x00000000   Number         0  __2sprintf.o ABSOLUTE
    ../clib/printf.c                         0x00000000   Number         0  _printf_charcount.o ABSOLUTE
    ../clib/printf.c                         0x00000000   Number         0  noretval__2fprintf.o ABSOLUTE
    ../clib/printf.c                         0x00000000   Number         0  noretval__2sprintf.o ABSOLUTE
    ../clib/printf.c                         0x00000000   Number         0  __printf.o ABSOLUTE
    ../clib/printf.c                         0x00000000   Number         0  _printf_str.o ABSOLUTE
    ../clib/printf.c                         0x00000000   Number         0  _printf_intcommon.o ABSOLUTE
    ../clib/printf.c                         0x00000000   Number         0  _printf_dec.o ABSOLUTE
    ../clib/printf.c                         0x00000000   Number         0  _printf_truncate.o ABSOLUTE
    ../clib/printf.c                         0x00000000   Number         0  _printf_hex_ll.o ABSOLUTE
    ../clib/printf.c                         0x00000000   Number         0  _printf_hex_int.o ABSOLUTE
    ../clib/printf.c                         0x00000000   Number         0  _printf_hex_int_ll.o ABSOLUTE
    ../clib/printf.c                         0x00000000   Number         0  _printf_hex_ptr.o ABSOLUTE
    ../clib/printf.c                         0x00000000   Number         0  _printf_hex_int_ptr.o ABSOLUTE
    ../clib/printf.c                         0x00000000   Number         0  _printf_hex_ll_ptr.o ABSOLUTE
    ../clib/printf.c                         0x00000000   Number         0  _printf_hex_int_ll_ptr.o ABSOLUTE
    ../clib/printf.c                         0x00000000   Number         0  _printf_pad.o ABSOLUTE
    ../clib/printf.c                         0x00000000   Number         0  _printf_char_common.o ABSOLUTE
    ../clib/printf.c                         0x00000000   Number         0  _sputc.o ABSOLUTE
    ../clib/printf.c                         0x00000000   Number         0  __printf_flags.o ABSOLUTE
    ../clib/printf.c                         0x00000000   Number         0  __printf_ss.o ABSOLUTE
    ../clib/printf.c                         0x00000000   Number         0  __printf_flags_ss.o ABSOLUTE
    ../clib/printf.c                         0x00000000   Number         0  __printf_wp.o ABSOLUTE
    ../clib/printf.c                         0x00000000   Number         0  __printf_flags_wp.o ABSOLUTE
    ../clib/printf.c                         0x00000000   Number         0  __printf_ss_wp.o ABSOLUTE
    ../clib/printf.c                         0x00000000   Number         0  __printf_flags_ss_wp.o ABSOLUTE
    ../clib/printf_percent.s                 0x00000000   Number         0  _printf_d.o ABSOLUTE
    ../clib/printf_percent.s                 0x00000000   Number         0  _printf_lld.o ABSOLUTE
    ../clib/printf_percent.s                 0x00000000   Number         0  _printf_lli.o ABSOLUTE
    ../clib/printf_percent.s                 0x00000000   Number         0  _printf_p.o ABSOLUTE
    ../clib/printf_percent.s                 0x00000000   Number         0  _printf_percent_end.o ABSOLUTE
    ../clib/printf_percent.s                 0x00000000   Number         0  _printf_g.o ABSOLUTE
    ../clib/printf_percent.s                 0x00000000   Number         0  _printf_llx.o ABSOLUTE
    ../clib/printf_percent.s                 0x00000000   Number         0  _printf_e.o ABSOLUTE
    ../clib/printf_percent.s                 0x00000000   Number         0  _printf_a.o ABSOLUTE
    ../clib/printf_percent.s                 0x00000000   Number         0  _printf_f.o ABSOLUTE
    ../clib/printf_percent.s                 0x00000000   Number         0  _printf_u.o ABSOLUTE
    ../clib/printf_percent.s                 0x00000000   Number         0  _printf_i.o ABSOLUTE
    ../clib/printf_percent.s                 0x00000000   Number         0  _printf_o.o ABSOLUTE
    ../clib/printf_percent.s                 0x00000000   Number         0  _printf_llo.o ABSOLUTE
    ../clib/printf_percent.s                 0x00000000   Number         0  _printf_ls.o ABSOLUTE
    ../clib/printf_percent.s                 0x00000000   Number         0  _printf_x.o ABSOLUTE
    ../clib/printf_percent.s                 0x00000000   Number         0  _printf_n.o ABSOLUTE
    ../clib/printf_percent.s                 0x00000000   Number         0  _printf_c.o ABSOLUTE
    ../clib/printf_percent.s                 0x00000000   Number         0  _printf_percent.o ABSOLUTE
    ../clib/printf_percent.s                 0x00000000   Number         0  _printf_lc.o ABSOLUTE
    ../clib/printf_percent.s                 0x00000000   Number         0  _printf_l.o ABSOLUTE
    ../clib/printf_percent.s                 0x00000000   Number         0  _printf_ll.o ABSOLUTE
    ../clib/printf_percent.s                 0x00000000   Number         0  _printf_llu.o ABSOLUTE
    ../clib/printf_percent.s                 0x00000000   Number         0  _printf_s.o ABSOLUTE
    ../clib/scanf.c                          0x00000000   Number         0  scanf_hexfp.o ABSOLUTE
    ../clib/scanf.c                          0x00000000   Number         0  _chval.o ABSOLUTE
    ../clib/scanf.c                          0x00000000   Number         0  _scanf.o ABSOLUTE
    ../clib/scanf.c                          0x00000000   Number         0  scanf_fp.o ABSOLUTE
    ../clib/scanf.c                          0x00000000   Number         0  scanf_char_file_locked.o ABSOLUTE
    ../clib/scanf.c                          0x00000000   Number         0  _scanf_wcharmap.o ABSOLUTE
    ../clib/scanf.c                          0x00000000   Number         0  vfscanf.o ABSOLUTE
    ../clib/scanf.c                          0x00000000   Number         0  __0sscanf.o ABSOLUTE
    ../clib/scanf.c                          0x00000000   Number         0  _scanf_int.o ABSOLUTE
    ../clib/scanf.c                          0x00000000   Number         0  _scanf_longlong.o ABSOLUTE
    ../clib/scanf.c                          0x00000000   Number         0  _scanf_str.o ABSOLUTE
    ../clib/scanf.c                          0x00000000   Number         0  scanf_char.o ABSOLUTE
    ../clib/scanf.c                          0x00000000   Number         0  _sgetc.o ABSOLUTE
    ../clib/scanf.c                          0x00000000   Number         0  scanf_char_file.o ABSOLUTE
    ../clib/scanf.c                          0x00000000   Number         0  _scanf_mbtowc.o ABSOLUTE
    ../clib/scanf.c                          0x00000000   Number         0  _scanf_wctomb.o ABSOLUTE
    ../clib/scanf.c                          0x00000000   Number         0  _scanf_wstr.o ABSOLUTE
    ../clib/scanf.c                          0x00000000   Number         0  scanf_infnan.o ABSOLUTE
    ../clib/signal.c                         0x00000000   Number         0  defsig_exit.o ABSOLUTE
    ../clib/signal.c                         0x00000000   Number         0  defsig_other.o ABSOLUTE
    ../clib/signal.c                         0x00000000   Number         0  defsig_stak_inner.o ABSOLUTE
    ../clib/signal.c                         0x00000000   Number         0  defsig_fpe_inner.o ABSOLUTE
    ../clib/signal.c                         0x00000000   Number         0  __raise.o ABSOLUTE
    ../clib/signal.c                         0x00000000   Number         0  defsig_segv_inner.o ABSOLUTE
    ../clib/signal.c                         0x00000000   Number         0  defsig_cppl_inner.o ABSOLUTE
    ../clib/signal.c                         0x00000000   Number         0  defsig_pvfn_formal.o ABSOLUTE
    ../clib/signal.c                         0x00000000   Number         0  defsig_rtmem_inner.o ABSOLUTE
    ../clib/signal.c                         0x00000000   Number         0  defsig_pvfn_outer.o ABSOLUTE
    ../clib/signal.c                         0x00000000   Number         0  defsig_general.o ABSOLUTE
    ../clib/signal.c                         0x00000000   Number         0  defsig_abrt_inner.o ABSOLUTE
    ../clib/signal.c                         0x00000000   Number         0  defsig_rtred_inner.o ABSOLUTE
    ../clib/signal.c                         0x00000000   Number         0  defsig_abrt_outer.o ABSOLUTE
    ../clib/signal.c                         0x00000000   Number         0  defsig_pvfn_inner.o ABSOLUTE
    ../clib/signal.c                         0x00000000   Number         0  defsig_rtmem_formal.o ABSOLUTE
    ../clib/signal.c                         0x00000000   Number         0  defsig_rtmem_outer.o ABSOLUTE
    ../clib/signal.c                         0x00000000   Number         0  defsig_rtred_formal.o ABSOLUTE
    ../clib/signal.c                         0x00000000   Number         0  defsig_rtred_outer.o ABSOLUTE
    ../clib/signal.c                         0x00000000   Number         0  defsig_abrt_formal.o ABSOLUTE
    ../clib/signal.s                         0x00000000   Number         0  defsig.o ABSOLUTE
    ../clib/stdio.c                          0x00000000   Number         0  fread_bytes_avail.o ABSOLUTE
    ../clib/stdio.c                          0x00000000   Number         0  fgetc_locked.o ABSOLUTE
    ../clib/stdio.c                          0x00000000   Number         0  ftell.o ABSOLUTE
    ../clib/stdio.c                          0x00000000   Number         0  ferror.o ABSOLUTE
    ../clib/stdio.c                          0x00000000   Number         0  stdio_streams.o ABSOLUTE
    ../clib/stdio.c                          0x00000000   Number         0  setbuf.o ABSOLUTE
    ../clib/stdio.c                          0x00000000   Number         0  fopen.o ABSOLUTE
    ../clib/stdio.c                          0x00000000   Number         0  setvbuf.o ABSOLUTE
    ../clib/stdio.c                          0x00000000   Number         0  fputs.o ABSOLUTE
    ../clib/stdio.c                          0x00000000   Number         0  fputc_locked.o ABSOLUTE
    ../clib/stdio.c                          0x00000000   Number         0  fputc.o ABSOLUTE
    ../clib/stdio.c                          0x00000000   Number         0  fgets.o ABSOLUTE
    ../clib/stdio.c                          0x00000000   Number         0  fgetc.o ABSOLUTE
    ../clib/stdio.c                          0x00000000   Number         0  fopen_locked.o ABSOLUTE
    ../clib/stdio.c                          0x00000000   Number         0  fflush.o ABSOLUTE
    ../clib/stdio.c                          0x00000000   Number         0  setvbuf_locked.o ABSOLUTE
    ../clib/stdio.c                          0x00000000   Number         0  fclose.o ABSOLUTE
    ../clib/stdio.c                          0x00000000   Number         0  backspace.o ABSOLUTE
    ../clib/stdio.c                          0x00000000   Number         0  flushlinebuffered_locked.o ABSOLUTE
    ../clib/stdio.c                          0x00000000   Number         0  freadfast.o ABSOLUTE
    ../clib/stdio.c                          0x00000000   Number         0  fflush_locked.o ABSOLUTE
    ../clib/stdio.c                          0x00000000   Number         0  fclose_locked.o ABSOLUTE
    ../clib/stdio.c                          0x00000000   Number         0  fwritefast_locked.o ABSOLUTE
    ../clib/stdio.c                          0x00000000   Number         0  flsbuf.o ABSOLUTE
    ../clib/stdio.c                          0x00000000   Number         0  fread_bytes_avail_locked.o ABSOLUTE
    ../clib/stdio.c                          0x00000000   Number         0  ferror_locked.o ABSOLUTE
    ../clib/stdio.c                          0x00000000   Number         0  ungetc.o ABSOLUTE
    ../clib/stdio.c                          0x00000000   Number         0  initio.o ABSOLUTE
    ../clib/stdio.c                          0x00000000   Number         0  streamlock.o ABSOLUTE
    ../clib/stdio.c                          0x00000000   Number         0  stdio.o ABSOLUTE
    ../clib/stdio.c                          0x00000000   Number         0  fseek.o ABSOLUTE
    ../clib/stdio.c                          0x00000000   Number         0  initio_locked.o ABSOLUTE
    ../clib/stdio.c                          0x00000000   Number         0  freadfast_locked.o ABSOLUTE
    ../clib/stdio.c                          0x00000000   Number         0  backspace_locked.o ABSOLUTE
    ../clib/stdio.c                          0x00000000   Number         0  fputs_locked.o ABSOLUTE
    ../clib/stdio.c                          0x00000000   Number         0  fgets_locked.o ABSOLUTE
    ../clib/stdio.c                          0x00000000   Number         0  flushlinebuffered.o ABSOLUTE
    ../clib/stdio.c                          0x00000000   Number         0  fwritefast.o ABSOLUTE
    ../clib/stdio.c                          0x00000000   Number         0  filbuf.o ABSOLUTE
    ../clib/stdlib.c                         0x00000000   Number         0  bsearchnoex.o ABSOLUTE
    ../clib/stdlib.c                         0x00000000   Number         0  abort.o ABSOLUTE
    ../clib/stdlib.c                         0x00000000   Number         0  cxa_finalize.o ABSOLUTE
    ../clib/stdlib.c                         0x00000000   Number         0  aeabi_atexit.o ABSOLUTE
    ../clib/stdlib.c                         0x00000000   Number         0  atexit_aeabi.o ABSOLUTE
    ../clib/string.c                         0x00000000   Number         0  strlen.o ABSOLUTE
    ../clib/string.c                         0x00000000   Number         0  strncmp.o ABSOLUTE
    ../clib/wchar.c                          0x00000000   Number         0  flsbuf_fwide.o ABSOLUTE
    ../clib/wchar.c                          0x00000000   Number         0  filbuf_fwide.o ABSOLUTE
    ../fplib/basic.s                         0x00000000   Number         0  basic.o ABSOLUTE
    ../fplib/d2f.s                           0x00000000   Number         0  d2f.o ABSOLUTE
    ../fplib/daddsub.s                       0x00000000   Number         0  daddsub_clz.o ABSOLUTE
    ../fplib/dcheck1.s                       0x00000000   Number         0  dcheck1.o ABSOLUTE
    ../fplib/dcmpi.s                         0x00000000   Number         0  dcmpi.o ABSOLUTE
    ../fplib/ddiv.s                          0x00000000   Number         0  ddiv.o ABSOLUTE
    ../fplib/deqf.s                          0x00000000   Number         0  deqf.o ABSOLUTE
    ../fplib/dfix.s                          0x00000000   Number         0  dfix.o ABSOLUTE
    ../fplib/dflt.s                          0x00000000   Number         0  dflt_clz.o ABSOLUTE
    ../fplib/dleqf.s                         0x00000000   Number         0  dleqf.o ABSOLUTE
    ../fplib/dmul.s                          0x00000000   Number         0  dmul.o ABSOLUTE
    ../fplib/dnaninf.s                       0x00000000   Number         0  dnaninf.o ABSOLUTE
    ../fplib/dretinf.s                       0x00000000   Number         0  dretinf.o ABSOLUTE
    ../fplib/drleqf.s                        0x00000000   Number         0  drleqf.o ABSOLUTE
    ../fplib/dsqrt.s                         0x00000000   Number         0  dsqrt_umaal.o ABSOLUTE
    ../fplib/f2d.s                           0x00000000   Number         0  f2d.o ABSOLUTE
    ../fplib/fnaninf.s                       0x00000000   Number         0  fnaninf.o ABSOLUTE
    ../fplib/fpconst.s                       0x00000000   Number         0  fpconst.o ABSOLUTE
    ../fplib/fpinit.s                        0x00000000   Number         0  fpinit.o ABSOLUTE
    ../fplib/fretinf.s                       0x00000000   Number         0  fretinf.o ABSOLUTE
    ../fplib/istatus.s                       0x00000000   Number         0  istatus.o ABSOLUTE
    ../fplib/printf1.s                       0x00000000   Number         0  printf1.o ABSOLUTE
    ../fplib/printf2.s                       0x00000000   Number         0  printf2.o ABSOLUTE
    ../fplib/printf2a.s                      0x00000000   Number         0  printf2a.o ABSOLUTE
    ../fplib/printf2b.s                      0x00000000   Number         0  printf2b.o ABSOLUTE
    ../fplib/retnan.s                        0x00000000   Number         0  retnan.o ABSOLUTE
    ../fplib/scalbn.s                        0x00000000   Number         0  scalbn.o ABSOLUTE
    ../fplib/scanf1.s                        0x00000000   Number         0  scanf1.o ABSOLUTE
    ../fplib/scanf2.s                        0x00000000   Number         0  scanf2.o ABSOLUTE
    ../fplib/scanf2a.s                       0x00000000   Number         0  scanf2a.o ABSOLUTE
    ../fplib/scanf2b.s                       0x00000000   Number         0  scanf2b.o ABSOLUTE
    ../fplib/trapv.s                         0x00000000   Number         0  trapv.o ABSOLUTE
    ../fplib/usenofp.s                       0x00000000   Number         0  usenofp.o ABSOLUTE
    ../mathlib/cos.c                         0x00000000   Number         0  cos.o ABSOLUTE
    ../mathlib/cos.c                         0x00000000   Number         0  cos_x.o ABSOLUTE
    ../mathlib/cos_i.c                       0x00000000   Number         0  cos_i.o ABSOLUTE
    ../mathlib/dunder.c                      0x00000000   Number         0  dunder.o ABSOLUTE
    ../mathlib/fabs.c                        0x00000000   Number         0  fabs.o ABSOLUTE
    ../mathlib/fpclassify.c                  0x00000000   Number         0  fpclassify.o ABSOLUTE
    ../mathlib/frexp.c                       0x00000000   Number         0  frexp.o ABSOLUTE
    ../mathlib/ldexp.c                       0x00000000   Number         0  ldexp.o ABSOLUTE
    ../mathlib/ldexp.c                       0x00000000   Number         0  ldexp_x.o ABSOLUTE
    ../mathlib/narrow.c                      0x00000000   Number         0  narrow.o ABSOLUTE
    ../mathlib/poly.c                        0x00000000   Number         0  poly.o ABSOLUTE
    ../mathlib/qnan.c                        0x00000000   Number         0  qnan.o ABSOLUTE
    ../mathlib/rred.c                        0x00000000   Number         0  rred.o ABSOLUTE
    ../mathlib/sin.c                         0x00000000   Number         0  sin.o ABSOLUTE
    ../mathlib/sin.c                         0x00000000   Number         0  sin_x.o ABSOLUTE
    ../mathlib/sin_i.c                       0x00000000   Number         0  sin_i.o ABSOLUTE
    ../mathlib/sin_i.c                       0x00000000   Number         0  sin_i_x.o ABSOLUTE
    ../mathlib/sqrt.c                        0x00000000   Number         0  sqrt.o ABSOLUTE
    ../mathlib/sqrt.c                        0x00000000   Number         0  sqrt_x.o ABSOLUTE
    C:\\work\\mbed\\github\\libraries\\mbed\\common\\BusOut.cpp 0x00000000   Number         0  BusOut.o ABSOLUTE
    C:\\work\\mbed\\github\\libraries\\mbed\\common\\FileBase.cpp 0x00000000   Number         0  FileBase.o ABSOLUTE
    C:\\work\\mbed\\github\\libraries\\mbed\\common\\FileLike.cpp 0x00000000   Number         0  FileLike.o ABSOLUTE
    C:\\work\\mbed\\github\\libraries\\mbed\\common\\FilePath.cpp 0x00000000   Number         0  FilePath.o ABSOLUTE
    C:\\work\\mbed\\github\\libraries\\mbed\\common\\FileSystemLike.cpp 0x00000000   Number         0  FileSystemLike.o ABSOLUTE
    C:\\work\\mbed\\github\\libraries\\mbed\\common\\I2C.cpp 0x00000000   Number         0  I2C.o ABSOLUTE
    C:\\work\\mbed\\github\\libraries\\mbed\\common\\InterruptIn.cpp 0x00000000   Number         0  InterruptIn.o ABSOLUTE
    C:\\work\\mbed\\github\\libraries\\mbed\\common\\SPI.cpp 0x00000000   Number         0  SPI.o ABSOLUTE
    C:\\work\\mbed\\github\\libraries\\mbed\\common\\Stream.cpp 0x00000000   Number         0  Stream.o ABSOLUTE
    C:\\work\\mbed\\github\\libraries\\mbed\\common\\assert.c 0x00000000   Number         0  assert.o ABSOLUTE
    C:\\work\\mbed\\github\\libraries\\mbed\\common\\board.c 0x00000000   Number         0  board.o ABSOLUTE
    C:\\work\\mbed\\github\\libraries\\mbed\\common\\error.c 0x00000000   Number         0  error.o ABSOLUTE
    C:\\work\\mbed\\github\\libraries\\mbed\\common\\exit.c 0x00000000   Number         0  exit.o ABSOLUTE
    C:\\work\\mbed\\github\\libraries\\mbed\\common\\gpio.c 0x00000000   Number         0  gpio.o ABSOLUTE
    C:\\work\\mbed\\github\\libraries\\mbed\\common\\pinmap_common.c 0x00000000   Number         0  pinmap_common.o ABSOLUTE
    C:\\work\\mbed\\github\\libraries\\mbed\\common\\retarget.cpp 0x00000000   Number         0  retarget.o ABSOLUTE
    C:\\work\\mbed\\github\\libraries\\mbed\\common\\us_ticker_api.c 0x00000000   Number         0  us_ticker_api.o ABSOLUTE
    C:\\work\\mbed\\github\\libraries\\mbed\\targets\\cmsis\\TARGET_Freescale\\TARGET_MCU_K64F\\TOOLCHAIN_ARM_STD\\startup_MK64F12.s 0x00000000   Number         0  startup_MK64F12.o ABSOLUTE
    C:\\work\\mbed\\github\\libraries\\mbed\\targets\\cmsis\\TARGET_Freescale\\TARGET_MCU_K64F\\cmsis_nvic.c 0x00000000   Number         0  cmsis_nvic.o ABSOLUTE
    C:\\work\\mbed\\github\\libraries\\mbed\\targets\\cmsis\\TARGET_Freescale\\TARGET_MCU_K64F\\system_MK64F12.c 0x00000000   Number         0  system_MK64F12.o ABSOLUTE
    C:\\work\\mbed\\github\\libraries\\mbed\\targets\\hal\\TARGET_Freescale\\TARGET_KPSDK_MCUS\\TARGET_KPSDK_CODE\\drivers\\clock\\src\\fsl_clock_manager.c 0x00000000   Number         0  fsl_clock_manager.o ABSOLUTE
    C:\\work\\mbed\\github\\libraries\\mbed\\targets\\hal\\TARGET_Freescale\\TARGET_KPSDK_MCUS\\TARGET_KPSDK_CODE\\hal\\dspi\\fsl_dspi_hal.c 0x00000000   Number         0  fsl_dspi_hal.o ABSOLUTE
    C:\\work\\mbed\\github\\libraries\\mbed\\targets\\hal\\TARGET_Freescale\\TARGET_KPSDK_MCUS\\TARGET_KPSDK_CODE\\hal\\flextimer\\fsl_ftm_hal.c 0x00000000   Number         0  fsl_ftm_hal.o ABSOLUTE
    C:\\work\\mbed\\github\\libraries\\mbed\\targets\\hal\\TARGET_Freescale\\TARGET_KPSDK_MCUS\\TARGET_KPSDK_CODE\\hal\\gpio\\fsl_gpio_hal.c 0x00000000   Number         0  fsl_gpio_hal.o ABSOLUTE
    C:\\work\\mbed\\github\\libraries\\mbed\\targets\\hal\\TARGET_Freescale\\TARGET_KPSDK_MCUS\\TARGET_KPSDK_CODE\\hal\\i2c\\fsl_i2c_hal.c 0x00000000   Number         0  fsl_i2c_hal.o ABSOLUTE
    C:\\work\\mbed\\github\\libraries\\mbed\\targets\\hal\\TARGET_Freescale\\TARGET_KPSDK_MCUS\\TARGET_KPSDK_CODE\\hal\\mcg\\fsl_mcg_hal.c 0x00000000   Number         0  fsl_mcg_hal.o ABSOLUTE
    C:\\work\\mbed\\github\\libraries\\mbed\\targets\\hal\\TARGET_Freescale\\TARGET_KPSDK_MCUS\\TARGET_KPSDK_CODE\\hal\\sim\\fsl_sim_clock_module_names_K64F12.c 0x00000000   Number         0  fsl_sim_clock_module_names_K64F12.o ABSOLUTE
    C:\\work\\mbed\\github\\libraries\\mbed\\targets\\hal\\TARGET_Freescale\\TARGET_KPSDK_MCUS\\TARGET_KPSDK_CODE\\hal\\sim\\fsl_sim_hal.c 0x00000000   Number         0  fsl_sim_hal.o ABSOLUTE
    C:\\work\\mbed\\github\\libraries\\mbed\\targets\\hal\\TARGET_Freescale\\TARGET_KPSDK_MCUS\\TARGET_KPSDK_CODE\\hal\\uart\\fsl_uart_hal_common_configurations.c 0x00000000   Number         0  fsl_uart_hal_common_configurations.o ABSOLUTE
    C:\\work\\mbed\\github\\libraries\\mbed\\targets\\hal\\TARGET_Freescale\\TARGET_KPSDK_MCUS\\TARGET_KPSDK_CODE\\hal\\uart\\fsl_uart_hal_interrupts_and_dma.c 0x00000000   Number         0  fsl_uart_hal_interrupts_and_dma.o ABSOLUTE
    C:\\work\\mbed\\github\\libraries\\mbed\\targets\\hal\\TARGET_Freescale\\TARGET_KPSDK_MCUS\\TARGET_KPSDK_CODE\\hal\\uart\\fsl_uart_hal_special_feature_configurations.c 0x00000000   Number         0  fsl_uart_hal_special_feature_configurations.o ABSOLUTE
    C:\\work\\mbed\\github\\libraries\\mbed\\targets\\hal\\TARGET_Freescale\\TARGET_KPSDK_MCUS\\TARGET_KPSDK_CODE\\hal\\uart\\fsl_uart_hal_status_flags.c 0x00000000   Number         0  fsl_uart_hal_status_flags.o ABSOLUTE
    C:\\work\\mbed\\github\\libraries\\mbed\\targets\\hal\\TARGET_Freescale\\TARGET_KPSDK_MCUS\\TARGET_KPSDK_CODE\\hal\\uart\\fsl_uart_hal_transfer_functions.c 0x00000000   Number         0  fsl_uart_hal_transfer_functions.o ABSOLUTE
    C:\\work\\mbed\\github\\libraries\\mbed\\targets\\hal\\TARGET_Freescale\\TARGET_KPSDK_MCUS\\TARGET_MCU_K64F\\TARGET_FRDM\\PeripheralPins.c 0x00000000   Number         0  PeripheralPins.o ABSOLUTE
    C:\\work\\mbed\\github\\libraries\\mbed\\targets\\hal\\TARGET_Freescale\\TARGET_KPSDK_MCUS\\TARGET_MCU_K64F\\TARGET_FRDM\\mbed_overrides.c 0x00000000   Number         0  mbed_overrides.o ABSOLUTE
    C:\\work\\mbed\\github\\libraries\\mbed\\targets\\hal\\TARGET_Freescale\\TARGET_KPSDK_MCUS\\TARGET_MCU_K64F\\gpio_api.c 0x00000000   Number         0  gpio_api.o ABSOLUTE
    C:\\work\\mbed\\github\\libraries\\mbed\\targets\\hal\\TARGET_Freescale\\TARGET_KPSDK_MCUS\\TARGET_MCU_K64F\\gpio_irq_api.c 0x00000000   Number         0  gpio_irq_api.o ABSOLUTE
    C:\\work\\mbed\\github\\libraries\\mbed\\targets\\hal\\TARGET_Freescale\\TARGET_KPSDK_MCUS\\TARGET_MCU_K64F\\i2c_api.c 0x00000000   Number         0  i2c_api.o ABSOLUTE
    C:\\work\\mbed\\github\\libraries\\mbed\\targets\\hal\\TARGET_Freescale\\TARGET_KPSDK_MCUS\\TARGET_MCU_K64F\\pinmap.c 0x00000000   Number         0  pinmap.o ABSOLUTE
    C:\\work\\mbed\\github\\libraries\\mbed\\targets\\hal\\TARGET_Freescale\\TARGET_KPSDK_MCUS\\TARGET_MCU_K64F\\pwmout_api.c 0x00000000   Number         0  pwmout_api.o ABSOLUTE
    C:\\work\\mbed\\github\\libraries\\mbed\\targets\\hal\\TARGET_Freescale\\TARGET_KPSDK_MCUS\\TARGET_MCU_K64F\\serial_api.c 0x00000000   Number         0  serial_api.o ABSOLUTE
    C:\\work\\mbed\\github\\libraries\\mbed\\targets\\hal\\TARGET_Freescale\\TARGET_KPSDK_MCUS\\TARGET_MCU_K64F\\spi_api.c 0x00000000   Number         0  spi_api.o ABSOLUTE
    C:\\work\\mbed\\github\\libraries\\mbed\\targets\\hal\\TARGET_Freescale\\TARGET_KPSDK_MCUS\\TARGET_MCU_K64F\\us_ticker.c 0x00000000   Number         0  us_ticker.o ABSOLUTE
    C:\work\mbed\github\libraries\mbed\common\BusOut.cpp 0x00000000   Number         0  BusOut.o ABSOLUTE
    C:\work\mbed\github\libraries\mbed\common\FileBase.cpp 0x00000000   Number         0  FileBase.o ABSOLUTE
    C:\work\mbed\github\libraries\mbed\common\FileLike.cpp 0x00000000   Number         0  FileLike.o ABSOLUTE
    C:\work\mbed\github\libraries\mbed\common\FilePath.cpp 0x00000000   Number         0  FilePath.o ABSOLUTE
    C:\work\mbed\github\libraries\mbed\common\FileSystemLike.cpp 0x00000000   Number         0  FileSystemLike.o ABSOLUTE
    C:\work\mbed\github\libraries\mbed\common\FunctionPointer.cpp 0x00000000   Number         0  FunctionPointer.o ABSOLUTE
    C:\work\mbed\github\libraries\mbed\common\I2C.cpp 0x00000000   Number         0  I2C.o ABSOLUTE
    C:\work\mbed\github\libraries\mbed\common\InterruptIn.cpp 0x00000000   Number         0  InterruptIn.o ABSOLUTE
    C:\work\mbed\github\libraries\mbed\common\SPI.cpp 0x00000000   Number         0  SPI.o ABSOLUTE
    C:\work\mbed\github\libraries\mbed\common\Stream.cpp 0x00000000   Number         0  Stream.o ABSOLUTE
    C:\work\mbed\github\libraries\mbed\common\assert.c 0x00000000   Number         0  assert.o ABSOLUTE
    C:\work\mbed\github\libraries\mbed\common\board.c 0x00000000   Number         0  board.o ABSOLUTE
    C:\work\mbed\github\libraries\mbed\common\error.c 0x00000000   Number         0  error.o ABSOLUTE
    C:\work\mbed\github\libraries\mbed\common\exit.c 0x00000000   Number         0  exit.o ABSOLUTE
    C:\work\mbed\github\libraries\mbed\common\gpio.c 0x00000000   Number         0  gpio.o ABSOLUTE
    C:\work\mbed\github\libraries\mbed\common\pinmap_common.c 0x00000000   Number         0  pinmap_common.o ABSOLUTE
    C:\work\mbed\github\libraries\mbed\common\retarget.cpp 0x00000000   Number         0  retarget.o ABSOLUTE
    C:\work\mbed\github\libraries\mbed\common\us_ticker_api.c 0x00000000   Number         0  us_ticker_api.o ABSOLUTE
    C:\work\mbed\github\libraries\mbed\common\wait_api.c 0x00000000   Number         0  wait_api.o ABSOLUTE
    C:\work\mbed\github\libraries\mbed\targets\cmsis\TARGET_Freescale\TARGET_MCU_K64F\TOOLCHAIN_ARM_STD\sys.cpp 0x00000000   Number         0  sys.o ABSOLUTE
    C:\work\mbed\github\libraries\mbed\targets\cmsis\TARGET_Freescale\TARGET_MCU_K64F\cmsis_nvic.c 0x00000000   Number         0  cmsis_nvic.o ABSOLUTE
    C:\work\mbed\github\libraries\mbed\targets\cmsis\TARGET_Freescale\TARGET_MCU_K64F\system_MK64F12.c 0x00000000   Number         0  system_MK64F12.o ABSOLUTE
    C:\work\mbed\github\libraries\mbed\targets\hal\TARGET_Freescale\TARGET_KPSDK_MCUS\TARGET_KPSDK_CODE\drivers\clock\src\fsl_clock_manager.c 0x00000000   Number         0  fsl_clock_manager.o ABSOLUTE
    C:\work\mbed\github\libraries\mbed\targets\hal\TARGET_Freescale\TARGET_KPSDK_MCUS\TARGET_KPSDK_CODE\hal\dspi\fsl_dspi_hal.c 0x00000000   Number         0  fsl_dspi_hal.o ABSOLUTE
    C:\work\mbed\github\libraries\mbed\targets\hal\TARGET_Freescale\TARGET_KPSDK_MCUS\TARGET_KPSDK_CODE\hal\flextimer\fsl_ftm_hal.c 0x00000000   Number         0  fsl_ftm_hal.o ABSOLUTE
    C:\work\mbed\github\libraries\mbed\targets\hal\TARGET_Freescale\TARGET_KPSDK_MCUS\TARGET_KPSDK_CODE\hal\gpio\fsl_gpio_hal.c 0x00000000   Number         0  fsl_gpio_hal.o ABSOLUTE
    C:\work\mbed\github\libraries\mbed\targets\hal\TARGET_Freescale\TARGET_KPSDK_MCUS\TARGET_KPSDK_CODE\hal\i2c\fsl_i2c_hal.c 0x00000000   Number         0  fsl_i2c_hal.o ABSOLUTE
    C:\work\mbed\github\libraries\mbed\targets\hal\TARGET_Freescale\TARGET_KPSDK_MCUS\TARGET_KPSDK_CODE\hal\mcg\fsl_mcg_hal.c 0x00000000   Number         0  fsl_mcg_hal.o ABSOLUTE
    C:\work\mbed\github\libraries\mbed\targets\hal\TARGET_Freescale\TARGET_KPSDK_MCUS\TARGET_KPSDK_CODE\hal\sim\fsl_sim_clock_module_names_K64F12.c 0x00000000   Number         0  fsl_sim_clock_module_names_K64F12.o ABSOLUTE
    C:\work\mbed\github\libraries\mbed\targets\hal\TARGET_Freescale\TARGET_KPSDK_MCUS\TARGET_KPSDK_CODE\hal\sim\fsl_sim_hal.c 0x00000000   Number         0  fsl_sim_hal.o ABSOLUTE
    C:\work\mbed\github\libraries\mbed\targets\hal\TARGET_Freescale\TARGET_KPSDK_MCUS\TARGET_KPSDK_CODE\hal\uart\fsl_uart_hal_common_configurations.c 0x00000000   Number         0  fsl_uart_hal_common_configurations.o ABSOLUTE
    C:\work\mbed\github\libraries\mbed\targets\hal\TARGET_Freescale\TARGET_KPSDK_MCUS\TARGET_KPSDK_CODE\hal\uart\fsl_uart_hal_interrupts_and_dma.c 0x00000000   Number         0  fsl_uart_hal_interrupts_and_dma.o ABSOLUTE
    C:\work\mbed\github\libraries\mbed\targets\hal\TARGET_Freescale\TARGET_KPSDK_MCUS\TARGET_KPSDK_CODE\hal\uart\fsl_uart_hal_special_feature_configurations.c 0x00000000   Number         0  fsl_uart_hal_special_feature_configurations.o ABSOLUTE
    C:\work\mbed\github\libraries\mbed\targets\hal\TARGET_Freescale\TARGET_KPSDK_MCUS\TARGET_KPSDK_CODE\hal\uart\fsl_uart_hal_status_flags.c 0x00000000   Number         0  fsl_uart_hal_status_flags.o ABSOLUTE
    C:\work\mbed\github\libraries\mbed\targets\hal\TARGET_Freescale\TARGET_KPSDK_MCUS\TARGET_KPSDK_CODE\hal\uart\fsl_uart_hal_transfer_functions.c 0x00000000   Number         0  fsl_uart_hal_transfer_functions.o ABSOLUTE
    C:\work\mbed\github\libraries\mbed\targets\hal\TARGET_Freescale\TARGET_KPSDK_MCUS\TARGET_MCU_K64F\TARGET_FRDM\PeripheralPins.c 0x00000000   Number         0  PeripheralPins.o ABSOLUTE
    C:\work\mbed\github\libraries\mbed\targets\hal\TARGET_Freescale\TARGET_KPSDK_MCUS\TARGET_MCU_K64F\TARGET_FRDM\mbed_overrides.c 0x00000000   Number         0  mbed_overrides.o ABSOLUTE
    C:\work\mbed\github\libraries\mbed\targets\hal\TARGET_Freescale\TARGET_KPSDK_MCUS\TARGET_MCU_K64F\gpio_api.c 0x00000000   Number         0  gpio_api.o ABSOLUTE
    C:\work\mbed\github\libraries\mbed\targets\hal\TARGET_Freescale\TARGET_KPSDK_MCUS\TARGET_MCU_K64F\gpio_irq_api.c 0x00000000   Number         0  gpio_irq_api.o ABSOLUTE
    C:\work\mbed\github\libraries\mbed\targets\hal\TARGET_Freescale\TARGET_KPSDK_MCUS\TARGET_MCU_K64F\i2c_api.c 0x00000000   Number         0  i2c_api.o ABSOLUTE
    C:\work\mbed\github\libraries\mbed\targets\hal\TARGET_Freescale\TARGET_KPSDK_MCUS\TARGET_MCU_K64F\pinmap.c 0x00000000   Number         0  pinmap.o ABSOLUTE
    C:\work\mbed\github\libraries\mbed\targets\hal\TARGET_Freescale\TARGET_KPSDK_MCUS\TARGET_MCU_K64F\pwmout_api.c 0x00000000   Number         0  pwmout_api.o ABSOLUTE
    C:\work\mbed\github\libraries\mbed\targets\hal\TARGET_Freescale\TARGET_KPSDK_MCUS\TARGET_MCU_K64F\serial_api.c 0x00000000   Number         0  serial_api.o ABSOLUTE
    C:\work\mbed\github\libraries\mbed\targets\hal\TARGET_Freescale\TARGET_KPSDK_MCUS\TARGET_MCU_K64F\spi_api.c 0x00000000   Number         0  spi_api.o ABSOLUTE
    C:\work\mbed\github\libraries\mbed\targets\hal\TARGET_Freescale\TARGET_KPSDK_MCUS\TARGET_MCU_K64F\us_ticker.c 0x00000000   Number         0  us_ticker.o ABSOLUTE
    MMA8451Q/MMA8451Q.cpp                    0x00000000   Number         0  mma8451q.o ABSOLUTE
    MMA8451Q\MMA8451Q.cpp                    0x00000000   Number         0  mma8451q.o ABSOLUTE
    MyTouch\MyTouch.cpp                      0x00000000   Number         0  mytouch.o ABSOLUTE
    MyTouch\\MyTouch.cpp                     0x00000000   Number         0  mytouch.o ABSOLUTE
    SPI_STMPE610/SPI_STMPE610.cpp            0x00000000   Number         0  spi_stmpe610.o ABSOLUTE
    SPI_STMPE610\SPI_STMPE610.cpp            0x00000000   Number         0  spi_stmpe610.o ABSOLUTE
    SPI_TFT_ILI9341/GraphicsDisplay.cpp      0x00000000   Number         0  graphicsdisplay.o ABSOLUTE
    SPI_TFT_ILI9341/SPI_TFT_ILI9341.cpp      0x00000000   Number         0  spi_tft_ili9341.o ABSOLUTE
    SPI_TFT_ILI9341/TextDisplay.cpp          0x00000000   Number         0  textdisplay.o ABSOLUTE
    SPI_TFT_ILI9341\GraphicsDisplay.cpp      0x00000000   Number         0  graphicsdisplay.o ABSOLUTE
    SPI_TFT_ILI9341\SPI_TFT_ILI9341.cpp      0x00000000   Number         0  spi_tft_ili9341.o ABSOLUTE
    SPI_TFT_ILI9341\TextDisplay.cpp          0x00000000   Number         0  textdisplay.o ABSOLUTE
    TFTLCD\\hx8340bs.cpp                     0x00000000   Number         0  hx8340bs.o ABSOLUTE
    TFTLCD\\ili9328.cpp                      0x00000000   Number         0  ili9328.o ABSOLUTE
    TFTLCD\\lcd_base.cpp                     0x00000000   Number         0  lcd_base.o ABSOLUTE
    TFTLCD\\ssd1289.cpp                      0x00000000   Number         0  ssd1289.o ABSOLUTE
    TFTLCD\\st7735.cpp                       0x00000000   Number         0  st7735.o ABSOLUTE
    TFTLCD\\terminus.cpp                     0x00000000   Number         0  terminus.o ABSOLUTE
    TFTLCD\hx8340bs.cpp                      0x00000000   Number         0  hx8340bs.o ABSOLUTE
    TFTLCD\ili9328.cpp                       0x00000000   Number         0  ili9328.o ABSOLUTE
    TFTLCD\lcd_base.cpp                      0x00000000   Number         0  lcd_base.o ABSOLUTE
    TFTLCD\ssd1289.cpp                       0x00000000   Number         0  ssd1289.o ABSOLUTE
    TFTLCD\st7735.cpp                        0x00000000   Number         0  st7735.o ABSOLUTE
    TFTLCD\terminus.cpp                      0x00000000   Number         0  terminus.o ABSOLUTE
    dc.s                                     0x00000000   Number         0  dc.o ABSOLUTE
    mainMain.cpp                             0x00000000   Number         0  mainmain.o ABSOLUTE
    mainMain.cpp                             0x00000000   Number         0  mainmain.o ABSOLUTE
    .ARM.__at_0x400                          0x00000400   Section       16  startup_MK64F12.o(.ARM.__at_0x400)
    !!!main                                  0x00000410   Section        8  __main.o(!!!main)
    !!!scatter                               0x00000418   Section       52  __scatter.o(!!!scatter)
    !!handler_copy                           0x0000044c   Section       26  __scatter_copy.o(!!handler_copy)
    !!handler_zi                             0x00000468   Section       28  __scatter_zi.o(!!handler_zi)
    .ARM.Collect$$_printf_percent$$00000000  0x00000484   Section        0  _printf_percent.o(.ARM.Collect$$_printf_percent$$00000000)
    .ARM.Collect$$_printf_percent$$00000001  0x00000484   Section        6  _printf_n.o(.ARM.Collect$$_printf_percent$$00000001)
    .ARM.Collect$$_printf_percent$$00000002  0x0000048a   Section        6  _printf_p.o(.ARM.Collect$$_printf_percent$$00000002)
    .ARM.Collect$$_printf_percent$$00000003  0x00000490   Section        6  _printf_f.o(.ARM.Collect$$_printf_percent$$00000003)
    .ARM.Collect$$_printf_percent$$00000004  0x00000496   Section        6  _printf_e.o(.ARM.Collect$$_printf_percent$$00000004)
    .ARM.Collect$$_printf_percent$$00000005  0x0000049c   Section        6  _printf_g.o(.ARM.Collect$$_printf_percent$$00000005)
    .ARM.Collect$$_printf_percent$$00000006  0x000004a2   Section        6  _printf_a.o(.ARM.Collect$$_printf_percent$$00000006)
    .ARM.Collect$$_printf_percent$$00000007  0x000004a8   Section       10  _printf_ll.o(.ARM.Collect$$_printf_percent$$00000007)
    .ARM.Collect$$_printf_percent$$00000008  0x000004b2   Section        6  _printf_i.o(.ARM.Collect$$_printf_percent$$00000008)
    .ARM.Collect$$_printf_percent$$00000009  0x000004b8   Section        6  _printf_d.o(.ARM.Collect$$_printf_percent$$00000009)
    .ARM.Collect$$_printf_percent$$0000000A  0x000004be   Section        6  _printf_u.o(.ARM.Collect$$_printf_percent$$0000000A)
    .ARM.Collect$$_printf_percent$$0000000B  0x000004c4   Section        6  _printf_o.o(.ARM.Collect$$_printf_percent$$0000000B)
    .ARM.Collect$$_printf_percent$$0000000C  0x000004ca   Section        6  _printf_x.o(.ARM.Collect$$_printf_percent$$0000000C)
    .ARM.Collect$$_printf_percent$$0000000D  0x000004d0   Section        6  _printf_lli.o(.ARM.Collect$$_printf_percent$$0000000D)
    .ARM.Collect$$_printf_percent$$0000000E  0x000004d6   Section        6  _printf_lld.o(.ARM.Collect$$_printf_percent$$0000000E)
    .ARM.Collect$$_printf_percent$$0000000F  0x000004dc   Section        6  _printf_llu.o(.ARM.Collect$$_printf_percent$$0000000F)
    .ARM.Collect$$_printf_percent$$00000010  0x000004e2   Section        6  _printf_llo.o(.ARM.Collect$$_printf_percent$$00000010)
    .ARM.Collect$$_printf_percent$$00000011  0x000004e8   Section        6  _printf_llx.o(.ARM.Collect$$_printf_percent$$00000011)
    .ARM.Collect$$_printf_percent$$00000012  0x000004ee   Section       10  _printf_l.o(.ARM.Collect$$_printf_percent$$00000012)
    .ARM.Collect$$_printf_percent$$00000013  0x000004f8   Section        6  _printf_c.o(.ARM.Collect$$_printf_percent$$00000013)
    .ARM.Collect$$_printf_percent$$00000014  0x000004fe   Section        6  _printf_s.o(.ARM.Collect$$_printf_percent$$00000014)
    .ARM.Collect$$_printf_percent$$00000015  0x00000504   Section        6  _printf_lc.o(.ARM.Collect$$_printf_percent$$00000015)
    .ARM.Collect$$_printf_percent$$00000016  0x0000050a   Section        6  _printf_ls.o(.ARM.Collect$$_printf_percent$$00000016)
    .ARM.Collect$$_printf_percent$$00000017  0x00000510   Section        4  _printf_percent_end.o(.ARM.Collect$$_printf_percent$$00000017)
    .ARM.Collect$$libinit$$00000000          0x00000514   Section        2  libinit.o(.ARM.Collect$$libinit$$00000000)
    .ARM.Collect$$libinit$$00000001          0x00000516   Section        4  libinit2.o(.ARM.Collect$$libinit$$00000001)
    .ARM.Collect$$libinit$$00000004          0x0000051a   Section        0  libinit2.o(.ARM.Collect$$libinit$$00000004)
    .ARM.Collect$$libinit$$00000005          0x0000051a   Section        8  libinit2.o(.ARM.Collect$$libinit$$00000005)
    .ARM.Collect$$libinit$$0000000A          0x00000522   Section        0  libinit2.o(.ARM.Collect$$libinit$$0000000A)
    .ARM.Collect$$libinit$$0000000C          0x00000522   Section        0  libinit2.o(.ARM.Collect$$libinit$$0000000C)
    .ARM.Collect$$libinit$$0000000E          0x00000522   Section        0  libinit2.o(.ARM.Collect$$libinit$$0000000E)
    .ARM.Collect$$libinit$$0000000F          0x00000522   Section        6  libinit2.o(.ARM.Collect$$libinit$$0000000F)
    .ARM.Collect$$libinit$$00000011          0x00000528   Section        0  libinit2.o(.ARM.Collect$$libinit$$00000011)
    .ARM.Collect$$libinit$$00000012          0x00000528   Section       12  libinit2.o(.ARM.Collect$$libinit$$00000012)
    .ARM.Collect$$libinit$$00000013          0x00000534   Section        0  libinit2.o(.ARM.Collect$$libinit$$00000013)
    .ARM.Collect$$libinit$$00000015          0x00000534   Section        0  libinit2.o(.ARM.Collect$$libinit$$00000015)
    .ARM.Collect$$libinit$$00000016          0x00000534   Section       10  libinit2.o(.ARM.Collect$$libinit$$00000016)
    .ARM.Collect$$libinit$$00000017          0x0000053e   Section        0  libinit2.o(.ARM.Collect$$libinit$$00000017)
    .ARM.Collect$$libinit$$00000019          0x0000053e   Section        0  libinit2.o(.ARM.Collect$$libinit$$00000019)
    .ARM.Collect$$libinit$$0000001B          0x0000053e   Section        0  libinit2.o(.ARM.Collect$$libinit$$0000001B)
    .ARM.Collect$$libinit$$0000001D          0x0000053e   Section        0  libinit2.o(.ARM.Collect$$libinit$$0000001D)
    .ARM.Collect$$libinit$$0000001F          0x0000053e   Section        0  libinit2.o(.ARM.Collect$$libinit$$0000001F)
    .ARM.Collect$$libinit$$00000021          0x0000053e   Section        0  libinit2.o(.ARM.Collect$$libinit$$00000021)
    .ARM.Collect$$libinit$$00000023          0x0000053e   Section        0  libinit2.o(.ARM.Collect$$libinit$$00000023)
    .ARM.Collect$$libinit$$00000024          0x0000053e   Section        4  libinit2.o(.ARM.Collect$$libinit$$00000024)
    .ARM.Collect$$libinit$$00000025          0x00000542   Section        0  libinit2.o(.ARM.Collect$$libinit$$00000025)
    .ARM.Collect$$libinit$$0000002C          0x00000542   Section        0  libinit2.o(.ARM.Collect$$libinit$$0000002C)
    .ARM.Collect$$libinit$$0000002E          0x00000542   Section        0  libinit2.o(.ARM.Collect$$libinit$$0000002E)
    .ARM.Collect$$libinit$$00000030          0x00000542   Section        0  libinit2.o(.ARM.Collect$$libinit$$00000030)
    .ARM.Collect$$libinit$$00000031          0x00000542   Section        4  libinit2.o(.ARM.Collect$$libinit$$00000031)
    .ARM.Collect$$libinit$$00000032          0x00000546   Section        0  libinit2.o(.ARM.Collect$$libinit$$00000032)
    .ARM.Collect$$libinit$$00000033          0x00000546   Section        2  libinit2.o(.ARM.Collect$$libinit$$00000033)
    .ARM.Collect$$libshutdown$$00000002      0x00000548   Section        0  libshutdown2.o(.ARM.Collect$$libshutdown$$00000002)
    .ARM.Collect$$libshutdown$$00000004      0x00000548   Section        0  libshutdown2.o(.ARM.Collect$$libshutdown$$00000004)
    .ARM.Collect$$rtentry$$00000000          0x00000548   Section        0  __rtentry.o(.ARM.Collect$$rtentry$$00000000)
    .ARM.Collect$$rtentry$$00000002          0x00000548   Section        0  __rtentry2.o(.ARM.Collect$$rtentry$$00000002)
    .ARM.Collect$$rtentry$$00000004          0x00000548   Section        6  __rtentry4.o(.ARM.Collect$$rtentry$$00000004)
    .ARM.Collect$$rtentry$$00000009          0x0000054e   Section        0  __rtentry2.o(.ARM.Collect$$rtentry$$00000009)
    .ARM.Collect$$rtentry$$0000000A          0x0000054e   Section        4  __rtentry2.o(.ARM.Collect$$rtentry$$0000000A)
    .ARM.Collect$$rtentry$$0000000C          0x00000552   Section        0  __rtentry2.o(.ARM.Collect$$rtentry$$0000000C)
    .ARM.Collect$$rtentry$$0000000D          0x00000552   Section        8  __rtentry2.o(.ARM.Collect$$rtentry$$0000000D)
    .emb_text                                0x0000055c   Section        0  maybetermalloc1.o(.emb_text)
    .text                                    0x0000055c   Section       36  startup_MK64F12.o(.text)
    $v0                                      0x0000055c   Number         0  startup_MK64F12.o(.text)
    DefaultISR                               0x00000577   Thumb Code     0  startup_MK64F12.o(.text)
    .text                                    0x00000580   Section        0  h1_alloc.o(.text)
    .text                                    0x000005de   Section        0  h1_free.o(.text)
    .text                                    0x0000062c   Section        0  vfprintf.o(.text)
    .text                                    0x00000636   Section        0  c89vfprintf.o(.text)
    .text                                    0x00000640   Section        0  __2fprintf.o(.text)
    .text                                    0x00000654   Section        0  __2sprintf.o(.text)
    .text                                    0x00000680   Section        0  _printf_str.o(.text)
    .text                                    0x000006d4   Section        0  _printf_dec.o(.text)
    .text                                    0x0000074c   Section        0  _printf_hex_int_ll_ptr.o(.text)
    _printf_hex_common                       0x0000074d   Thumb Code     0  _printf_hex_int_ll_ptr.o(.text)
    .text                                    0x000007e0   Section        0  __printf_flags_ss_wp.o(.text)
    .text                                    0x00000968   Section        0  __0sscanf.o(.text)
    .text                                    0x000009a4   Section        0  _scanf_int.o(.text)
    .text                                    0x00000af0   Section        0  fflush.o(.text)
    .text                                    0x00000b54   Section        0  fputs.o(.text)
    .text                                    0x00000b76   Section        0  setvbuf.o(.text)
    .text                                    0x00000bbc   Section        0  fopen.o(.text)
    _freopen_locked                          0x00000bbd   Thumb Code     0  fopen.o(.text)
    .text                                    0x00000ca8   Section        0  setbuf.o(.text)
    .text                                    0x00000cbc   Section        0  fclose.o(.text)
    .text                                    0x00000d08   Section        0  aeabi_atexit.o(.text)
    .text                                    0x00000d38   Section        0  assert.o(.text)
    .text                                    0x00000db8   Section        0  strlen.o(.text)
    .text                                    0x00000df6   Section        0  strncmp.o(.text)
    .text                                    0x00000e8c   Section      100  rt_memcpy_w.o(.text)
    .text                                    0x00000ef0   Section      122  rt_memmove_w.o(.text)
    .text                                    0x00000f6a   Section       78  rt_memclr_w.o(.text)
    .text                                    0x00000fb8   Section      128  strcmpv7m.o(.text)
    .text                                    0x00001038   Section        0  init_aeabi.o(.text)
    .text                                    0x0000105c   Section        8  rt_heap_descriptor.o(.text)
    .text                                    0x00001064   Section        8  rt_new_handler_addr.o(.text)
    .text                                    0x0000106c   Section        8  rt_ddtor_pointer_addr.o(.text)
    .text                                    0x00001074   Section        0  hguard.o(.text)
    .text                                    0x00001078   Section        0  init_alloc.o(.text)
    .text                                    0x00001102   Section        0  h1_init.o(.text)
    .text                                    0x00001110   Section        0  _rserrno.o(.text)
    .text                                    0x00001126   Section        0  _printf_pad.o(.text)
    .text                                    0x00001174   Section        0  _printf_truncate.o(.text)
    .text                                    0x00001198   Section        0  _printf_intcommon.o(.text)
    .text                                    0x0000124a   Section        0  _printf_charcount.o(.text)
    .text                                    0x00001274   Section        0  _printf_char_common.o(.text)
    _printf_input_char                       0x00001275   Thumb Code    10  _printf_char_common.o(.text)
    .text                                    0x000012a4   Section        0  _sputc.o(.text)
    .text                                    0x000012ae   Section        0  _printf_char.o(.text)
    .text                                    0x000012dc   Section        0  _printf_char_file.o(.text)
    .text                                    0x00001300   Section        0  _printf_wctomb.o(.text)
    .text                                    0x000013bc   Section        0  _printf_longlong_dec.o(.text)
    .text                                    0x00001438   Section        0  _printf_oct_int_ll.o(.text)
    _printf_longlong_oct_internal            0x00001439   Thumb Code     0  _printf_oct_int_ll.o(.text)
    .text                                    0x000014a8   Section        0  _chval.o(.text)
    .text                                    0x000014c4   Section        0  scanf_char.o(.text)
    _scanf_char_input                        0x000014c5   Thumb Code    12  scanf_char.o(.text)
    .text                                    0x000014f0   Section        0  _sgetc.o(.text)
    .text                                    0x00001530   Section        0  ferror.o(.text)
    .text                                    0x00001538   Section        0  flsbuf.o(.text)
    .text                                    0x00001710   Section        0  fseek.o(.text)
    .text                                    0x00001808   Section        0  stdio.o(.text)
    .text                                    0x000018f8   Section        0  initio.o(.text)
    .text                                    0x00001a30   Section        0  abort.o(.text)
    .text                                    0x00001a46   Section        0  cxa_finalize.o(.text)
    .text                                    0x00001a88   Section        0  defsig_pvfn_outer.o(.text)
    .text                                    0x00001a96   Section        0  arm_newhandler_noexceptions.o(.text)
    .text                                    0x00001a9a   Section        0  sys_wrch.o(.text)
    .text                                    0x00001aa8   Section        0  sys_exit.o(.text)
    .text                                    0x00001ab4   Section        8  rt_errno_addr.o(.text)
    .text                                    0x00001abc   Section        0  h1_extend.o(.text)
    .text                                    0x00001af0   Section      138  lludiv10.o(.text)
    .text                                    0x00001b7a   Section        0  isspace.o(.text)
    .text                                    0x00001b8c   Section        0  _printf_fp_dec.o(.text)
    _fp_digits                               0x00001b8f   Thumb Code   428  _printf_fp_dec.o(.text)
    .text                                    0x00001fa8   Section        0  _printf_fp_hex.o(.text)
    .text                                    0x000022a4   Section        0  _printf_wchar.o(.text)
    .text                                    0x000022d0   Section        0  _scanf.o(.text)
    .text                                    0x00002644   Section        0  ftell.o(.text)
    .text                                    0x00002686   Section        0  _wcrtomb.o(.text)
    .text                                    0x000026c6   Section        0  defsig_exit.o(.text)
    .text                                    0x000026d0   Section        0  defsig_abrt_outer.o(.text)
    .text                                    0x000026de   Section        0  defsig_rtred_outer.o(.text)
    .text                                    0x000026ec   Section        0  defsig_rtmem_outer.o(.text)
    .text                                    0x000026fc   Section        0  defsig_pvfn_inner.o(.text)
    .text                                    0x0000272c   Section        0  assert_stdio.o(.text)
    .text                                    0x00002744   Section        0  heapauxa.o(.text)
    .text                                    0x00002794   Section        0  arm_exceptions_terminate.o(.text)
    .text                                    0x000027b0   Section        0  arm_exceptions_globs.o(.text)
    [local to arm_exceptions_c]::__default_terminate_handler() 0x000027b1   Thumb Code     6  arm_exceptions_globs.o(.text)
    .text                                    0x00002800   Section        2  use_no_semi.o(.text)
    .text                                    0x00002802   Section        0  indicate_semi.o(.text)
    .text                                    0x00002804   Section       16  rt_ctype_table.o(.text)
    .text                                    0x00002814   Section        8  rt_locale.o(.text)
    .text                                    0x0000281c   Section        8  rt_eh_globals_addr.o(.text)
    .text                                    0x00002824   Section        0  _printf_fp_infnan.o(.text)
    .text                                    0x000028a4   Section        0  bigflt0.o(.text)
    .text                                    0x00002980   Section        0  defsig_general.o(.text)
    .text                                    0x000029b4   Section        0  defsig_abrt_inner.o(.text)
    .text                                    0x000029e4   Section        0  defsig_rtred_inner.o(.text)
    .text                                    0x00002a18   Section        0  defsig_rtmem_inner.o(.text)
    .text                                    0x00002a68   Section        0  arm_exceptions_mem.o(.text)
    CL$$btod_d2e                             0x00002aa4   Section       62  btod.o(CL$$btod_d2e)
    CL$$btod_d2e_denorm_low                  0x00002ae2   Section       70  btod.o(CL$$btod_d2e_denorm_low)
    CL$$btod_d2e_norm_op1                    0x00002b28   Section       96  btod.o(CL$$btod_d2e_norm_op1)
    CL$$btod_div_common                      0x00002b88   Section      824  btod.o(CL$$btod_div_common)
    CL$$btod_e2e                             0x00002ec0   Section      198  btod.o(CL$$btod_e2e)
    CL$$btod_ediv                            0x00002f86   Section       40  btod.o(CL$$btod_ediv)
    CL$$btod_emul                            0x00002fae   Section       40  btod.o(CL$$btod_emul)
    CL$$btod_mult_common                     0x00002fd6   Section      580  btod.o(CL$$btod_mult_common)
    i.$Sub$$main                             0x0000321a   Section        0  retarget.o(i.$Sub$$main)
    i.NMI_Handler                            0x0000322c   Section        0  mbed_overrides.o(i.NMI_Handler)
    i.NVIC_SetVector                         0x00003238   Section        0  cmsis_nvic.o(i.NVIC_SetVector)
    i.SystemInit                             0x000032a0   Section        0  system_MK64F12.o(i.SystemInit)
    i._Z10checkWallsii4ball4wall             0x0000338c   Section        0  mainmain.o(i._Z10checkWallsii4ball4wall)
    i._Z10createBalliiii                     0x0000341c   Section        0  mainmain.o(i._Z10createBalliiii)
    i._Z10createWalliiiii                    0x0000345c   Section        0  mainmain.o(i._Z10createWalliiiii)
    i._Z10createZoneiiiii                    0x000034ac   Section        0  mainmain.o(i._Z10createZoneiiiii)
    i._Z10marbleDrop4ball4zone               0x000034ec   Section        0  mainmain.o(i._Z10marbleDrop4ball4zone)
    i._Z10marbleRoll4ball4zoneP4wallPS0_     0x00003618   Section        0  mainmain.o(i._Z10marbleRoll4ball4zoneP4wallPS0_)
    i._Z11marbleRoll24ball4zoneP4wallPS0_    0x00003a38   Section        0  mainmain.o(i._Z11marbleRoll24ball4zoneP4wallPS0_)
    i._Z19mytouch_irq_handlerv               0x00003e58   Section        0  mainmain.o(i._Z19mytouch_irq_handlerv)
    i._Z4Gamev                               0x00003ec4   Section        0  mainmain.o(i._Z4Gamev)
    i._Z5Instrv                              0x000047c8   Section        0  mainmain.o(i._Z5Instrv)
    i._Z5Readyv                              0x00004b90   Section        0  mainmain.o(i._Z5Readyv)
    i._Z5Startv                              0x00004dec   Section        0  mainmain.o(i._Z5Startv)
    i._Z5boundiii                            0x00004e48   Section        0  mainmain.o(i._Z5boundiii)
    i._Z7initTFTv                            0x00004eb4   Section        0  mainmain.o(i._Z7initTFTv)
    i._ZN11TextDisplay10backgroundEt         0x00004ee0   Section        0  textdisplay.o(i._ZN11TextDisplay10backgroundEt)
    i._ZN11TextDisplay10foregroundEt         0x00004ee4   Section        0  textdisplay.o(i._ZN11TextDisplay10foregroundEt)
    i._ZN11TextDisplay5_putcEi               0x00004ee8   Section        0  textdisplay.o(i._ZN11TextDisplay5_putcEi)
    i._ZN11TextDisplayC2EPKc                 0x00004f54   Section        0  textdisplay.o(i._ZN11TextDisplayC2EPKc)
    i._ZN15GraphicsDisplay4putpEi            0x00004fa0   Section        0  graphicsdisplay.o(i._ZN15GraphicsDisplay4putpEi)
    i._ZN15GraphicsDisplay4rowsEv            0x00004fea   Section        0  graphicsdisplay.o(i._ZN15GraphicsDisplay4rowsEv)
    i._ZN15GraphicsDisplay6windowEjjjj       0x00005002   Section        0  graphicsdisplay.o(i._ZN15GraphicsDisplay6windowEjjjj)
    i._ZN15GraphicsDisplay7blitbitEiiiiPKc   0x00005028   Section        0  graphicsdisplay.o(i._ZN15GraphicsDisplay7blitbitEiiiiPKc)
    i._ZN15GraphicsDisplay7columnsEv         0x00005084   Section        0  graphicsdisplay.o(i._ZN15GraphicsDisplay7columnsEv)
    i._ZN15GraphicsDisplay9characterEiii     0x0000509c   Section        0  graphicsdisplay.o(i._ZN15GraphicsDisplay9characterEiii)
    i._ZN15GraphicsDisplayC2EPKc             0x000050d0   Section        0  graphicsdisplay.o(i._ZN15GraphicsDisplayC2EPKc)
    i._ZN15SPI_TFT_ILI934110fillcircleEiiii  0x00005104   Section        0  spi_tft_ili9341.o(i._ZN15SPI_TFT_ILI934110fillcircleEiiii)
    i._ZN15SPI_TFT_ILI934115set_orientationEj 0x00005180   Section        0  spi_tft_ili9341.o(i._ZN15SPI_TFT_ILI934115set_orientationEj)
    i._ZN15SPI_TFT_ILI93413clsEv             0x000051e6   Section        0  spi_tft_ili9341.o(i._ZN15SPI_TFT_ILI93413clsEv)
    i._ZN15SPI_TFT_ILI93414rowsEv            0x0000525e   Section        0  spi_tft_ili9341.o(i._ZN15SPI_TFT_ILI93414rowsEv)
    i._ZN15SPI_TFT_ILI93415_putcEi           0x00005274   Section        0  spi_tft_ili9341.o(i._ZN15SPI_TFT_ILI93415_putcEi)
    i._ZN15SPI_TFT_ILI93415pixelEiii         0x000052b8   Section        0  spi_tft_ili9341.o(i._ZN15SPI_TFT_ILI93415pixelEiii)
    i._ZN15SPI_TFT_ILI93415vlineEiiii        0x00005348   Section        0  spi_tft_ili9341.o(i._ZN15SPI_TFT_ILI93415vlineEiiii)
    i._ZN15SPI_TFT_ILI93415widthEv           0x000053ba   Section        0  spi_tft_ili9341.o(i._ZN15SPI_TFT_ILI93415widthEv)
    i._ZN15SPI_TFT_ILI93416heightEv          0x000053d0   Section        0  spi_tft_ili9341.o(i._ZN15SPI_TFT_ILI93416heightEv)
    i._ZN15SPI_TFT_ILI93416locateEii         0x000053e6   Section        0  spi_tft_ili9341.o(i._ZN15SPI_TFT_ILI93416locateEii)
    i._ZN15SPI_TFT_ILI93416windowEjjjj       0x000053ec   Section        0  spi_tft_ili9341.o(i._ZN15SPI_TFT_ILI93416windowEjjjj)
    i._ZN15SPI_TFT_ILI93416wr_cmdEh          0x00005484   Section        0  spi_tft_ili9341.o(i._ZN15SPI_TFT_ILI93416wr_cmdEh)
    i._ZN15SPI_TFT_ILI93417columnsEv         0x000054b4   Section        0  spi_tft_ili9341.o(i._ZN15SPI_TFT_ILI93417columnsEv)
    i._ZN15SPI_TFT_ILI93418fillrectEiiiii    0x000054ca   Section        0  spi_tft_ili9341.o(i._ZN15SPI_TFT_ILI93418fillrectEiiiii)
    i._ZN15SPI_TFT_ILI93418set_fontEPh       0x00005550   Section        0  spi_tft_ili9341.o(i._ZN15SPI_TFT_ILI93418set_fontEPh)
    i._ZN15SPI_TFT_ILI93419WindowMaxEv       0x00005554   Section        0  spi_tft_ili9341.o(i._ZN15SPI_TFT_ILI93419WindowMaxEv)
    i._ZN15SPI_TFT_ILI93419characterEiii     0x0000557e   Section        0  spi_tft_ili9341.o(i._ZN15SPI_TFT_ILI93419characterEiii)
    i._ZN15SPI_TFT_ILI93419tft_resetEv       0x000056a4   Section        0  spi_tft_ili9341.o(i._ZN15SPI_TFT_ILI93419tft_resetEv)
    i._ZN15SPI_TFT_ILI9341C1E7PinNameS0_S0_S0_S0_S0_PKc 0x00005b28   Section        0  spi_tft_ili9341.o(i._ZN15SPI_TFT_ILI9341C1E7PinNameS0_S0_S0_S0_S0_PKc)
    i._ZN15SPI_TFT_ILI9341D1Ev               0x00005b9c   Section        0  spi_tft_ili9341.o(i._ZN15SPI_TFT_ILI9341D1Ev)
    i._ZN4mbed10DigitalOut5writeEi           0x00005bc4   Section        0  mytouch.o(i._ZN4mbed10DigitalOut5writeEi)
    i._ZN4mbed10DigitalOutC1E7PinName        0x00005c1c   Section        0  spi_tft_ili9341.o(i._ZN4mbed10DigitalOutC1E7PinName)
    i._ZN4mbed10DigitalOutaSEi               0x00005c34   Section        0  spi_stmpe610.o(i._ZN4mbed10DigitalOutaSEi)
    i._ZN4mbed10FileHandle4flenEv            0x00005c98   Section        0  retarget.o(i._ZN4mbed10FileHandle4flenEv)
    i._ZN4mbed10FileHandleD2Ev               0x00005cd4   Section        0  retarget.o(i._ZN4mbed10FileHandleD2Ev)
    i._ZN4mbed11InterruptIn12_irq_handlerEj14gpio_irq_event 0x00005d04   Section        0  InterruptIn.o(i._ZN4mbed11InterruptIn12_irq_handlerEj14gpio_irq_event)
    i._ZN4mbed11InterruptIn4fallEPFvvE       0x00005d20   Section        0  InterruptIn.o(i._ZN4mbed11InterruptIn4fallEPFvvE)
    i._ZN4mbed11InterruptInC1E7PinName       0x00005d4c   Section        0  InterruptIn.o(i._ZN4mbed11InterruptInC1E7PinName)
    i._ZN4mbed11InterruptInD1Ev              0x00005d94   Section        0  InterruptIn.o(i._ZN4mbed11InterruptInD1Ev)
    i._ZN4mbed15FunctionPointer4callEv       0x00005dac   Section        0  FunctionPointer.o(i._ZN4mbed15FunctionPointer4callEv)
    i._ZN4mbed15FunctionPointer6attachEPFvvE 0x00005dc4   Section        0  FunctionPointer.o(i._ZN4mbed15FunctionPointer6attachEPFvvE)
    i._ZN4mbed15FunctionPointerC1EPFvvE      0x00005dcc   Section        0  FunctionPointer.o(i._ZN4mbed15FunctionPointerC1EPFvvE)
    i._ZN4mbed3I2C4readEiPcib                0x00005dd8   Section        0  I2C.o(i._ZN4mbed3I2C4readEiPcib)
    i._ZN4mbed3I2C5writeEiPKcib              0x00005e20   Section        0  I2C.o(i._ZN4mbed3I2C5writeEiPKcib)
    i._ZN4mbed3I2CC1E7PinNameS1_             0x00005e68   Section        0  I2C.o(i._ZN4mbed3I2CC1E7PinNameS1_)
    i._ZN4mbed3SPI5writeEi                   0x00005e8c   Section        0  SPI.o(i._ZN4mbed3SPI5writeEi)
    i._ZN4mbed3SPI6formatEii                 0x00005ec0   Section        0  SPI.o(i._ZN4mbed3SPI6formatEii)
    i._ZN4mbed3SPI9frequencyEi               0x00005ee4   Section        0  SPI.o(i._ZN4mbed3SPI9frequencyEi)
    i._ZN4mbed3SPIC1E7PinNameS1_S1_S1_       0x00005f0c   Section        0  SPI.o(i._ZN4mbed3SPIC1E7PinNameS1_S1_S1_)
    i._ZN4mbed6Stream4flenEv                 0x00005f50   Section        0  Stream.o(i._ZN4mbed6Stream4flenEv)
    i._ZN4mbed6Stream5closeEv                0x00005f54   Section        0  Stream.o(i._ZN4mbed6Stream5closeEv)
    i._ZN4mbed6Stream5lseekEli               0x00005f58   Section        0  Stream.o(i._ZN4mbed6Stream5lseekEli)
    i._ZN4mbed6Stream5writeEPKvj             0x00005f5c   Section        0  Stream.o(i._ZN4mbed6Stream5writeEPKvj)
    i._ZN4mbed6Stream6isattyEv               0x00005f86   Section        0  Stream.o(i._ZN4mbed6Stream6isattyEv)
    i._ZN4mbed6Stream6printfEPKcz            0x00005f8a   Section        0  Stream.o(i._ZN4mbed6Stream6printfEPKcz)
    i._ZN4mbed6StreamC2EPKc                  0x00005fa8   Section        0  Stream.o(i._ZN4mbed6StreamC2EPKc)
    i._ZN4mbed6StreamD2Ev                    0x00005fec   Section        0  Stream.o(i._ZN4mbed6StreamD2Ev)
    i._ZN4mbed8FileBase11getPathTypeEv       0x0000600c   Section        0  FileBase.o(i._ZN4mbed8FileBase11getPathTypeEv)
    i._ZN4mbed8FileBase6lookupEPKcj          0x00006010   Section        0  FileBase.o(i._ZN4mbed8FileBase6lookupEPKcj)
    i._ZN4mbed8FileBaseC1EPKcNS_8PathTypeE   0x00006048   Section        0  FileBase.o(i._ZN4mbed8FileBaseC1EPKcNS_8PathTypeE)
    i._ZN4mbed8FileBaseD1Ev                  0x0000606c   Section        0  FileBase.o(i._ZN4mbed8FileBaseD1Ev)
    i._ZN4mbed8FileLikeC2EPKc                0x000060a4   Section        0  FileLike.o(i._ZN4mbed8FileLikeC2EPKc)
    i._ZN4mbed8FileLikeD2Ev                  0x000060c8   Section        0  FileLike.o(i._ZN4mbed8FileLikeD2Ev)
    i._ZN4mbed8FilePath10fileSystemEv        0x000060da   Section        0  FilePath.o(i._ZN4mbed8FilePath10fileSystemEv)
    i._ZN4mbed8FilePath4fileEv               0x000060f2   Section        0  FilePath.o(i._ZN4mbed8FilePath4fileEv)
    i._ZN4mbed8FilePath6existsEv             0x0000610e   Section        0  FilePath.o(i._ZN4mbed8FilePath6existsEv)
    i._ZN4mbed8FilePath6isFileEv             0x00006118   Section        0  FilePath.o(i._ZN4mbed8FilePath6isFileEv)
    i._ZN4mbed8FilePath8fileNameEv           0x00006130   Section        0  FilePath.o(i._ZN4mbed8FilePath8fileNameEv)
    i._ZN4mbed8FilePathC1EPKc                0x00006134   Section        0  FilePath.o(i._ZN4mbed8FilePathC1EPKc)
    i._ZN7MYTOUCHC1E7PinNameS0_S0_S0_S0_hPFvvE 0x00006174   Section        0  mytouch.o(i._ZN7MYTOUCHC1E7PinNameS0_S0_S0_S0_hPFvvE)
    i._ZN7MYTOUCHD1Ev                        0x00006218   Section        0  mainmain.o(i._ZN7MYTOUCHD1Ev)
    i._ZN8MMA8451Q10getAccAxisEh             0x00006232   Section        0  mma8451q.o(i._ZN8MMA8451Q10getAccAxisEh)
    i._ZN8MMA8451Q7getAccXEv                 0x00006264   Section        0  mma8451q.o(i._ZN8MMA8451Q7getAccXEv)
    i._ZN8MMA8451Q7getAccYEv                 0x000062b0   Section        0  mma8451q.o(i._ZN8MMA8451Q7getAccYEv)
    i._ZN8MMA8451Q8readRegsEiPhi             0x000062fc   Section        0  mma8451q.o(i._ZN8MMA8451Q8readRegsEiPhi)
    i._ZN8MMA8451Q9writeRegsEPhi             0x00006330   Section        0  mma8451q.o(i._ZN8MMA8451Q9writeRegsEPhi)
    i._ZN8MMA8451QC1E7PinNameS0_i            0x0000634c   Section        0  mma8451q.o(i._ZN8MMA8451QC1E7PinNameS0_i)
    i._Znaj                                  0x0000637c   Section        0  array_new.o(i._Znaj)
    i._Znwj                                  0x00006384   Section        0  new.o(i._Znwj)
    i.__ARM_fpclassify                       0x000063ac   Section        0  fpclassify.o(i.__ARM_fpclassify)
    i.__cxa_pure_virtual                     0x000063dc   Section        0  pure_virt.o(i.__cxa_pure_virtual)
    i.__hardfp_sqrt                          0x000063e2   Section        0  sqrt.o(i.__hardfp_sqrt)
    i.__sti___12_mainMain_cpp_acc            0x0000645c   Section        0  mainmain.o(i.__sti___12_mainMain_cpp_acc)
    __sti___12_mainMain_cpp_acc              0x0000645d   Thumb Code   126  mainmain.o(i.__sti___12_mainMain_cpp_acc)
    i.__user_setup_stackheap                 0x00006500   Section        0  sys.o(i.__user_setup_stackheap)
    i._is_digit                              0x00006510   Section        0  __printf_wp.o(i._is_digit)
    i._sys_close                             0x00006520   Section        0  retarget.o(i._sys_close)
    i._sys_flen                              0x0000654c   Section        0  retarget.o(i._sys_flen)
    i._sys_istty                             0x00006574   Section        0  retarget.o(i._sys_istty)
    i._sys_open                              0x0000659c   Section        0  retarget.o(i._sys_open)
    i._sys_seek                              0x000066d8   Section        0  retarget.o(i._sys_seek)
    i._sys_write                             0x00006700   Section        0  retarget.o(i._sys_write)
    i.clock_hal_get_clock_divider            0x00006760   Section        0  fsl_sim_hal.o(i.clock_hal_get_clock_divider)
    i.clock_hal_get_fllclk                   0x00006804   Section        0  fsl_mcg_hal.o(i.clock_hal_get_fllclk)
    i.clock_hal_get_irclk                    0x000068e4   Section        0  fsl_mcg_hal.o(i.clock_hal_get_irclk)
    i.clock_hal_get_outclk                   0x00006914   Section        0  fsl_mcg_hal.o(i.clock_hal_get_outclk)
    i.clock_hal_get_pll0clk                  0x000069d4   Section        0  fsl_mcg_hal.o(i.clock_hal_get_pll0clk)
    i.clock_hal_set_gate                     0x00006a18   Section        0  fsl_sim_hal.o(i.clock_hal_set_gate)
    i.clock_manager_get_frequency            0x00006aac   Section        0  fsl_clock_manager.o(i.clock_manager_get_frequency)
    i.clock_manager_get_frequency_by_name    0x00006ab8   Section        0  fsl_clock_manager.o(i.clock_manager_get_frequency_by_name)
    clock_manager_get_frequency_by_name      0x00006ab9   Thumb Code   144  fsl_clock_manager.o(i.clock_manager_get_frequency_by_name)
    i.clock_manager_get_system_clock         0x00006b50   Section        0  fsl_clock_manager.o(i.clock_manager_get_system_clock)
    i.clock_manager_set_gate                 0x00006bb8   Section        0  fsl_clock_manager.o(i.clock_manager_set_gate)
    i.dspi_hal_configure_data_format         0x00006bd0   Section        0  fsl_dspi_hal.o(i.dspi_hal_configure_data_format)
    i.dspi_hal_configure_delays              0x00006c94   Section        0  fsl_dspi_hal.o(i.dspi_hal_configure_delays)
    i.dspi_hal_set_baud                      0x00006d48   Section        0  fsl_dspi_hal.o(i.dspi_hal_set_baud)
    i.dspi_hal_write_data_master_mode        0x00006e2c   Section        0  fsl_dspi_hal.o(i.dspi_hal_write_data_master_mode)
    i.error                                  0x00006eb4   Section        0  error.o(i.error)
    i.exit                                   0x00006ecc   Section        0  exit.o(i.exit)
    i.fputc                                  0x00006eec   Section        0  fputc.o(i.fputc)
    i.gpio_dir                               0x00006f08   Section        0  gpio_api.o(i.gpio_dir)
    i.gpio_hal_set_pin_direction             0x00006f60   Section        0  fsl_gpio_hal.o(i.gpio_hal_set_pin_direction)
    i.gpio_hal_write_pin_output              0x00006fd0   Section        0  fsl_gpio_hal.o(i.gpio_hal_write_pin_output)
    i.gpio_init                              0x0000703c   Section        0  gpio_api.o(i.gpio_init)
    i.gpio_init_in                           0x000070c0   Section        0  gpio.o(i.gpio_init_in)
    i.gpio_init_out                          0x000070e8   Section        0  gpio.o(i.gpio_init_out)
    i.gpio_irqA                              0x00007138   Section        0  gpio_irq_api.o(i.gpio_irqA)
    i.gpio_irqB                              0x00007140   Section        0  gpio_irq_api.o(i.gpio_irqB)
    i.gpio_irqC                              0x00007148   Section        0  gpio_irq_api.o(i.gpio_irqC)
    i.gpio_irqD                              0x00007150   Section        0  gpio_irq_api.o(i.gpio_irqD)
    i.gpio_irqE                              0x00007158   Section        0  gpio_irq_api.o(i.gpio_irqE)
    i.gpio_irq_free                          0x00007160   Section        0  gpio_irq_api.o(i.gpio_irq_free)
    i.gpio_irq_init                          0x00007170   Section        0  gpio_irq_api.o(i.gpio_irq_init)
    i.gpio_irq_set                           0x00007244   Section        0  gpio_irq_api.o(i.gpio_irq_set)
    i.gpio_mode                              0x00007344   Section        0  gpio_api.o(i.gpio_mode)
    i.handle_interrupt_in                    0x0000734c   Section        0  gpio_irq_api.o(i.handle_interrupt_in)
    handle_interrupt_in                      0x0000734d   Thumb Code   152  gpio_irq_api.o(i.handle_interrupt_in)
    i.i2c_do_write                           0x00007424   Section        0  i2c_api.o(i.i2c_do_write)
    i2c_do_write                             0x00007425   Thumb Code   168  i2c_api.o(i.i2c_do_write)
    i.i2c_frequency                          0x000074fc   Section        0  i2c_api.o(i.i2c_frequency)
    i.i2c_hal_send_start                     0x00007524   Section        0  fsl_i2c_hal.o(i.i2c_hal_send_start)
    i.i2c_hal_set_baud                       0x00007580   Section        0  fsl_i2c_hal.o(i.i2c_hal_set_baud)
    i.i2c_init                               0x00007644   Section        0  i2c_api.o(i.i2c_init)
    i.i2c_read                               0x00007794   Section        0  i2c_api.o(i.i2c_read)
    i.i2c_stop                               0x000078b8   Section        0  i2c_api.o(i.i2c_stop)
    i.i2c_wait_end_rx_transfer               0x00007950   Section        0  i2c_api.o(i.i2c_wait_end_rx_transfer)
    i2c_wait_end_rx_transfer                 0x00007951   Thumb Code    80  i2c_api.o(i.i2c_wait_end_rx_transfer)
    i.i2c_write                              0x000079ac   Section        0  i2c_api.o(i.i2c_write)
    i.lptmr_isr                              0x00007a10   Section        0  us_ticker.o(i.lptmr_isr)
    lptmr_isr                                0x00007a11   Thumb Code    88  us_ticker.o(i.lptmr_isr)
    i.main                                   0x00007a70   Section        0  mainmain.o(i.main)
    i.mbed_assert_internal                   0x00007b2c   Section        0  assert.o(i.mbed_assert_internal)
    i.mbed_die                               0x00007b7c   Section        0  board.o(i.mbed_die)
    i.mbed_main                              0x00007bdc   Section        0  retarget.o(i.mbed_main)
    i.mbed_sdk_init                          0x00007bde   Section        0  retarget.o(i.mbed_sdk_init)
    i.pin_function                           0x00007be0   Section        0  pinmap.o(i.pin_function)
    i.pin_mode                               0x00007c88   Section        0  pinmap.o(i.pin_mode)
    i.pinmap_merge                           0x00007d4c   Section        0  pinmap_common.o(i.pinmap_merge)
    i.pinmap_peripheral                      0x00007d84   Section        0  pinmap_common.o(i.pinmap_peripheral)
    i.pinmap_pinout                          0x00007ddc   Section        0  pinmap_common.o(i.pinmap_pinout)
    i.serial_init                            0x00007e2c   Section        0  serial_api.o(i.serial_init)
    i.serial_putc                            0x00007f10   Section        0  serial_api.o(i.serial_putc)
    i.spi_format                             0x00007f3c   Section        0  spi_api.o(i.spi_format)
    i.spi_frequency                          0x00007fb4   Section        0  spi_api.o(i.spi_frequency)
    i.spi_init                               0x00007fd0   Section        0  spi_api.o(i.spi_init)
    i.spi_master_write                       0x0000817c   Section        0  spi_api.o(i.spi_master_write)
    i.uart_hal_clear_status_flag             0x00008228   Section        0  fsl_uart_hal_status_flags.o(i.uart_hal_clear_status_flag)
    i.uart_hal_init                          0x000082d0   Section        0  fsl_uart_hal_common_configurations.o(i.uart_hal_init)
    i.uart_hal_is_receive_overrun_detected   0x00008448   Section        0  fsl_uart_hal_status_flags.o(i.uart_hal_is_receive_overrun_detected)
    i.uart_hal_is_transmit_data_register_empty 0x00008494   Section        0  fsl_uart_hal_status_flags.o(i.uart_hal_is_transmit_data_register_empty)
    i.uart_hal_putchar                       0x000084dc   Section        0  fsl_uart_hal_transfer_functions.o(i.uart_hal_putchar)
    i.us_ticker_clear_interrupt              0x00008524   Section        0  us_ticker.o(i.us_ticker_clear_interrupt)
    i.us_ticker_disable_interrupt            0x00008526   Section        0  us_ticker.o(i.us_ticker_disable_interrupt)
    i.us_ticker_init                         0x00008530   Section        0  us_ticker.o(i.us_ticker_init)
    i.us_ticker_irq_handler                  0x00008608   Section        0  us_ticker_api.o(i.us_ticker_irq_handler)
    i.us_ticker_read                         0x0000864c   Section        0  us_ticker.o(i.us_ticker_read)
    i.us_ticker_set_interrupt                0x0000866c   Section        0  us_ticker.o(i.us_ticker_set_interrupt)
    i.wait                                   0x000086e8   Section        0  wait_api.o(i.wait)
    i.wait_ms                                0x00008710   Section        0  wait_api.o(i.wait_ms)
    i.wait_us                                0x0000872c   Section        0  wait_api.o(i.wait_us)
    locale$$code                             0x00008744   Section       44  lc_numeric_c.o(locale$$code)
    locale$$code                             0x00008770   Section       44  lc_ctype_c.o(locale$$code)
    x$fpl$d2f                                0x0000879c   Section       98  d2f.o(x$fpl$d2f)
    $v0                                      0x0000879c   Number         0  d2f.o(x$fpl$d2f)
    x$fpl$dadd                               0x00008800   Section      336  daddsub_clz.o(x$fpl$dadd)
    $v0                                      0x00008800   Number         0  daddsub_clz.o(x$fpl$dadd)
    _dadd1                                   0x00008811   Thumb Code     0  daddsub_clz.o(x$fpl$dadd)
    x$fpl$dcmpinf                            0x00008950   Section       24  dcmpi.o(x$fpl$dcmpinf)
    $v0                                      0x00008950   Number         0  dcmpi.o(x$fpl$dcmpinf)
    x$fpl$ddiv                               0x00008968   Section      688  ddiv.o(x$fpl$ddiv)
    $v0                                      0x00008968   Number         0  ddiv.o(x$fpl$ddiv)
    ddiv_entry                               0x0000896f   Thumb Code     0  ddiv.o(x$fpl$ddiv)
    x$fpl$dfix                               0x00008c18   Section       94  dfix.o(x$fpl$dfix)
    $v0                                      0x00008c18   Number         0  dfix.o(x$fpl$dfix)
    x$fpl$dflt                               0x00008c76   Section       46  dflt_clz.o(x$fpl$dflt)
    $v0                                      0x00008c76   Number         0  dflt_clz.o(x$fpl$dflt)
    x$fpl$dleqf                              0x00008ca4   Section      120  dleqf.o(x$fpl$dleqf)
    $v0                                      0x00008ca4   Number         0  dleqf.o(x$fpl$dleqf)
    x$fpl$dmul                               0x00008d1c   Section      340  dmul.o(x$fpl$dmul)
    $v0                                      0x00008d1c   Number         0  dmul.o(x$fpl$dmul)
    x$fpl$dnaninf                            0x00008e70   Section      156  dnaninf.o(x$fpl$dnaninf)
    $v0                                      0x00008e70   Number         0  dnaninf.o(x$fpl$dnaninf)
    x$fpl$dretinf                            0x00008f0c   Section       12  dretinf.o(x$fpl$dretinf)
    $v0                                      0x00008f0c   Number         0  dretinf.o(x$fpl$dretinf)
    x$fpl$drleqf                             0x00008f18   Section      108  drleqf.o(x$fpl$drleqf)
    $v0                                      0x00008f18   Number         0  drleqf.o(x$fpl$drleqf)
    x$fpl$dsqrt                              0x00008f84   Section      408  dsqrt_umaal.o(x$fpl$dsqrt)
    $v0                                      0x00008f84   Number         0  dsqrt_umaal.o(x$fpl$dsqrt)
    x$fpl$dsub                               0x0000911c   Section      468  daddsub_clz.o(x$fpl$dsub)
    $v0                                      0x0000911c   Number         0  daddsub_clz.o(x$fpl$dsub)
    _dsub1                                   0x0000912d   Thumb Code     0  daddsub_clz.o(x$fpl$dsub)
    x$fpl$f2d                                0x000092f0   Section       86  f2d.o(x$fpl$f2d)
    $v0                                      0x000092f0   Number         0  f2d.o(x$fpl$f2d)
    x$fpl$fnaninf                            0x00009346   Section      140  fnaninf.o(x$fpl$fnaninf)
    $v0                                      0x00009346   Number         0  fnaninf.o(x$fpl$fnaninf)
    x$fpl$fpinit                             0x000093d2   Section       10  fpinit.o(x$fpl$fpinit)
    $v0                                      0x000093d2   Number         0  fpinit.o(x$fpl$fpinit)
    x$fpl$fretinf                            0x000093dc   Section       10  fretinf.o(x$fpl$fretinf)
    $v0                                      0x000093dc   Number         0  fretinf.o(x$fpl$fretinf)
    x$fpl$printf1                            0x000093e6   Section        4  printf1.o(x$fpl$printf1)
    $v0                                      0x000093e6   Number         0  printf1.o(x$fpl$printf1)
    x$fpl$printf2                            0x000093ea   Section        4  printf2.o(x$fpl$printf2)
    $v0                                      0x000093ea   Number         0  printf2.o(x$fpl$printf2)
    x$fpl$usenofp                            0x000093ee   Section        0  usenofp.o(x$fpl$usenofp)
    .constdata                               0x000093f0   Section      129  board.o(.constdata)
    .constdata                               0x00009471   Section       23  retarget.o(.constdata)
    .constdata                               0x00009488   Section      776  graphicsdisplay.o(.constdata)
    FONT8x8                                  0x00009488   Data         776  graphicsdisplay.o(.constdata)
    .constdata                               0x00009790   Section    40528  mainmain.o(.constdata)
    Arial12x12                               0x00009790   Data        2404  mainmain.o(.constdata)
    Arial24x23                               0x0000a0f4   Data        7012  mainmain.o(.constdata)
    Arial28x28                               0x0000bc58   Data       10852  mainmain.o(.constdata)
    Neu42x35                                 0x0000e6bc   Data       20260  mainmain.o(.constdata)
    .constdata                               0x000135e0   Section      268  fsl_gpio_hal.o(.constdata)
    __g_regs_GPIO_base_addresses             0x000135e0   Data          20  fsl_gpio_hal.o(.constdata)
    .constdata                               0x000136ec   Section      111  serial_api.o(.constdata)
    .constdata                               0x0001375c   Section      129  gpio.o(.constdata)
    .constdata                               0x000137e0   Section      208  fsl_uart_hal_common_configurations.o(.constdata)
    __g_regs_UART_base_addresses             0x000137e0   Data          24  fsl_uart_hal_common_configurations.o(.constdata)
    .constdata                               0x000138b0   Section      164  fsl_uart_hal_status_flags.o(.constdata)
    __g_regs_UART_base_addresses             0x000138b0   Data          24  fsl_uart_hal_status_flags.o(.constdata)
    .constdata                               0x00013954   Section      168  fsl_uart_hal_transfer_functions.o(.constdata)
    __g_regs_UART_base_addresses             0x00013954   Data          24  fsl_uart_hal_transfer_functions.o(.constdata)
    .constdata                               0x000139fc   Section       96  PeripheralPins.o(.constdata)
    .constdata                               0x00013a5c   Section      108  PeripheralPins.o(.constdata)
    .constdata                               0x00013ac8   Section      144  PeripheralPins.o(.constdata)
    .constdata                               0x00013b58   Section      144  PeripheralPins.o(.constdata)
    .constdata                               0x00013be8   Section       96  PeripheralPins.o(.constdata)
    .constdata                               0x00013c48   Section      108  PeripheralPins.o(.constdata)
    .constdata                               0x00013cb4   Section      108  PeripheralPins.o(.constdata)
    .constdata                               0x00013d20   Section       96  PeripheralPins.o(.constdata)
    .constdata                               0x00013d80   Section      256  gpio_api.o(.constdata)
    __g_regs_PORT_base_addresses             0x00013d80   Data          20  gpio_api.o(.constdata)
    .constdata                               0x00013e80   Section      288  gpio_irq_api.o(.constdata)
    __g_regs_GPIO_base_addresses             0x00013e80   Data          20  gpio_irq_api.o(.constdata)
    __g_regs_PORT_base_addresses             0x00013e94   Data          20  gpio_irq_api.o(.constdata)
    .constdata                               0x00013fa0   Section      300  pinmap.o(.constdata)
    __g_regs_PORT_base_addresses             0x00013fa0   Data          20  pinmap.o(.constdata)
    .constdata                               0x000140cc   Section      472  i2c_api.o(.constdata)
    __g_regs_I2C_base_addresses              0x000140cc   Data          12  i2c_api.o(.constdata)
    __g_regs_PORT_base_addresses             0x000140d8   Data          20  i2c_api.o(.constdata)
    .constdata                               0x000142a4   Section      316  spi_api.o(.constdata)
    __g_regs_SPI_base_addresses              0x000142a4   Data          12  spi_api.o(.constdata)
    .constdata                               0x000143e0   Section      496  fsl_i2c_hal.o(.constdata)
    __g_regs_I2C_base_addresses              0x000143e0   Data          12  fsl_i2c_hal.o(.constdata)
    .constdata                               0x000145d0   Section      376  fsl_dspi_hal.o(.constdata)
    __g_regs_SPI_base_addresses              0x000145d0   Data          12  fsl_dspi_hal.o(.constdata)
    s_baudratePrescaler                      0x000145dc   Data          16  fsl_dspi_hal.o(.constdata)
    s_baudrateScaler                         0x000145ec   Data          64  fsl_dspi_hal.o(.constdata)
    .constdata                               0x00014748   Section       24  fsl_sim_clock_module_names_K64F12.o(.constdata)
    .constdata                               0x00014760   Section      564  fsl_sim_clock_module_names_K64F12.o(.constdata)
    .constdata                               0x00014994   Section      124  fsl_sim_hal.o(.constdata)
    .constdata                               0x00014a10   Section       40  _printf_hex_int_ll_ptr.o(.constdata)
    uc_hextab                                0x00014a10   Data          20  _printf_hex_int_ll_ptr.o(.constdata)
    lc_hextab                                0x00014a24   Data          20  _printf_hex_int_ll_ptr.o(.constdata)
    .constdata                               0x00014a38   Section       17  __printf_flags_ss_wp.o(.constdata)
    maptable                                 0x00014a38   Data          17  __printf_flags_ss_wp.o(.constdata)
    .constdata                               0x00014a4c   Section        8  _printf_wctomb.o(.constdata)
    initial_mbstate                          0x00014a4c   Data           8  _printf_wctomb.o(.constdata)
    .constdata                               0x00014a54   Section       38  _printf_fp_hex.o(.constdata)
    lc_hextab                                0x00014a54   Data          19  _printf_fp_hex.o(.constdata)
    uc_hextab                                0x00014a67   Data          19  _printf_fp_hex.o(.constdata)
    .constdata                               0x00014a7c   Section      148  bigflt0.o(.constdata)
    tenpwrs_x                                0x00014a7c   Data          60  bigflt0.o(.constdata)
    tenpwrs_i                                0x00014ab8   Data          64  bigflt0.o(.constdata)
    .constdata__ZTV11TextDisplay             0x00014b10   Section      100  textdisplay.o(.constdata__ZTV11TextDisplay)
    .constdata__ZTV15GraphicsDisplay         0x00014b74   Section      132  graphicsdisplay.o(.constdata__ZTV15GraphicsDisplay)
    .constdata__ZTV15SPI_TFT_ILI9341         0x00014bf8   Section      132  spi_tft_ili9341.o(.constdata__ZTV15SPI_TFT_ILI9341)
    .constdata__ZTVN4mbed10FileHandleE       0x00014c7c   Section       44  retarget.o(.constdata__ZTVN4mbed10FileHandleE)
    .constdata__ZTVN4mbed11InterruptInE      0x00014ca8   Section       16  InterruptIn.o(.constdata__ZTVN4mbed11InterruptInE)
    .constdata__ZTVN4mbed3SPIE               0x00014cb8   Section       20  SPI.o(.constdata__ZTVN4mbed3SPIE)
    .constdata__ZTVN4mbed6StreamE            0x00014ccc   Section       68  Stream.o(.constdata__ZTVN4mbed6StreamE)
    .constdata__ZTVN4mbed8FileBaseE          0x00014d10   Section       16  FileBase.o(.constdata__ZTVN4mbed8FileBaseE)
    .constdata__ZTVN4mbed8FileLikeE          0x00014d20   Section       60  FileLike.o(.constdata__ZTVN4mbed8FileLikeE)
    .conststring                             0x00014d5c   Section       82  mytouch.o(.conststring)
    locale$$data                             0x00014dd0   Section       28  lc_numeric_c.o(locale$$data)
    __lcnum_c_name                           0x00014dd4   Data           2  lc_numeric_c.o(locale$$data)
    __lcnum_c_start                          0x00014ddc   Data           0  lc_numeric_c.o(locale$$data)
    __lcnum_c_point                          0x00014de8   Data           0  lc_numeric_c.o(locale$$data)
    __lcnum_c_thousands                      0x00014dea   Data           0  lc_numeric_c.o(locale$$data)
    __lcnum_c_grouping                       0x00014deb   Data           0  lc_numeric_c.o(locale$$data)
    locale$$data                             0x00014dec   Section      272  lc_ctype_c.o(locale$$data)
    __lcnum_c_end                            0x00014dec   Data           0  lc_numeric_c.o(locale$$data)
    __lcctype_c_name                         0x00014df0   Data           2  lc_ctype_c.o(locale$$data)
    __lcctype_c_start                        0x00014df8   Data           0  lc_ctype_c.o(locale$$data)
    .init_array                              0x00014efc   Section        4  mainmain.o(.init_array)
    __lcctype_c_end                          0x00014efc   Data           0  lc_ctype_c.o(locale$$data)
    .init_array                              0x00014f00   Section        0  init_aeabi.o(.init_array)
    .data                                    0x1fff0198   Section       72  mainmain.o(.data)
    MAZE_WIDTH                               0x1fff01b4   Data           4  mainmain.o(.data)
    MAZE_HEIGHT                              0x1fff01b8   Data           4  mainmain.o(.data)
    numWalls                                 0x1fff01cc   Data           4  mainmain.o(.data)
    numHoles                                 0x1fff01d0   Data           4  mainmain.o(.data)
    .data                                    0x1fff01e0   Section       12  serial_api.o(.data)
    irq_handler                              0x1fff01e4   Data           4  serial_api.o(.data)
    .data                                    0x1fff01ec   Section        4  I2C.o(.data)
    .data                                    0x1fff01f0   Section        4  SPI.o(.data)
    .data                                    0x1fff01f4   Section       83  fsl_clock_manager.o(.data)
    .data                                    0x1fff0248   Section        4  gpio_irq_api.o(.data)
    irq_handler                              0x1fff0248   Data           4  gpio_irq_api.o(.data)
    .data                                    0x1fff024c   Section       12  us_ticker.o(.data)
    us_ticker_int_remainder                  0x1fff024c   Data           2  us_ticker.o(.data)
    us_ticker_inited                         0x1fff0250   Data           4  us_ticker.o(.data)
    us_ticker_int_counter                    0x1fff0254   Data           4  us_ticker.o(.data)
    .data                                    0x1fff0258   Section        4  FileBase.o(.data)
    .data                                    0x1fff025c   Section        8  us_ticker_api.o(.data)
    head                                     0x1fff025c   Data           4  us_ticker_api.o(.data)
    event_handler                            0x1fff0260   Data           4  us_ticker_api.o(.data)
    .data                                    0x1fff0264   Section        4  stdio_streams.o(.data)
    .data                                    0x1fff0268   Section        4  stdio_streams.o(.data)
    .data                                    0x1fff026c   Section        4  stdio_streams.o(.data)
    .data                                    0x1fff0270   Section        4  heapauxa.o(.data)
    __rt_heap_escrow_base                    0x1fff0270   Data           4  heapauxa.o(.data)
    .bss                                     0x1fff0274   Section       64  retarget.o(.bss)
    filehandles                              0x1fff0274   Data          64  retarget.o(.bss)
    .bss                                     0x1fff02b4   Section      208  mainmain.o(.bss)
    .bss                                     0x1fff0384   Section      640  gpio_irq_api.o(.bss)
    channel_ids                              0x1fff0384   Data         640  gpio_irq_api.o(.bss)
    .bss                                     0x1fff0604   Section       84  stdio_streams.o(.bss)
    .bss                                     0x1fff0658   Section       84  stdio_streams.o(.bss)
    .bss                                     0x1fff06ac   Section       84  stdio_streams.o(.bss)
    .bss                                     0x1fff0700   Section        4  rt_heap_descriptor.o(.bss)
    __rt_heap_descriptor_data                0x1fff0700   Data           4  rt_heap_descriptor.o(.bss)
    .bss                                     0x1fff0704   Section        4  rt_new_handler_addr.o(.bss)
    __rt_new_handler_addr_data               0x1fff0704   Data           4  rt_new_handler_addr.o(.bss)
    .bss                                     0x1fff0708   Section        4  rt_ddtor_pointer_addr.o(.bss)
    __rt_ddtor_pointer_addr_data             0x1fff0708   Data           4  rt_ddtor_pointer_addr.o(.bss)
    .bss                                     0x1fff070c   Section        4  rt_errno_addr.o(.bss)
    __aeabi_errno_addr_data                  0x1fff070c   Data           4  rt_errno_addr.o(.bss)
    .bss                                     0x1fff0710   Section       20  rt_locale.o(.bss)
    __rt_locale_data                         0x1fff0710   Data          20  rt_locale.o(.bss)
    .bss                                     0x1fff0724   Section        4  rt_eh_globals_addr.o(.bss)
    __rt_eh_globals_addr_data                0x1fff0724   Data           4  rt_eh_globals_addr.o(.bss)

    Global Symbols

    Symbol Name                              Value     Ov Type        Size  Object(Section)

    BuildAttributes$$THM_ISAv4$E$P$D$K$B$S$7EM$VFPi3$EXTD16$VFPS$VFMA$PE$A:L22UL41UL21$X:L11$S22US41US21$IEEE1$IW$USESV6$~STKCKD$USESV7$~SHL$OTIME$ROPI$IEEEX$EBA8$UX$STANDARDLIB$REQ8$PRES8$EABIv2 0x00000000   Number         0  anon$$obj.o ABSOLUTE
    __ARM_use_no_argv                        0x00000000   Number         0  mainmain.o ABSOLUTE
    __Vectors                                0x00000000   Data           4  startup_MK64F12.o(RESET)
    __dso_handle                             0x00000000   Number         0  startup_MK64F12.o(RESET)
    _printf_flags                            0x00000000   Number         0  printf_stubs.o ABSOLUTE
    _printf_return_value                     0x00000000   Number         0  printf_stubs.o ABSOLUTE
    _printf_sizespec                         0x00000000   Number         0  printf_stubs.o ABSOLUTE
    _printf_widthprec                        0x00000000   Number         0  printf_stubs.o ABSOLUTE
    SHT$$ARM_EXIDX$$Base                      - Undefined Reference
    SHT$$ARM_EXIDX$$Limit                     - Undefined Reference
    __ARM::default_unexpected_handler()       - Undefined Weak Reference
    __ARM_exceptions_buffer_required          - Undefined Weak Reference
    __ARM_exceptions_init                     - Undefined Weak Reference
    __aeabi_unwind_cpp_pr1                    - Undefined Weak Reference
    __aeabi_unwind_cpp_pr2                    - Undefined Weak Reference
    __alloca_initialize                       - Undefined Weak Reference
    __arm_preinit_                            - Undefined Weak Reference
    __cxa_begin_cleanup                       - Undefined Weak Reference
    __cxa_type_match                          - Undefined Weak Reference
    __rt_lib_shutdown                         - Undefined Weak Reference
    __sigvec_lookup                           - Undefined Weak Reference
    __user_heap_extent                        - Undefined Weak Reference
    _atexit_init                              - Undefined Weak Reference
    _clock_init                               - Undefined Weak Reference
    _fp_trap_init                             - Undefined Weak Reference
    _fp_trap_shutdown                         - Undefined Weak Reference
    _get_lc_collate                           - Undefined Weak Reference
    _get_lc_monetary                          - Undefined Weak Reference
    _get_lc_time                              - Undefined Weak Reference
    _getenv_init                              - Undefined Weak Reference
    _handle_redirection                       - Undefined Weak Reference
    _mutex_acquire                            - Undefined Weak Reference
    _mutex_free                               - Undefined Weak Reference
    _mutex_release                            - Undefined Weak Reference
    _printf_mbtowc                            - Undefined Weak Reference
    _printf_wc                                - Undefined Weak Reference
    _rand_init                                - Undefined Weak Reference
    _signal_finish                            - Undefined Weak Reference
    _signal_init                              - Undefined Weak Reference
    __Vectors_End                            0x00000400   Data           0  startup_MK64F12.o(RESET)
    __Vectors_Size                           0x00000400   Number         0  startup_MK64F12.o ABSOLUTE
    __main                                   0x00000411   Thumb Code     8  __main.o(!!!main)
    __scatterload                            0x00000419   Thumb Code     0  __scatter.o(!!!scatter)
    __scatterload_rt2                        0x00000419   Thumb Code    44  __scatter.o(!!!scatter)
    __scatterload_rt2_thumb_only             0x00000419   Thumb Code     0  __scatter.o(!!!scatter)
    __scatterload_null                       0x00000427   Thumb Code     0  __scatter.o(!!!scatter)
    __scatterload_copy                       0x0000044d   Thumb Code    26  __scatter_copy.o(!!handler_copy)
    __scatterload_zeroinit                   0x00000469   Thumb Code    28  __scatter_zi.o(!!handler_zi)
    _printf_n                                0x00000485   Thumb Code     0  _printf_n.o(.ARM.Collect$$_printf_percent$$00000001)
    _printf_percent                          0x00000485   Thumb Code     0  _printf_percent.o(.ARM.Collect$$_printf_percent$$00000000)
    _printf_p                                0x0000048b   Thumb Code     0  _printf_p.o(.ARM.Collect$$_printf_percent$$00000002)
    _printf_f                                0x00000491   Thumb Code     0  _printf_f.o(.ARM.Collect$$_printf_percent$$00000003)
    _printf_e                                0x00000497   Thumb Code     0  _printf_e.o(.ARM.Collect$$_printf_percent$$00000004)
    _printf_g                                0x0000049d   Thumb Code     0  _printf_g.o(.ARM.Collect$$_printf_percent$$00000005)
    _printf_a                                0x000004a3   Thumb Code     0  _printf_a.o(.ARM.Collect$$_printf_percent$$00000006)
    _printf_ll                               0x000004a9   Thumb Code     0  _printf_ll.o(.ARM.Collect$$_printf_percent$$00000007)
    _printf_i                                0x000004b3   Thumb Code     0  _printf_i.o(.ARM.Collect$$_printf_percent$$00000008)
    _printf_d                                0x000004b9   Thumb Code     0  _printf_d.o(.ARM.Collect$$_printf_percent$$00000009)
    _printf_u                                0x000004bf   Thumb Code     0  _printf_u.o(.ARM.Collect$$_printf_percent$$0000000A)
    _printf_o                                0x000004c5   Thumb Code     0  _printf_o.o(.ARM.Collect$$_printf_percent$$0000000B)
    _printf_x                                0x000004cb   Thumb Code     0  _printf_x.o(.ARM.Collect$$_printf_percent$$0000000C)
    _printf_lli                              0x000004d1   Thumb Code     0  _printf_lli.o(.ARM.Collect$$_printf_percent$$0000000D)
    _printf_lld                              0x000004d7   Thumb Code     0  _printf_lld.o(.ARM.Collect$$_printf_percent$$0000000E)
    _printf_llu                              0x000004dd   Thumb Code     0  _printf_llu.o(.ARM.Collect$$_printf_percent$$0000000F)
    _printf_llo                              0x000004e3   Thumb Code     0  _printf_llo.o(.ARM.Collect$$_printf_percent$$00000010)
    _printf_llx                              0x000004e9   Thumb Code     0  _printf_llx.o(.ARM.Collect$$_printf_percent$$00000011)
    _printf_l                                0x000004ef   Thumb Code     0  _printf_l.o(.ARM.Collect$$_printf_percent$$00000012)
    _printf_c                                0x000004f9   Thumb Code     0  _printf_c.o(.ARM.Collect$$_printf_percent$$00000013)
    _printf_s                                0x000004ff   Thumb Code     0  _printf_s.o(.ARM.Collect$$_printf_percent$$00000014)
    _printf_lc                               0x00000505   Thumb Code     0  _printf_lc.o(.ARM.Collect$$_printf_percent$$00000015)
    _printf_ls                               0x0000050b   Thumb Code     0  _printf_ls.o(.ARM.Collect$$_printf_percent$$00000016)
    _printf_percent_end                      0x00000511   Thumb Code     0  _printf_percent_end.o(.ARM.Collect$$_printf_percent$$00000017)
    __rt_lib_init                            0x00000515   Thumb Code     0  libinit.o(.ARM.Collect$$libinit$$00000000)
    __rt_lib_init_fp_1                       0x00000517   Thumb Code     0  libinit2.o(.ARM.Collect$$libinit$$00000001)
    __rt_lib_init_heap_2                     0x0000051b   Thumb Code     0  libinit2.o(.ARM.Collect$$libinit$$00000005)
    __rt_lib_init_preinit_1                  0x0000051b   Thumb Code     0  libinit2.o(.ARM.Collect$$libinit$$00000004)
    __rt_lib_init_heap_1                     0x00000523   Thumb Code     0  libinit2.o(.ARM.Collect$$libinit$$0000000A)
    __rt_lib_init_lc_common                  0x00000523   Thumb Code     0  libinit2.o(.ARM.Collect$$libinit$$0000000F)
    __rt_lib_init_rand_1                     0x00000523   Thumb Code     0  libinit2.o(.ARM.Collect$$libinit$$0000000E)
    __rt_lib_init_user_alloc_1               0x00000523   Thumb Code     0  libinit2.o(.ARM.Collect$$libinit$$0000000C)
    __rt_lib_init_lc_collate_1               0x00000529   Thumb Code     0  libinit2.o(.ARM.Collect$$libinit$$00000011)
    __rt_lib_init_lc_ctype_2                 0x00000529   Thumb Code     0  libinit2.o(.ARM.Collect$$libinit$$00000012)
    __rt_lib_init_lc_ctype_1                 0x00000535   Thumb Code     0  libinit2.o(.ARM.Collect$$libinit$$00000013)
    __rt_lib_init_lc_monetary_1              0x00000535   Thumb Code     0  libinit2.o(.ARM.Collect$$libinit$$00000015)
    __rt_lib_init_lc_numeric_2               0x00000535   Thumb Code     0  libinit2.o(.ARM.Collect$$libinit$$00000016)
    __rt_lib_init_atexit_1                   0x0000053f   Thumb Code     0  libinit2.o(.ARM.Collect$$libinit$$0000001B)
    __rt_lib_init_clock_1                    0x0000053f   Thumb Code     0  libinit2.o(.ARM.Collect$$libinit$$00000021)
